
TFMSXRev2F730.elf:     file format elf32-littlearm

Sections:
Idx Name          Size      VMA       LMA       File off  Algn
  0 .isr_vector   000001e0  08000000  08000000  00010000  2**0
                  CONTENTS, ALLOC, LOAD, READONLY, DATA
  1 .text         00007220  080001e0  080001e0  000101e0  2**2
                  CONTENTS, ALLOC, LOAD, READONLY, CODE
  2 .rodata       00000390  08007400  08007400  00017400  2**2
                  CONTENTS, ALLOC, LOAD, READONLY, DATA
  3 .ARM.extab    00000000  08007790  08007790  000200f0  2**0
                  CONTENTS
  4 .ARM          00000008  08007790  08007790  00017790  2**2
                  CONTENTS, ALLOC, LOAD, READONLY, DATA
  5 .preinit_array 00000000  08007798  08007798  000200f0  2**0
                  CONTENTS, ALLOC, LOAD, DATA
  6 .init_array   00000004  08007798  08007798  00017798  2**2
                  CONTENTS, ALLOC, LOAD, DATA
  7 .fini_array   00000004  0800779c  0800779c  0001779c  2**2
                  CONTENTS, ALLOC, LOAD, DATA
  8 .data         000000f0  20000000  080077a0  00020000  2**2
                  CONTENTS, ALLOC, LOAD, DATA
  9 .bss          0000126c  200000f0  08007890  000200f0  2**2
                  ALLOC
 10 ._user_heap_stack 00004004  2000135c  08007890  0002135c  2**0
                  ALLOC
 11 .ARM.attributes 00000030  00000000  00000000  000200f0  2**0
                  CONTENTS, READONLY
 12 .comment      00000053  00000000  00000000  00020120  2**0
                  CONTENTS, READONLY
 13 .debug_frame  000002cc  00000000  00000000  00020174  2**2
                  CONTENTS, READONLY, DEBUGGING, OCTETS

Disassembly of section .text:

080001e0 <__do_global_dtors_aux>:
 80001e0:	b510      	push	{r4, lr}
 80001e2:	4c05      	ldr	r4, [pc, #20]	; (80001f8 <__do_global_dtors_aux+0x18>)
 80001e4:	7823      	ldrb	r3, [r4, #0]
 80001e6:	b933      	cbnz	r3, 80001f6 <__do_global_dtors_aux+0x16>
 80001e8:	4b04      	ldr	r3, [pc, #16]	; (80001fc <__do_global_dtors_aux+0x1c>)
 80001ea:	b113      	cbz	r3, 80001f2 <__do_global_dtors_aux+0x12>
 80001ec:	4804      	ldr	r0, [pc, #16]	; (8000200 <__do_global_dtors_aux+0x20>)
 80001ee:	f3af 8000 	nop.w
 80001f2:	2301      	movs	r3, #1
 80001f4:	7023      	strb	r3, [r4, #0]
 80001f6:	bd10      	pop	{r4, pc}
 80001f8:	200000f0 	.word	0x200000f0
 80001fc:	00000000 	.word	0x00000000
 8000200:	080073e8 	.word	0x080073e8

08000204 <frame_dummy>:
 8000204:	b508      	push	{r3, lr}
 8000206:	4b03      	ldr	r3, [pc, #12]	; (8000214 <frame_dummy+0x10>)
 8000208:	b11b      	cbz	r3, 8000212 <frame_dummy+0xe>
 800020a:	4903      	ldr	r1, [pc, #12]	; (8000218 <frame_dummy+0x14>)
 800020c:	4803      	ldr	r0, [pc, #12]	; (800021c <frame_dummy+0x18>)
 800020e:	f3af 8000 	nop.w
 8000212:	bd08      	pop	{r3, pc}
 8000214:	00000000 	.word	0x00000000
 8000218:	200000f4 	.word	0x200000f4
 800021c:	080073e8 	.word	0x080073e8

08000220 <__aeabi_uldivmod>:
 8000220:	b953      	cbnz	r3, 8000238 <__aeabi_uldivmod+0x18>
 8000222:	b94a      	cbnz	r2, 8000238 <__aeabi_uldivmod+0x18>
 8000224:	2900      	cmp	r1, #0
 8000226:	bf08      	it	eq
 8000228:	2800      	cmpeq	r0, #0
 800022a:	bf1c      	itt	ne
 800022c:	f04f 31ff 	movne.w	r1, #4294967295
 8000230:	f04f 30ff 	movne.w	r0, #4294967295
 8000234:	f000 b96e 	b.w	8000514 <__aeabi_idiv0>
 8000238:	f1ad 0c08 	sub.w	ip, sp, #8
 800023c:	e96d ce04 	strd	ip, lr, [sp, #-16]!
 8000240:	f000 f806 	bl	8000250 <__udivmoddi4>
 8000244:	f8dd e004 	ldr.w	lr, [sp, #4]
 8000248:	e9dd 2302 	ldrd	r2, r3, [sp, #8]
 800024c:	b004      	add	sp, #16
 800024e:	4770      	bx	lr

08000250 <__udivmoddi4>:
 8000250:	e92d 47f0 	stmdb	sp!, {r4, r5, r6, r7, r8, r9, sl, lr}
 8000254:	9d08      	ldr	r5, [sp, #32]
 8000256:	4604      	mov	r4, r0
 8000258:	468c      	mov	ip, r1
 800025a:	2b00      	cmp	r3, #0
 800025c:	f040 8083 	bne.w	8000366 <__udivmoddi4+0x116>
 8000260:	428a      	cmp	r2, r1
 8000262:	4617      	mov	r7, r2
 8000264:	d947      	bls.n	80002f6 <__udivmoddi4+0xa6>
 8000266:	fab2 f282 	clz	r2, r2
 800026a:	b142      	cbz	r2, 800027e <__udivmoddi4+0x2e>
 800026c:	f1c2 0020 	rsb	r0, r2, #32
 8000270:	fa24 f000 	lsr.w	r0, r4, r0
 8000274:	4091      	lsls	r1, r2
 8000276:	4097      	lsls	r7, r2
 8000278:	ea40 0c01 	orr.w	ip, r0, r1
 800027c:	4094      	lsls	r4, r2
 800027e:	ea4f 4817 	mov.w	r8, r7, lsr #16
 8000282:	0c23      	lsrs	r3, r4, #16
 8000284:	fbbc f6f8 	udiv	r6, ip, r8
 8000288:	fa1f fe87 	uxth.w	lr, r7
 800028c:	fb08 c116 	mls	r1, r8, r6, ip
 8000290:	ea43 4301 	orr.w	r3, r3, r1, lsl #16
 8000294:	fb06 f10e 	mul.w	r1, r6, lr
 8000298:	4299      	cmp	r1, r3
 800029a:	d909      	bls.n	80002b0 <__udivmoddi4+0x60>
 800029c:	18fb      	adds	r3, r7, r3
 800029e:	f106 30ff 	add.w	r0, r6, #4294967295
 80002a2:	f080 8119 	bcs.w	80004d8 <__udivmoddi4+0x288>
 80002a6:	4299      	cmp	r1, r3
 80002a8:	f240 8116 	bls.w	80004d8 <__udivmoddi4+0x288>
 80002ac:	3e02      	subs	r6, #2
 80002ae:	443b      	add	r3, r7
 80002b0:	1a5b      	subs	r3, r3, r1
 80002b2:	b2a4      	uxth	r4, r4
 80002b4:	fbb3 f0f8 	udiv	r0, r3, r8
 80002b8:	fb08 3310 	mls	r3, r8, r0, r3
 80002bc:	ea44 4403 	orr.w	r4, r4, r3, lsl #16
 80002c0:	fb00 fe0e 	mul.w	lr, r0, lr
 80002c4:	45a6      	cmp	lr, r4
 80002c6:	d909      	bls.n	80002dc <__udivmoddi4+0x8c>
 80002c8:	193c      	adds	r4, r7, r4
 80002ca:	f100 33ff 	add.w	r3, r0, #4294967295
 80002ce:	f080 8105 	bcs.w	80004dc <__udivmoddi4+0x28c>
 80002d2:	45a6      	cmp	lr, r4
 80002d4:	f240 8102 	bls.w	80004dc <__udivmoddi4+0x28c>
 80002d8:	3802      	subs	r0, #2
 80002da:	443c      	add	r4, r7
 80002dc:	ea40 4006 	orr.w	r0, r0, r6, lsl #16
 80002e0:	eba4 040e 	sub.w	r4, r4, lr
 80002e4:	2600      	movs	r6, #0
 80002e6:	b11d      	cbz	r5, 80002f0 <__udivmoddi4+0xa0>
 80002e8:	40d4      	lsrs	r4, r2
 80002ea:	2300      	movs	r3, #0
 80002ec:	e9c5 4300 	strd	r4, r3, [r5]
 80002f0:	4631      	mov	r1, r6
 80002f2:	e8bd 87f0 	ldmia.w	sp!, {r4, r5, r6, r7, r8, r9, sl, pc}
 80002f6:	b902      	cbnz	r2, 80002fa <__udivmoddi4+0xaa>
 80002f8:	deff      	udf	#255	; 0xff
 80002fa:	fab2 f282 	clz	r2, r2
 80002fe:	2a00      	cmp	r2, #0
 8000300:	d150      	bne.n	80003a4 <__udivmoddi4+0x154>
 8000302:	1bcb      	subs	r3, r1, r7
 8000304:	ea4f 4e17 	mov.w	lr, r7, lsr #16
 8000308:	fa1f f887 	uxth.w	r8, r7
 800030c:	2601      	movs	r6, #1
 800030e:	fbb3 fcfe 	udiv	ip, r3, lr
 8000312:	0c21      	lsrs	r1, r4, #16
 8000314:	fb0e 331c 	mls	r3, lr, ip, r3
 8000318:	ea41 4103 	orr.w	r1, r1, r3, lsl #16
 800031c:	fb08 f30c 	mul.w	r3, r8, ip
 8000320:	428b      	cmp	r3, r1
 8000322:	d907      	bls.n	8000334 <__udivmoddi4+0xe4>
 8000324:	1879      	adds	r1, r7, r1
 8000326:	f10c 30ff 	add.w	r0, ip, #4294967295
 800032a:	d202      	bcs.n	8000332 <__udivmoddi4+0xe2>
 800032c:	428b      	cmp	r3, r1
 800032e:	f200 80e9 	bhi.w	8000504 <__udivmoddi4+0x2b4>
 8000332:	4684      	mov	ip, r0
 8000334:	1ac9      	subs	r1, r1, r3
 8000336:	b2a3      	uxth	r3, r4
 8000338:	fbb1 f0fe 	udiv	r0, r1, lr
 800033c:	fb0e 1110 	mls	r1, lr, r0, r1
 8000340:	ea43 4401 	orr.w	r4, r3, r1, lsl #16
 8000344:	fb08 f800 	mul.w	r8, r8, r0
 8000348:	45a0      	cmp	r8, r4
 800034a:	d907      	bls.n	800035c <__udivmoddi4+0x10c>
 800034c:	193c      	adds	r4, r7, r4
 800034e:	f100 33ff 	add.w	r3, r0, #4294967295
 8000352:	d202      	bcs.n	800035a <__udivmoddi4+0x10a>
 8000354:	45a0      	cmp	r8, r4
 8000356:	f200 80d9 	bhi.w	800050c <__udivmoddi4+0x2bc>
 800035a:	4618      	mov	r0, r3
 800035c:	eba4 0408 	sub.w	r4, r4, r8
 8000360:	ea40 400c 	orr.w	r0, r0, ip, lsl #16
 8000364:	e7bf      	b.n	80002e6 <__udivmoddi4+0x96>
 8000366:	428b      	cmp	r3, r1
 8000368:	d909      	bls.n	800037e <__udivmoddi4+0x12e>
 800036a:	2d00      	cmp	r5, #0
 800036c:	f000 80b1 	beq.w	80004d2 <__udivmoddi4+0x282>
 8000370:	2600      	movs	r6, #0
 8000372:	e9c5 0100 	strd	r0, r1, [r5]
 8000376:	4630      	mov	r0, r6
 8000378:	4631      	mov	r1, r6
 800037a:	e8bd 87f0 	ldmia.w	sp!, {r4, r5, r6, r7, r8, r9, sl, pc}
 800037e:	fab3 f683 	clz	r6, r3
 8000382:	2e00      	cmp	r6, #0
 8000384:	d14a      	bne.n	800041c <__udivmoddi4+0x1cc>
 8000386:	428b      	cmp	r3, r1
 8000388:	d302      	bcc.n	8000390 <__udivmoddi4+0x140>
 800038a:	4282      	cmp	r2, r0
 800038c:	f200 80b8 	bhi.w	8000500 <__udivmoddi4+0x2b0>
 8000390:	1a84      	subs	r4, r0, r2
 8000392:	eb61 0103 	sbc.w	r1, r1, r3
 8000396:	2001      	movs	r0, #1
 8000398:	468c      	mov	ip, r1
 800039a:	2d00      	cmp	r5, #0
 800039c:	d0a8      	beq.n	80002f0 <__udivmoddi4+0xa0>
 800039e:	e9c5 4c00 	strd	r4, ip, [r5]
 80003a2:	e7a5      	b.n	80002f0 <__udivmoddi4+0xa0>
 80003a4:	f1c2 0320 	rsb	r3, r2, #32
 80003a8:	fa20 f603 	lsr.w	r6, r0, r3
 80003ac:	4097      	lsls	r7, r2
 80003ae:	fa01 f002 	lsl.w	r0, r1, r2
 80003b2:	ea4f 4e17 	mov.w	lr, r7, lsr #16
 80003b6:	40d9      	lsrs	r1, r3
 80003b8:	4330      	orrs	r0, r6
 80003ba:	0c03      	lsrs	r3, r0, #16
 80003bc:	fbb1 f6fe 	udiv	r6, r1, lr
 80003c0:	fa1f f887 	uxth.w	r8, r7
 80003c4:	fb0e 1116 	mls	r1, lr, r6, r1
 80003c8:	ea43 4301 	orr.w	r3, r3, r1, lsl #16
 80003cc:	fb06 f108 	mul.w	r1, r6, r8
 80003d0:	4299      	cmp	r1, r3
 80003d2:	fa04 f402 	lsl.w	r4, r4, r2
 80003d6:	d909      	bls.n	80003ec <__udivmoddi4+0x19c>
 80003d8:	18fb      	adds	r3, r7, r3
 80003da:	f106 3cff 	add.w	ip, r6, #4294967295
 80003de:	f080 808d 	bcs.w	80004fc <__udivmoddi4+0x2ac>
 80003e2:	4299      	cmp	r1, r3
 80003e4:	f240 808a 	bls.w	80004fc <__udivmoddi4+0x2ac>
 80003e8:	3e02      	subs	r6, #2
 80003ea:	443b      	add	r3, r7
 80003ec:	1a5b      	subs	r3, r3, r1
 80003ee:	b281      	uxth	r1, r0
 80003f0:	fbb3 f0fe 	udiv	r0, r3, lr
 80003f4:	fb0e 3310 	mls	r3, lr, r0, r3
 80003f8:	ea41 4103 	orr.w	r1, r1, r3, lsl #16
 80003fc:	fb00 f308 	mul.w	r3, r0, r8
 8000400:	428b      	cmp	r3, r1
 8000402:	d907      	bls.n	8000414 <__udivmoddi4+0x1c4>
 8000404:	1879      	adds	r1, r7, r1
 8000406:	f100 3cff 	add.w	ip, r0, #4294967295
 800040a:	d273      	bcs.n	80004f4 <__udivmoddi4+0x2a4>
 800040c:	428b      	cmp	r3, r1
 800040e:	d971      	bls.n	80004f4 <__udivmoddi4+0x2a4>
 8000410:	3802      	subs	r0, #2
 8000412:	4439      	add	r1, r7
 8000414:	1acb      	subs	r3, r1, r3
 8000416:	ea40 4606 	orr.w	r6, r0, r6, lsl #16
 800041a:	e778      	b.n	800030e <__udivmoddi4+0xbe>
 800041c:	f1c6 0c20 	rsb	ip, r6, #32
 8000420:	fa03 f406 	lsl.w	r4, r3, r6
 8000424:	fa22 f30c 	lsr.w	r3, r2, ip
 8000428:	431c      	orrs	r4, r3
 800042a:	fa20 f70c 	lsr.w	r7, r0, ip
 800042e:	fa01 f306 	lsl.w	r3, r1, r6
 8000432:	ea4f 4e14 	mov.w	lr, r4, lsr #16
 8000436:	fa21 f10c 	lsr.w	r1, r1, ip
 800043a:	431f      	orrs	r7, r3
 800043c:	0c3b      	lsrs	r3, r7, #16
 800043e:	fbb1 f9fe 	udiv	r9, r1, lr
 8000442:	fa1f f884 	uxth.w	r8, r4
 8000446:	fb0e 1119 	mls	r1, lr, r9, r1
 800044a:	ea43 4101 	orr.w	r1, r3, r1, lsl #16
 800044e:	fb09 fa08 	mul.w	sl, r9, r8
 8000452:	458a      	cmp	sl, r1
 8000454:	fa02 f206 	lsl.w	r2, r2, r6
 8000458:	fa00 f306 	lsl.w	r3, r0, r6
 800045c:	d908      	bls.n	8000470 <__udivmoddi4+0x220>
 800045e:	1861      	adds	r1, r4, r1
 8000460:	f109 30ff 	add.w	r0, r9, #4294967295
 8000464:	d248      	bcs.n	80004f8 <__udivmoddi4+0x2a8>
 8000466:	458a      	cmp	sl, r1
 8000468:	d946      	bls.n	80004f8 <__udivmoddi4+0x2a8>
 800046a:	f1a9 0902 	sub.w	r9, r9, #2
 800046e:	4421      	add	r1, r4
 8000470:	eba1 010a 	sub.w	r1, r1, sl
 8000474:	b2bf      	uxth	r7, r7
 8000476:	fbb1 f0fe 	udiv	r0, r1, lr
 800047a:	fb0e 1110 	mls	r1, lr, r0, r1
 800047e:	ea47 4701 	orr.w	r7, r7, r1, lsl #16
 8000482:	fb00 f808 	mul.w	r8, r0, r8
 8000486:	45b8      	cmp	r8, r7
 8000488:	d907      	bls.n	800049a <__udivmoddi4+0x24a>
 800048a:	19e7      	adds	r7, r4, r7
 800048c:	f100 31ff 	add.w	r1, r0, #4294967295
 8000490:	d22e      	bcs.n	80004f0 <__udivmoddi4+0x2a0>
 8000492:	45b8      	cmp	r8, r7
 8000494:	d92c      	bls.n	80004f0 <__udivmoddi4+0x2a0>
 8000496:	3802      	subs	r0, #2
 8000498:	4427      	add	r7, r4
 800049a:	ea40 4009 	orr.w	r0, r0, r9, lsl #16
 800049e:	eba7 0708 	sub.w	r7, r7, r8
 80004a2:	fba0 8902 	umull	r8, r9, r0, r2
 80004a6:	454f      	cmp	r7, r9
 80004a8:	46c6      	mov	lr, r8
 80004aa:	4649      	mov	r1, r9
 80004ac:	d31a      	bcc.n	80004e4 <__udivmoddi4+0x294>
 80004ae:	d017      	beq.n	80004e0 <__udivmoddi4+0x290>
 80004b0:	b15d      	cbz	r5, 80004ca <__udivmoddi4+0x27a>
 80004b2:	ebb3 020e 	subs.w	r2, r3, lr
 80004b6:	eb67 0701 	sbc.w	r7, r7, r1
 80004ba:	fa07 fc0c 	lsl.w	ip, r7, ip
 80004be:	40f2      	lsrs	r2, r6
 80004c0:	ea4c 0202 	orr.w	r2, ip, r2
 80004c4:	40f7      	lsrs	r7, r6
 80004c6:	e9c5 2700 	strd	r2, r7, [r5]
 80004ca:	2600      	movs	r6, #0
 80004cc:	4631      	mov	r1, r6
 80004ce:	e8bd 87f0 	ldmia.w	sp!, {r4, r5, r6, r7, r8, r9, sl, pc}
 80004d2:	462e      	mov	r6, r5
 80004d4:	4628      	mov	r0, r5
 80004d6:	e70b      	b.n	80002f0 <__udivmoddi4+0xa0>
 80004d8:	4606      	mov	r6, r0
 80004da:	e6e9      	b.n	80002b0 <__udivmoddi4+0x60>
 80004dc:	4618      	mov	r0, r3
 80004de:	e6fd      	b.n	80002dc <__udivmoddi4+0x8c>
 80004e0:	4543      	cmp	r3, r8
 80004e2:	d2e5      	bcs.n	80004b0 <__udivmoddi4+0x260>
 80004e4:	ebb8 0e02 	subs.w	lr, r8, r2
 80004e8:	eb69 0104 	sbc.w	r1, r9, r4
 80004ec:	3801      	subs	r0, #1
 80004ee:	e7df      	b.n	80004b0 <__udivmoddi4+0x260>
 80004f0:	4608      	mov	r0, r1
 80004f2:	e7d2      	b.n	800049a <__udivmoddi4+0x24a>
 80004f4:	4660      	mov	r0, ip
 80004f6:	e78d      	b.n	8000414 <__udivmoddi4+0x1c4>
 80004f8:	4681      	mov	r9, r0
 80004fa:	e7b9      	b.n	8000470 <__udivmoddi4+0x220>
 80004fc:	4666      	mov	r6, ip
 80004fe:	e775      	b.n	80003ec <__udivmoddi4+0x19c>
 8000500:	4630      	mov	r0, r6
 8000502:	e74a      	b.n	800039a <__udivmoddi4+0x14a>
 8000504:	f1ac 0c02 	sub.w	ip, ip, #2
 8000508:	4439      	add	r1, r7
 800050a:	e713      	b.n	8000334 <__udivmoddi4+0xe4>
 800050c:	3802      	subs	r0, #2
 800050e:	443c      	add	r4, r7
 8000510:	e724      	b.n	800035c <__udivmoddi4+0x10c>
 8000512:	bf00      	nop

08000514 <__aeabi_idiv0>:
 8000514:	4770      	bx	lr
 8000516:	bf00      	nop

08000518 <MX_DAC_Init>:
 8000518:	b513      	push	{r0, r1, r4, lr}
 800051a:	4b0b      	ldr	r3, [pc, #44]	; (8000548 <MX_DAC_Init+0x30>)
 800051c:	2400      	movs	r4, #0
 800051e:	480b      	ldr	r0, [pc, #44]	; (800054c <MX_DAC_Init+0x34>)
 8000520:	e9cd 4400 	strd	r4, r4, [sp]
 8000524:	6003      	str	r3, [r0, #0]
 8000526:	f000 ffc9 	bl	80014bc <HAL_DAC_Init>
 800052a:	b108      	cbz	r0, 8000530 <MX_DAC_Init+0x18>
 800052c:	f000 fafe 	bl	8000b2c <Error_Handler>
 8000530:	2200      	movs	r2, #0
 8000532:	4669      	mov	r1, sp
 8000534:	4805      	ldr	r0, [pc, #20]	; (800054c <MX_DAC_Init+0x34>)
 8000536:	e9cd 4400 	strd	r4, r4, [sp]
 800053a:	f001 f805 	bl	8001548 <HAL_DAC_ConfigChannel>
 800053e:	b108      	cbz	r0, 8000544 <MX_DAC_Init+0x2c>
 8000540:	f000 faf4 	bl	8000b2c <Error_Handler>
 8000544:	b002      	add	sp, #8
 8000546:	bd10      	pop	{r4, pc}
 8000548:	40007400 	.word	0x40007400
 800054c:	20000128 	.word	0x20000128

08000550 <HAL_DAC_MspInit>:
 8000550:	b510      	push	{r4, lr}
 8000552:	b088      	sub	sp, #32
 8000554:	4604      	mov	r4, r0
 8000556:	2214      	movs	r2, #20
 8000558:	2100      	movs	r1, #0
 800055a:	a803      	add	r0, sp, #12
 800055c:	f006 fe74 	bl	8007248 <memset>
 8000560:	6822      	ldr	r2, [r4, #0]
 8000562:	4b15      	ldr	r3, [pc, #84]	; (80005b8 <HAL_DAC_MspInit+0x68>)
 8000564:	429a      	cmp	r2, r3
 8000566:	d125      	bne.n	80005b4 <HAL_DAC_MspInit+0x64>
 8000568:	f503 33e2 	add.w	r3, r3, #115712	; 0x1c400
 800056c:	2400      	movs	r4, #0
 800056e:	a903      	add	r1, sp, #12
 8000570:	4812      	ldr	r0, [pc, #72]	; (80005bc <HAL_DAC_MspInit+0x6c>)
 8000572:	6c1a      	ldr	r2, [r3, #64]	; 0x40
 8000574:	f042 5200 	orr.w	r2, r2, #536870912	; 0x20000000
 8000578:	641a      	str	r2, [r3, #64]	; 0x40
 800057a:	6c1a      	ldr	r2, [r3, #64]	; 0x40
 800057c:	f002 5200 	and.w	r2, r2, #536870912	; 0x20000000
 8000580:	9201      	str	r2, [sp, #4]
 8000582:	9a01      	ldr	r2, [sp, #4]
 8000584:	6b1a      	ldr	r2, [r3, #48]	; 0x30
 8000586:	f042 0201 	orr.w	r2, r2, #1
 800058a:	631a      	str	r2, [r3, #48]	; 0x30
 800058c:	2210      	movs	r2, #16
 800058e:	6b1b      	ldr	r3, [r3, #48]	; 0x30
 8000590:	9405      	str	r4, [sp, #20]
 8000592:	f003 0301 	and.w	r3, r3, #1
 8000596:	9302      	str	r3, [sp, #8]
 8000598:	9b02      	ldr	r3, [sp, #8]
 800059a:	2303      	movs	r3, #3
 800059c:	e9cd 2303 	strd	r2, r3, [sp, #12]
 80005a0:	f001 f924 	bl	80017ec <HAL_GPIO_Init>
 80005a4:	2036      	movs	r0, #54	; 0x36
 80005a6:	4622      	mov	r2, r4
 80005a8:	2102      	movs	r1, #2
 80005aa:	f000 ff47 	bl	800143c <HAL_NVIC_SetPriority>
 80005ae:	2036      	movs	r0, #54	; 0x36
 80005b0:	f000 ff76 	bl	80014a0 <HAL_NVIC_EnableIRQ>
 80005b4:	b008      	add	sp, #32
 80005b6:	bd10      	pop	{r4, pc}
 80005b8:	40007400 	.word	0x40007400
 80005bc:	40020000 	.word	0x40020000

080005c0 <LL_AHB1_GRP1_EnableClock>:
 80005c0:	4b05      	ldr	r3, [pc, #20]	; (80005d8 <LL_AHB1_GRP1_EnableClock+0x18>)
 80005c2:	b082      	sub	sp, #8
 80005c4:	6b1a      	ldr	r2, [r3, #48]	; 0x30
 80005c6:	4302      	orrs	r2, r0
 80005c8:	631a      	str	r2, [r3, #48]	; 0x30
 80005ca:	6b1b      	ldr	r3, [r3, #48]	; 0x30
 80005cc:	4018      	ands	r0, r3
 80005ce:	9001      	str	r0, [sp, #4]
 80005d0:	9b01      	ldr	r3, [sp, #4]
 80005d2:	b002      	add	sp, #8
 80005d4:	4770      	bx	lr
 80005d6:	bf00      	nop
 80005d8:	40023800 	.word	0x40023800

080005dc <NVIC_EncodePriority.constprop.0>:
 80005dc:	2000      	movs	r0, #0
 80005de:	4770      	bx	lr

080005e0 <MX_GPIO_Init>:
 80005e0:	e92d 4ff0 	stmdb	sp!, {r4, r5, r6, r7, r8, r9, sl, fp, lr}
 80005e4:	2400      	movs	r4, #0
 80005e6:	b089      	sub	sp, #36	; 0x24
 80005e8:	2218      	movs	r2, #24
 80005ea:	4edd      	ldr	r6, [pc, #884]	; (8000960 <MX_GPIO_Init+0x380>)
 80005ec:	4621      	mov	r1, r4
 80005ee:	a802      	add	r0, sp, #8
 80005f0:	f44f 5a00 	mov.w	sl, #8192	; 0x2000
 80005f4:	4ddb      	ldr	r5, [pc, #876]	; (8000964 <MX_GPIO_Init+0x384>)
 80005f6:	f04f 0902 	mov.w	r9, #2
 80005fa:	f8df b370 	ldr.w	fp, [pc, #880]	; 800096c <MX_GPIO_Init+0x38c>
 80005fe:	2701      	movs	r7, #1
 8000600:	f04f 0808 	mov.w	r8, #8
 8000604:	e9cd 4400 	strd	r4, r4, [sp]
 8000608:	f006 fe1e 	bl	8007248 <memset>
 800060c:	2004      	movs	r0, #4
 800060e:	f7ff ffd7 	bl	80005c0 <LL_AHB1_GRP1_EnableClock>
 8000612:	2080      	movs	r0, #128	; 0x80
 8000614:	f7ff ffd4 	bl	80005c0 <LL_AHB1_GRP1_EnableClock>
 8000618:	2001      	movs	r0, #1
 800061a:	f7ff ffd1 	bl	80005c0 <LL_AHB1_GRP1_EnableClock>
 800061e:	2002      	movs	r0, #2
 8000620:	f7ff ffce 	bl	80005c0 <LL_AHB1_GRP1_EnableClock>
 8000624:	2008      	movs	r0, #8
 8000626:	f7ff ffcb 	bl	80005c0 <LL_AHB1_GRP1_EnableClock>
 800062a:	f44f 3380 	mov.w	r3, #65536	; 0x10000
 800062e:	a902      	add	r1, sp, #8
 8000630:	4628      	mov	r0, r5
 8000632:	61b3      	str	r3, [r6, #24]
 8000634:	f44f 3300 	mov.w	r3, #131072	; 0x20000
 8000638:	61b3      	str	r3, [r6, #24]
 800063a:	f44f 2380 	mov.w	r3, #262144	; 0x40000
 800063e:	61b3      	str	r3, [r6, #24]
 8000640:	f44f 2300 	mov.w	r3, #524288	; 0x80000
 8000644:	f8c6 a018 	str.w	sl, [r6, #24]
 8000648:	61b3      	str	r3, [r6, #24]
 800064a:	f44f 1380 	mov.w	r3, #1048576	; 0x100000
 800064e:	61b3      	str	r3, [r6, #24]
 8000650:	f44f 1300 	mov.w	r3, #2097152	; 0x200000
 8000654:	61b3      	str	r3, [r6, #24]
 8000656:	f44f 0380 	mov.w	r3, #4194304	; 0x400000
 800065a:	61b3      	str	r3, [r6, #24]
 800065c:	f44f 0300 	mov.w	r3, #8388608	; 0x800000
 8000660:	61b3      	str	r3, [r6, #24]
 8000662:	61ab      	str	r3, [r5, #24]
 8000664:	f04f 6380 	mov.w	r3, #67108864	; 0x4000000
 8000668:	61ab      	str	r3, [r5, #24]
 800066a:	f04f 6300 	mov.w	r3, #134217728	; 0x8000000
 800066e:	61ab      	str	r3, [r5, #24]
 8000670:	f04f 5300 	mov.w	r3, #536870912	; 0x20000000
 8000674:	61ab      	str	r3, [r5, #24]
 8000676:	f04f 4380 	mov.w	r3, #1073741824	; 0x40000000
 800067a:	61ab      	str	r3, [r5, #24]
 800067c:	f04f 4300 	mov.w	r3, #2147483648	; 0x80000000
 8000680:	61ab      	str	r3, [r5, #24]
 8000682:	9406      	str	r4, [sp, #24]
 8000684:	e9cd a402 	strd	sl, r4, [sp, #8]
 8000688:	f003 f990 	bl	80039ac <LL_GPIO_Init>
 800068c:	f44f 4380 	mov.w	r3, #16384	; 0x4000
 8000690:	a902      	add	r1, sp, #8
 8000692:	4628      	mov	r0, r5
 8000694:	9406      	str	r4, [sp, #24]
 8000696:	e9cd 3402 	strd	r3, r4, [sp, #8]
 800069a:	f003 f987 	bl	80039ac <LL_GPIO_Init>
 800069e:	f44f 4300 	mov.w	r3, #32768	; 0x8000
 80006a2:	a902      	add	r1, sp, #8
 80006a4:	4628      	mov	r0, r5
 80006a6:	9406      	str	r4, [sp, #24]
 80006a8:	e9cd 3402 	strd	r3, r4, [sp, #8]
 80006ac:	f003 f97e 	bl	80039ac <LL_GPIO_Init>
 80006b0:	a902      	add	r1, sp, #8
 80006b2:	4628      	mov	r0, r5
 80006b4:	9406      	str	r4, [sp, #24]
 80006b6:	e9cd 9402 	strd	r9, r4, [sp, #8]
 80006ba:	f003 f977 	bl	80039ac <LL_GPIO_Init>
 80006be:	2304      	movs	r3, #4
 80006c0:	a902      	add	r1, sp, #8
 80006c2:	4628      	mov	r0, r5
 80006c4:	9406      	str	r4, [sp, #24]
 80006c6:	e9cd 3402 	strd	r3, r4, [sp, #8]
 80006ca:	f003 f96f 	bl	80039ac <LL_GPIO_Init>
 80006ce:	a902      	add	r1, sp, #8
 80006d0:	4658      	mov	r0, fp
 80006d2:	9406      	str	r4, [sp, #24]
 80006d4:	e9cd 7402 	strd	r7, r4, [sp, #8]
 80006d8:	f003 f968 	bl	80039ac <LL_GPIO_Init>
 80006dc:	a902      	add	r1, sp, #8
 80006de:	4658      	mov	r0, fp
 80006e0:	9406      	str	r4, [sp, #24]
 80006e2:	e9cd 9402 	strd	r9, r4, [sp, #8]
 80006e6:	f003 f961 	bl	80039ac <LL_GPIO_Init>
 80006ea:	2304      	movs	r3, #4
 80006ec:	a902      	add	r1, sp, #8
 80006ee:	4658      	mov	r0, fp
 80006f0:	9406      	str	r4, [sp, #24]
 80006f2:	e9cd 3402 	strd	r3, r4, [sp, #8]
 80006f6:	f003 f959 	bl	80039ac <LL_GPIO_Init>
 80006fa:	eb0d 0108 	add.w	r1, sp, r8
 80006fe:	4658      	mov	r0, fp
 8000700:	9406      	str	r4, [sp, #24]
 8000702:	e9cd 8402 	strd	r8, r4, [sp, #8]
 8000706:	f003 f951 	bl	80039ac <LL_GPIO_Init>
 800070a:	2320      	movs	r3, #32
 800070c:	eb0d 0108 	add.w	r1, sp, r8
 8000710:	4658      	mov	r0, fp
 8000712:	9406      	str	r4, [sp, #24]
 8000714:	e9cd 3402 	strd	r3, r4, [sp, #8]
 8000718:	f003 f948 	bl	80039ac <LL_GPIO_Init>
 800071c:	2340      	movs	r3, #64	; 0x40
 800071e:	eb0d 0108 	add.w	r1, sp, r8
 8000722:	4658      	mov	r0, fp
 8000724:	9406      	str	r4, [sp, #24]
 8000726:	e9cd 3402 	strd	r3, r4, [sp, #8]
 800072a:	f003 f93f 	bl	80039ac <LL_GPIO_Init>
 800072e:	2380      	movs	r3, #128	; 0x80
 8000730:	eb0d 0108 	add.w	r1, sp, r8
 8000734:	4658      	mov	r0, fp
 8000736:	9406      	str	r4, [sp, #24]
 8000738:	f44f 7b80 	mov.w	fp, #256	; 0x100
 800073c:	e9cd 3402 	strd	r3, r4, [sp, #8]
 8000740:	f003 f934 	bl	80039ac <LL_GPIO_Init>
 8000744:	eb0d 0108 	add.w	r1, sp, r8
 8000748:	4630      	mov	r0, r6
 800074a:	9406      	str	r4, [sp, #24]
 800074c:	e9cd 7702 	strd	r7, r7, [sp, #8]
 8000750:	e9cd 4404 	strd	r4, r4, [sp, #16]
 8000754:	f003 f92a 	bl	80039ac <LL_GPIO_Init>
 8000758:	eb0d 0108 	add.w	r1, sp, r8
 800075c:	4630      	mov	r0, r6
 800075e:	9406      	str	r4, [sp, #24]
 8000760:	e9cd 9702 	strd	r9, r7, [sp, #8]
 8000764:	e9cd 4404 	strd	r4, r4, [sp, #16]
 8000768:	f003 f920 	bl	80039ac <LL_GPIO_Init>
 800076c:	2304      	movs	r3, #4
 800076e:	eb0d 0108 	add.w	r1, sp, r8
 8000772:	4630      	mov	r0, r6
 8000774:	9406      	str	r4, [sp, #24]
 8000776:	e9cd 3702 	strd	r3, r7, [sp, #8]
 800077a:	e9cd 4404 	strd	r4, r4, [sp, #16]
 800077e:	f003 f915 	bl	80039ac <LL_GPIO_Init>
 8000782:	f44f 6280 	mov.w	r2, #1024	; 0x400
 8000786:	eb0d 0108 	add.w	r1, sp, r8
 800078a:	4630      	mov	r0, r6
 800078c:	9406      	str	r4, [sp, #24]
 800078e:	e9cd 2402 	strd	r2, r4, [sp, #8]
 8000792:	f003 f90b 	bl	80039ac <LL_GPIO_Init>
 8000796:	f44f 6300 	mov.w	r3, #2048	; 0x800
 800079a:	eb0d 0108 	add.w	r1, sp, r8
 800079e:	4630      	mov	r0, r6
 80007a0:	9406      	str	r4, [sp, #24]
 80007a2:	e9cd 3402 	strd	r3, r4, [sp, #8]
 80007a6:	f003 f901 	bl	80039ac <LL_GPIO_Init>
 80007aa:	eb0d 0108 	add.w	r1, sp, r8
 80007ae:	4630      	mov	r0, r6
 80007b0:	9406      	str	r4, [sp, #24]
 80007b2:	e9cd a702 	strd	sl, r7, [sp, #8]
 80007b6:	e9cd 4404 	strd	r4, r4, [sp, #16]
 80007ba:	f003 f8f7 	bl	80039ac <LL_GPIO_Init>
 80007be:	2340      	movs	r3, #64	; 0x40
 80007c0:	eb0d 0108 	add.w	r1, sp, r8
 80007c4:	4628      	mov	r0, r5
 80007c6:	9406      	str	r4, [sp, #24]
 80007c8:	f44f 7a00 	mov.w	sl, #512	; 0x200
 80007cc:	e9cd 3402 	strd	r3, r4, [sp, #8]
 80007d0:	f003 f8ec 	bl	80039ac <LL_GPIO_Init>
 80007d4:	2380      	movs	r3, #128	; 0x80
 80007d6:	eb0d 0108 	add.w	r1, sp, r8
 80007da:	4628      	mov	r0, r5
 80007dc:	9406      	str	r4, [sp, #24]
 80007de:	e9cd 3402 	strd	r3, r4, [sp, #8]
 80007e2:	f003 f8e3 	bl	80039ac <LL_GPIO_Init>
 80007e6:	eb0d 0108 	add.w	r1, sp, r8
 80007ea:	4628      	mov	r0, r5
 80007ec:	9406      	str	r4, [sp, #24]
 80007ee:	e9cd b402 	strd	fp, r4, [sp, #8]
 80007f2:	f003 f8db 	bl	80039ac <LL_GPIO_Init>
 80007f6:	eb0d 0108 	add.w	r1, sp, r8
 80007fa:	4628      	mov	r0, r5
 80007fc:	9406      	str	r4, [sp, #24]
 80007fe:	e9cd a402 	strd	sl, r4, [sp, #8]
 8000802:	f003 f8d3 	bl	80039ac <LL_GPIO_Init>
 8000806:	f44f 6280 	mov.w	r2, #1024	; 0x400
 800080a:	eb0d 0108 	add.w	r1, sp, r8
 800080e:	4628      	mov	r0, r5
 8000810:	9406      	str	r4, [sp, #24]
 8000812:	e9cd 2402 	strd	r2, r4, [sp, #8]
 8000816:	f003 f8c9 	bl	80039ac <LL_GPIO_Init>
 800081a:	f44f 6300 	mov.w	r3, #2048	; 0x800
 800081e:	eb0d 0108 	add.w	r1, sp, r8
 8000822:	4628      	mov	r0, r5
 8000824:	9406      	str	r4, [sp, #24]
 8000826:	e9cd 3402 	strd	r3, r4, [sp, #8]
 800082a:	f003 f8bf 	bl	80039ac <LL_GPIO_Init>
 800082e:	eb0d 0108 	add.w	r1, sp, r8
 8000832:	4630      	mov	r0, r6
 8000834:	9406      	str	r4, [sp, #24]
 8000836:	e9cd 8702 	strd	r8, r7, [sp, #8]
 800083a:	e9cd 4404 	strd	r4, r4, [sp, #16]
 800083e:	f003 f8b5 	bl	80039ac <LL_GPIO_Init>
 8000842:	2310      	movs	r3, #16
 8000844:	eb0d 0108 	add.w	r1, sp, r8
 8000848:	4630      	mov	r0, r6
 800084a:	9406      	str	r4, [sp, #24]
 800084c:	e9cd 3702 	strd	r3, r7, [sp, #8]
 8000850:	e9cd 4404 	strd	r4, r4, [sp, #16]
 8000854:	f003 f8aa 	bl	80039ac <LL_GPIO_Init>
 8000858:	2320      	movs	r3, #32
 800085a:	eb0d 0108 	add.w	r1, sp, r8
 800085e:	4630      	mov	r0, r6
 8000860:	9406      	str	r4, [sp, #24]
 8000862:	e9cd 3702 	strd	r3, r7, [sp, #8]
 8000866:	e9cd 4404 	strd	r4, r4, [sp, #16]
 800086a:	f003 f89f 	bl	80039ac <LL_GPIO_Init>
 800086e:	2340      	movs	r3, #64	; 0x40
 8000870:	eb0d 0108 	add.w	r1, sp, r8
 8000874:	4630      	mov	r0, r6
 8000876:	9406      	str	r4, [sp, #24]
 8000878:	e9cd 3702 	strd	r3, r7, [sp, #8]
 800087c:	e9cd 4404 	strd	r4, r4, [sp, #16]
 8000880:	f003 f894 	bl	80039ac <LL_GPIO_Init>
 8000884:	2380      	movs	r3, #128	; 0x80
 8000886:	eb0d 0108 	add.w	r1, sp, r8
 800088a:	4630      	mov	r0, r6
 800088c:	9406      	str	r4, [sp, #24]
 800088e:	e9cd 3702 	strd	r3, r7, [sp, #8]
 8000892:	e9cd 4404 	strd	r4, r4, [sp, #16]
 8000896:	f003 f889 	bl	80039ac <LL_GPIO_Init>
 800089a:	eb0d 0108 	add.w	r1, sp, r8
 800089e:	4630      	mov	r0, r6
 80008a0:	9406      	str	r4, [sp, #24]
 80008a2:	e9cd b402 	strd	fp, r4, [sp, #8]
 80008a6:	f003 f881 	bl	80039ac <LL_GPIO_Init>
 80008aa:	eb0d 0108 	add.w	r1, sp, r8
 80008ae:	4630      	mov	r0, r6
 80008b0:	9406      	str	r4, [sp, #24]
 80008b2:	e9cd a402 	strd	sl, r4, [sp, #8]
 80008b6:	f003 f879 	bl	80039ac <LL_GPIO_Init>
 80008ba:	492b      	ldr	r1, [pc, #172]	; (8000968 <MX_GPIO_Init+0x388>)
 80008bc:	230f      	movs	r3, #15
 80008be:	688a      	ldr	r2, [r1, #8]
 80008c0:	fa93 f3a3 	rbit	r3, r3
 80008c4:	fab3 f383 	clz	r3, r3
 80008c8:	f022 020f 	bic.w	r2, r2, #15
 80008cc:	fa09 f303 	lsl.w	r3, r9, r3
 80008d0:	4313      	orrs	r3, r2
 80008d2:	f44f 4270 	mov.w	r2, #61440	; 0xf000
 80008d6:	608b      	str	r3, [r1, #8]
 80008d8:	688b      	ldr	r3, [r1, #8]
 80008da:	fa92 f2a2 	rbit	r2, r2
 80008de:	fab2 f282 	clz	r2, r2
 80008e2:	f423 4370 	bic.w	r3, r3, #61440	; 0xf000
 80008e6:	4668      	mov	r0, sp
 80008e8:	fa09 f902 	lsl.w	r9, r9, r2
 80008ec:	ea43 0309 	orr.w	r3, r3, r9
 80008f0:	608b      	str	r3, [r1, #8]
 80008f2:	9700      	str	r7, [sp, #0]
 80008f4:	f8ad 7004 	strh.w	r7, [sp, #4]
 80008f8:	f88d 7006 	strb.w	r7, [sp, #6]
 80008fc:	f003 f802 	bl	8003904 <LL_EXTI_Init>
 8000900:	4668      	mov	r0, sp
 8000902:	f8cd 8000 	str.w	r8, [sp]
 8000906:	f8ad 7004 	strh.w	r7, [sp, #4]
 800090a:	f88d 7006 	strb.w	r7, [sp, #6]
 800090e:	f002 fff9 	bl	8003904 <LL_EXTI_Init>
 8000912:	68e9      	ldr	r1, [r5, #12]
 8000914:	fa97 f3a7 	rbit	r3, r7
 8000918:	fab3 f383 	clz	r3, r3
 800091c:	2203      	movs	r2, #3
 800091e:	40bb      	lsls	r3, r7
 8000920:	fa02 f303 	lsl.w	r3, r2, r3
 8000924:	ea21 0303 	bic.w	r3, r1, r3
 8000928:	fa97 f1a7 	rbit	r1, r7
 800092c:	60eb      	str	r3, [r5, #12]
 800092e:	68e9      	ldr	r1, [r5, #12]
 8000930:	fa98 f3a8 	rbit	r3, r8
 8000934:	fab3 f383 	clz	r3, r3
 8000938:	40bb      	lsls	r3, r7
 800093a:	fa02 f303 	lsl.w	r3, r2, r3
 800093e:	ea21 0303 	bic.w	r3, r1, r3
 8000942:	fa98 f1a8 	rbit	r1, r8
 8000946:	60eb      	str	r3, [r5, #12]
 8000948:	6829      	ldr	r1, [r5, #0]
 800094a:	fa97 f3a7 	rbit	r3, r7
 800094e:	fab3 f383 	clz	r3, r3
 8000952:	40bb      	lsls	r3, r7
 8000954:	fa02 f303 	lsl.w	r3, r2, r3
 8000958:	ea21 0303 	bic.w	r3, r1, r3
 800095c:	e008      	b.n	8000970 <MX_GPIO_Init+0x390>
 800095e:	bf00      	nop
 8000960:	40020400 	.word	0x40020400
 8000964:	40020800 	.word	0x40020800
 8000968:	40013800 	.word	0x40013800
 800096c:	40020000 	.word	0x40020000
 8000970:	fa97 f7a7 	rbit	r7, r7
 8000974:	602b      	str	r3, [r5, #0]
 8000976:	6829      	ldr	r1, [r5, #0]
 8000978:	fa98 f3a8 	rbit	r3, r8
 800097c:	fab3 f383 	clz	r3, r3
 8000980:	005b      	lsls	r3, r3, #1
 8000982:	409a      	lsls	r2, r3
 8000984:	ea21 0202 	bic.w	r2, r1, r2
 8000988:	fa98 f8a8 	rbit	r8, r8
 800098c:	602a      	str	r2, [r5, #0]
 800098e:	4a0e      	ldr	r2, [pc, #56]	; (80009c8 <MX_GPIO_Init+0x3e8>)
 8000990:	68d0      	ldr	r0, [r2, #12]
 8000992:	f3c0 2002 	ubfx	r0, r0, #8, #3
 8000996:	f7ff fe21 	bl	80005dc <NVIC_EncodePriority.constprop.0>
 800099a:	4b0c      	ldr	r3, [pc, #48]	; (80009cc <MX_GPIO_Init+0x3ec>)
 800099c:	0100      	lsls	r0, r0, #4
 800099e:	b2c0      	uxtb	r0, r0
 80009a0:	f883 0306 	strb.w	r0, [r3, #774]	; 0x306
 80009a4:	68d0      	ldr	r0, [r2, #12]
 80009a6:	f3c0 2002 	ubfx	r0, r0, #8, #3
 80009aa:	f7ff fe17 	bl	80005dc <NVIC_EncodePriority.constprop.0>
 80009ae:	0100      	lsls	r0, r0, #4
 80009b0:	b2c0      	uxtb	r0, r0
 80009b2:	f883 0309 	strb.w	r0, [r3, #777]	; 0x309
 80009b6:	2006      	movs	r0, #6
 80009b8:	f000 fd72 	bl	80014a0 <HAL_NVIC_EnableIRQ>
 80009bc:	2009      	movs	r0, #9
 80009be:	f000 fd6f 	bl	80014a0 <HAL_NVIC_EnableIRQ>
 80009c2:	b009      	add	sp, #36	; 0x24
 80009c4:	e8bd 8ff0 	ldmia.w	sp!, {r4, r5, r6, r7, r8, r9, sl, fp, pc}
 80009c8:	e000ed00 	.word	0xe000ed00
 80009cc:	e000e100 	.word	0xe000e100

080009d0 <ProcessJoystick>:
 80009d0:	b508      	push	{r3, lr}
 80009d2:	f000 fc81 	bl	80012d8 <SetupJoystick>
 80009d6:	2003      	movs	r0, #3
 80009d8:	f000 fb7e 	bl	80010d8 <USBH_Get_Device_Data>
 80009dc:	b358      	cbz	r0, 8000a36 <ProcessJoystick+0x66>
 80009de:	7802      	ldrb	r2, [r0, #0]
 80009e0:	4b15      	ldr	r3, [pc, #84]	; (8000a38 <ProcessJoystick+0x68>)
 80009e2:	f012 0f01 	tst.w	r2, #1
 80009e6:	bf14      	ite	ne
 80009e8:	f44f 0100 	movne.w	r1, #8388608	; 0x800000
 80009ec:	2180      	moveq	r1, #128	; 0x80
 80009ee:	0790      	lsls	r0, r2, #30
 80009f0:	6199      	str	r1, [r3, #24]
 80009f2:	bf4c      	ite	mi
 80009f4:	f04f 6180 	movmi.w	r1, #67108864	; 0x4000000
 80009f8:	f44f 6180 	movpl.w	r1, #1024	; 0x400
 80009fc:	6199      	str	r1, [r3, #24]
 80009fe:	0751      	lsls	r1, r2, #29
 8000a00:	bf4c      	ite	mi
 8000a02:	f04f 6100 	movmi.w	r1, #134217728	; 0x8000000
 8000a06:	f44f 6100 	movpl.w	r1, #2048	; 0x800
 8000a0a:	0710      	lsls	r0, r2, #28
 8000a0c:	6199      	str	r1, [r3, #24]
 8000a0e:	bf4c      	ite	mi
 8000a10:	f04f 5100 	movmi.w	r1, #536870912	; 0x20000000
 8000a14:	f44f 5100 	movpl.w	r1, #8192	; 0x2000
 8000a18:	6199      	str	r1, [r3, #24]
 8000a1a:	06d1      	lsls	r1, r2, #27
 8000a1c:	bf4c      	ite	mi
 8000a1e:	f04f 4100 	movmi.w	r1, #2147483648	; 0x80000000
 8000a22:	f44f 4100 	movpl.w	r1, #32768	; 0x8000
 8000a26:	0692      	lsls	r2, r2, #26
 8000a28:	6199      	str	r1, [r3, #24]
 8000a2a:	bf4c      	ite	mi
 8000a2c:	f04f 4280 	movmi.w	r2, #1073741824	; 0x40000000
 8000a30:	f44f 4280 	movpl.w	r2, #16384	; 0x4000
 8000a34:	619a      	str	r2, [r3, #24]
 8000a36:	bd08      	pop	{r3, pc}
 8000a38:	40020800 	.word	0x40020800

08000a3c <SystemClock_Config>:
 8000a3c:	b510      	push	{r4, lr}
 8000a3e:	b094      	sub	sp, #80	; 0x50
 8000a40:	2210      	movs	r2, #16
 8000a42:	2100      	movs	r1, #0
 8000a44:	2402      	movs	r4, #2
 8000a46:	a80a      	add	r0, sp, #40	; 0x28
 8000a48:	f006 fbfe 	bl	8007248 <memset>
 8000a4c:	2214      	movs	r2, #20
 8000a4e:	2100      	movs	r1, #0
 8000a50:	a803      	add	r0, sp, #12
 8000a52:	f006 fbf9 	bl	8007248 <memset>
 8000a56:	4b22      	ldr	r3, [pc, #136]	; (8000ae0 <SystemClock_Config+0xa4>)
 8000a58:	2101      	movs	r1, #1
 8000a5a:	2019      	movs	r0, #25
 8000a5c:	6c1a      	ldr	r2, [r3, #64]	; 0x40
 8000a5e:	f042 5280 	orr.w	r2, r2, #268435456	; 0x10000000
 8000a62:	641a      	str	r2, [r3, #64]	; 0x40
 8000a64:	6c1b      	ldr	r3, [r3, #64]	; 0x40
 8000a66:	f003 5380 	and.w	r3, r3, #268435456	; 0x10000000
 8000a6a:	9301      	str	r3, [sp, #4]
 8000a6c:	9b01      	ldr	r3, [sp, #4]
 8000a6e:	4b1d      	ldr	r3, [pc, #116]	; (8000ae4 <SystemClock_Config+0xa8>)
 8000a70:	681a      	ldr	r2, [r3, #0]
 8000a72:	f442 4240 	orr.w	r2, r2, #49152	; 0xc000
 8000a76:	601a      	str	r2, [r3, #0]
 8000a78:	681b      	ldr	r3, [r3, #0]
 8000a7a:	9412      	str	r4, [sp, #72]	; 0x48
 8000a7c:	f403 4340 	and.w	r3, r3, #49152	; 0xc000
 8000a80:	9302      	str	r3, [sp, #8]
 8000a82:	9b02      	ldr	r3, [sp, #8]
 8000a84:	f44f 3380 	mov.w	r3, #65536	; 0x10000
 8000a88:	e9cd 1308 	strd	r1, r3, [sp, #32]
 8000a8c:	f44f 0380 	mov.w	r3, #4194304	; 0x400000
 8000a90:	e9cd 430e 	strd	r4, r3, [sp, #56]	; 0x38
 8000a94:	f44f 73d8 	mov.w	r3, #432	; 0x1b0
 8000a98:	e9cd 0310 	strd	r0, r3, [sp, #64]	; 0x40
 8000a9c:	2309      	movs	r3, #9
 8000a9e:	a808      	add	r0, sp, #32
 8000aa0:	9313      	str	r3, [sp, #76]	; 0x4c
 8000aa2:	f001 fcc7 	bl	8002434 <HAL_RCC_OscConfig>
 8000aa6:	b108      	cbz	r0, 8000aac <SystemClock_Config+0x70>
 8000aa8:	b672      	cpsid	i
 8000aaa:	e7fe      	b.n	8000aaa <SystemClock_Config+0x6e>
 8000aac:	f001 fc8a 	bl	80023c4 <HAL_PWREx_EnableOverDrive>
 8000ab0:	b108      	cbz	r0, 8000ab6 <SystemClock_Config+0x7a>
 8000ab2:	b672      	cpsid	i
 8000ab4:	e7fe      	b.n	8000ab4 <SystemClock_Config+0x78>
 8000ab6:	230f      	movs	r3, #15
 8000ab8:	f44f 52a0 	mov.w	r2, #5120	; 0x1400
 8000abc:	9005      	str	r0, [sp, #20]
 8000abe:	2107      	movs	r1, #7
 8000ac0:	a803      	add	r0, sp, #12
 8000ac2:	e9cd 3403 	strd	r3, r4, [sp, #12]
 8000ac6:	f44f 5380 	mov.w	r3, #4096	; 0x1000
 8000aca:	e9cd 2306 	strd	r2, r3, [sp, #24]
 8000ace:	f001 fea7 	bl	8002820 <HAL_RCC_ClockConfig>
 8000ad2:	b108      	cbz	r0, 8000ad8 <SystemClock_Config+0x9c>
 8000ad4:	b672      	cpsid	i
 8000ad6:	e7fe      	b.n	8000ad6 <SystemClock_Config+0x9a>
 8000ad8:	f001 fe6c 	bl	80027b4 <HAL_RCC_EnableCSS>
 8000adc:	b014      	add	sp, #80	; 0x50
 8000ade:	bd10      	pop	{r4, pc}
 8000ae0:	40023800 	.word	0x40023800
 8000ae4:	40007000 	.word	0x40007000

08000ae8 <main>:
 8000ae8:	b508      	push	{r3, lr}
 8000aea:	f000 fc66 	bl	80013ba <HAL_Init>
 8000aee:	f7ff ffa5 	bl	8000a3c <SystemClock_Config>
 8000af2:	f7ff fd75 	bl	80005e0 <MX_GPIO_Init>
 8000af6:	f000 f9ed 	bl	8000ed4 <MX_UART5_Init>
 8000afa:	f006 f96f 	bl	8006ddc <MX_USB_HOST_Init>
 8000afe:	f7ff fd0b 	bl	8000518 <MX_DAC_Init>
 8000b02:	f000 f829 	bl	8000b58 <InitMSXKeyboard>
 8000b06:	f006 f9b5 	bl	8006e74 <MX_USB_HOST_Process>
 8000b0a:	f000 f84f 	bl	8000bac <ProcessMSXKeyboard>
 8000b0e:	f7ff ff5f 	bl	80009d0 <ProcessJoystick>
 8000b12:	f000 fc07 	bl	8001324 <SetLEDs>
 8000b16:	e7f6      	b.n	8000b06 <main+0x1e>

08000b18 <HAL_TIM_PeriodElapsedCallback>:
 8000b18:	6802      	ldr	r2, [r0, #0]
 8000b1a:	4b03      	ldr	r3, [pc, #12]	; (8000b28 <HAL_TIM_PeriodElapsedCallback+0x10>)
 8000b1c:	429a      	cmp	r2, r3
 8000b1e:	d101      	bne.n	8000b24 <HAL_TIM_PeriodElapsedCallback+0xc>
 8000b20:	f000 bc56 	b.w	80013d0 <HAL_IncTick>
 8000b24:	4770      	bx	lr
 8000b26:	bf00      	nop
 8000b28:	40002000 	.word	0x40002000

08000b2c <Error_Handler>:
 8000b2c:	b672      	cpsid	i
 8000b2e:	e7fe      	b.n	8000b2e <Error_Handler+0x2>

08000b30 <USB_Keyboard_LED>:
 8000b30:	b530      	push	{r4, r5, lr}
 8000b32:	2501      	movs	r5, #1
 8000b34:	b085      	sub	sp, #20
 8000b36:	4c07      	ldr	r4, [pc, #28]	; (8000b54 <USB_Keyboard_LED+0x24>)
 8000b38:	f88d 000f 	strb.w	r0, [sp, #15]
 8000b3c:	f10d 030f 	add.w	r3, sp, #15
 8000b40:	2200      	movs	r2, #0
 8000b42:	2102      	movs	r1, #2
 8000b44:	4620      	mov	r0, r4
 8000b46:	9500      	str	r5, [sp, #0]
 8000b48:	f003 fc86 	bl	8004458 <USBH_HID_SetReport>
 8000b4c:	2800      	cmp	r0, #0
 8000b4e:	d1f5      	bne.n	8000b3c <USB_Keyboard_LED+0xc>
 8000b50:	b005      	add	sp, #20
 8000b52:	bd30      	pop	{r4, r5, pc}
 8000b54:	2000058c 	.word	0x2000058c

08000b58 <InitMSXKeyboard>:
 8000b58:	2230      	movs	r2, #48	; 0x30
 8000b5a:	2100      	movs	r1, #0
 8000b5c:	4805      	ldr	r0, [pc, #20]	; (8000b74 <InitMSXKeyboard+0x1c>)
 8000b5e:	b508      	push	{r3, lr}
 8000b60:	f006 fb72 	bl	8007248 <memset>
 8000b64:	2230      	movs	r2, #48	; 0x30
 8000b66:	2100      	movs	r1, #0
 8000b68:	4803      	ldr	r0, [pc, #12]	; (8000b78 <InitMSXKeyboard+0x20>)
 8000b6a:	e8bd 4008 	ldmia.w	sp!, {r3, lr}
 8000b6e:	f006 bb6b 	b.w	8007248 <memset>
 8000b72:	bf00      	nop
 8000b74:	20000140 	.word	0x20000140
 8000b78:	20000170 	.word	0x20000170

08000b7c <ProcessMSXKey>:
 8000b7c:	b570      	push	{r4, r5, r6, lr}
 8000b7e:	4b09      	ldr	r3, [pc, #36]	; (8000ba4 <ProcessMSXKey+0x28>)
 8000b80:	2200      	movs	r2, #0
 8000b82:	4c09      	ldr	r4, [pc, #36]	; (8000ba8 <ProcessMSXKey+0x2c>)
 8000b84:	7819      	ldrb	r1, [r3, #0]
 8000b86:	4281      	cmp	r1, r0
 8000b88:	d106      	bne.n	8000b98 <ProcessMSXKey+0x1c>
 8000b8a:	785d      	ldrb	r5, [r3, #1]
 8000b8c:	789e      	ldrb	r6, [r3, #2]
 8000b8e:	f854 1025 	ldr.w	r1, [r4, r5, lsl #2]
 8000b92:	4331      	orrs	r1, r6
 8000b94:	f844 1025 	str.w	r1, [r4, r5, lsl #2]
 8000b98:	3201      	adds	r2, #1
 8000b9a:	3303      	adds	r3, #3
 8000b9c:	2a5e      	cmp	r2, #94	; 0x5e
 8000b9e:	d1f1      	bne.n	8000b84 <ProcessMSXKey+0x8>
 8000ba0:	bd70      	pop	{r4, r5, r6, pc}
 8000ba2:	bf00      	nop
 8000ba4:	08007400 	.word	0x08007400
 8000ba8:	20000170 	.word	0x20000170

08000bac <ProcessMSXKeyboard>:
 8000bac:	e92d 41f0 	stmdb	sp!, {r4, r5, r6, r7, r8, lr}
 8000bb0:	2001      	movs	r0, #1
 8000bb2:	f000 fa91 	bl	80010d8 <USBH_Get_Device_Data>
 8000bb6:	4606      	mov	r6, r0
 8000bb8:	2800      	cmp	r0, #0
 8000bba:	d04a      	beq.n	8000c52 <ProcessMSXKeyboard+0xa6>
 8000bbc:	4b2a      	ldr	r3, [pc, #168]	; (8000c68 <ProcessMSXKeyboard+0xbc>)
 8000bbe:	2230      	movs	r2, #48	; 0x30
 8000bc0:	2100      	movs	r1, #0
 8000bc2:	4618      	mov	r0, r3
 8000bc4:	f006 fb40 	bl	8007248 <memset>
 8000bc8:	7872      	ldrb	r2, [r6, #1]
 8000bca:	b10a      	cbz	r2, 8000bd0 <ProcessMSXKeyboard+0x24>
 8000bcc:	2302      	movs	r3, #2
 8000bce:	6183      	str	r3, [r0, #24]
 8000bd0:	7973      	ldrb	r3, [r6, #5]
 8000bd2:	b10b      	cbz	r3, 8000bd8 <ProcessMSXKeyboard+0x2c>
 8000bd4:	2320      	movs	r3, #32
 8000bd6:	6083      	str	r3, [r0, #8]
 8000bd8:	78b3      	ldrb	r3, [r6, #2]
 8000bda:	b90b      	cbnz	r3, 8000be0 <ProcessMSXKeyboard+0x34>
 8000bdc:	79b3      	ldrb	r3, [r6, #6]
 8000bde:	b11b      	cbz	r3, 8000be8 <ProcessMSXKeyboard+0x3c>
 8000be0:	6983      	ldr	r3, [r0, #24]
 8000be2:	f043 0301 	orr.w	r3, r3, #1
 8000be6:	6183      	str	r3, [r0, #24]
 8000be8:	79f3      	ldrb	r3, [r6, #7]
 8000bea:	b11b      	cbz	r3, 8000bf4 <ProcessMSXKeyboard+0x48>
 8000bec:	6983      	ldr	r3, [r0, #24]
 8000bee:	f043 0310 	orr.w	r3, r3, #16
 8000bf2:	6183      	str	r3, [r0, #24]
 8000bf4:	78f3      	ldrb	r3, [r6, #3]
 8000bf6:	b11b      	cbz	r3, 8000c00 <ProcessMSXKeyboard+0x54>
 8000bf8:	6983      	ldr	r3, [r0, #24]
 8000bfa:	f043 0304 	orr.w	r3, r3, #4
 8000bfe:	6183      	str	r3, [r0, #24]
 8000c00:	f106 0709 	add.w	r7, r6, #9
 8000c04:	360f      	adds	r6, #15
 8000c06:	463c      	mov	r4, r7
 8000c08:	f814 0b01 	ldrb.w	r0, [r4], #1
 8000c0c:	b108      	cbz	r0, 8000c12 <ProcessMSXKeyboard+0x66>
 8000c0e:	f7ff ffb5 	bl	8000b7c <ProcessMSXKey>
 8000c12:	42b4      	cmp	r4, r6
 8000c14:	d1f8      	bne.n	8000c08 <ProcessMSXKeyboard+0x5c>
 8000c16:	4d14      	ldr	r5, [pc, #80]	; (8000c68 <ProcessMSXKeyboard+0xbc>)
 8000c18:	f04f 0800 	mov.w	r8, #0
 8000c1c:	4c13      	ldr	r4, [pc, #76]	; (8000c6c <ProcessMSXKeyboard+0xc0>)
 8000c1e:	cd0f      	ldmia	r5!, {r0, r1, r2, r3}
 8000c20:	c40f      	stmia	r4!, {r0, r1, r2, r3}
 8000c22:	cd0f      	ldmia	r5!, {r0, r1, r2, r3}
 8000c24:	c40f      	stmia	r4!, {r0, r1, r2, r3}
 8000c26:	e895 000f 	ldmia.w	r5, {r0, r1, r2, r3}
 8000c2a:	4d11      	ldr	r5, [pc, #68]	; (8000c70 <ProcessMSXKeyboard+0xc4>)
 8000c2c:	e884 000f 	stmia.w	r4, {r0, r1, r2, r3}
 8000c30:	4c10      	ldr	r4, [pc, #64]	; (8000c74 <ProcessMSXKeyboard+0xc8>)
 8000c32:	f817 3b01 	ldrb.w	r3, [r7], #1
 8000c36:	2b39      	cmp	r3, #57	; 0x39
 8000c38:	d109      	bne.n	8000c4e <ProcessMSXKeyboard+0xa2>
 8000c3a:	782b      	ldrb	r3, [r5, #0]
 8000c3c:	7820      	ldrb	r0, [r4, #0]
 8000c3e:	b953      	cbnz	r3, 8000c56 <ProcessMSXKeyboard+0xaa>
 8000c40:	f040 0002 	orr.w	r0, r0, #2
 8000c44:	7020      	strb	r0, [r4, #0]
 8000c46:	f7ff ff73 	bl	8000b30 <USB_Keyboard_LED>
 8000c4a:	2301      	movs	r3, #1
 8000c4c:	702b      	strb	r3, [r5, #0]
 8000c4e:	42b7      	cmp	r7, r6
 8000c50:	d1ef      	bne.n	8000c32 <ProcessMSXKeyboard+0x86>
 8000c52:	e8bd 81f0 	ldmia.w	sp!, {r4, r5, r6, r7, r8, pc}
 8000c56:	f000 00fd 	and.w	r0, r0, #253	; 0xfd
 8000c5a:	7020      	strb	r0, [r4, #0]
 8000c5c:	f7ff ff68 	bl	8000b30 <USB_Keyboard_LED>
 8000c60:	f885 8000 	strb.w	r8, [r5]
 8000c64:	e7f3      	b.n	8000c4e <ProcessMSXKeyboard+0xa2>
 8000c66:	bf00      	nop
 8000c68:	20000170 	.word	0x20000170
 8000c6c:	20000140 	.word	0x20000140
 8000c70:	20000000 	.word	0x20000000
 8000c74:	2000010c 	.word	0x2000010c

08000c78 <ProcessIRQ>:
 8000c78:	4b07      	ldr	r3, [pc, #28]	; (8000c98 <ProcessIRQ+0x20>)
 8000c7a:	4a08      	ldr	r2, [pc, #32]	; (8000c9c <ProcessIRQ+0x24>)
 8000c7c:	691b      	ldr	r3, [r3, #16]
 8000c7e:	4908      	ldr	r1, [pc, #32]	; (8000ca0 <ProcessIRQ+0x28>)
 8000c80:	f003 030f 	and.w	r3, r3, #15
 8000c84:	f852 3023 	ldr.w	r3, [r2, r3, lsl #2]
 8000c88:	43db      	mvns	r3, r3
 8000c8a:	b2da      	uxtb	r2, r3
 8000c8c:	694b      	ldr	r3, [r1, #20]
 8000c8e:	f403 437f 	and.w	r3, r3, #65280	; 0xff00
 8000c92:	4313      	orrs	r3, r2
 8000c94:	614b      	str	r3, [r1, #20]
 8000c96:	4770      	bx	lr
 8000c98:	40020000 	.word	0x40020000
 8000c9c:	20000140 	.word	0x20000140
 8000ca0:	40020400 	.word	0x40020400

08000ca4 <EXTI0_IRQHandler>:
 8000ca4:	4804      	ldr	r0, [pc, #16]	; (8000cb8 <EXTI0_IRQHandler+0x14>)
 8000ca6:	b508      	push	{r3, lr}
 8000ca8:	6943      	ldr	r3, [r0, #20]
 8000caa:	07db      	lsls	r3, r3, #31
 8000cac:	d503      	bpl.n	8000cb6 <EXTI0_IRQHandler+0x12>
 8000cae:	f7ff ffe3 	bl	8000c78 <ProcessIRQ>
 8000cb2:	2301      	movs	r3, #1
 8000cb4:	6143      	str	r3, [r0, #20]
 8000cb6:	bd08      	pop	{r3, pc}
 8000cb8:	40013c00 	.word	0x40013c00

08000cbc <HAL_MspInit>:
 8000cbc:	4b2d      	ldr	r3, [pc, #180]	; (8000d74 <HAL_MspInit+0xb8>)
 8000cbe:	b507      	push	{r0, r1, r2, lr}
 8000cc0:	6c1a      	ldr	r2, [r3, #64]	; 0x40
 8000cc2:	2101      	movs	r1, #1
 8000cc4:	f06f 000b 	mvn.w	r0, #11
 8000cc8:	f042 5280 	orr.w	r2, r2, #268435456	; 0x10000000
 8000ccc:	641a      	str	r2, [r3, #64]	; 0x40
 8000cce:	6c1a      	ldr	r2, [r3, #64]	; 0x40
 8000cd0:	f002 5280 	and.w	r2, r2, #268435456	; 0x10000000
 8000cd4:	9200      	str	r2, [sp, #0]
 8000cd6:	9a00      	ldr	r2, [sp, #0]
 8000cd8:	6c5a      	ldr	r2, [r3, #68]	; 0x44
 8000cda:	f442 4280 	orr.w	r2, r2, #16384	; 0x4000
 8000cde:	645a      	str	r2, [r3, #68]	; 0x44
 8000ce0:	2200      	movs	r2, #0
 8000ce2:	6c5b      	ldr	r3, [r3, #68]	; 0x44
 8000ce4:	f403 4380 	and.w	r3, r3, #16384	; 0x4000
 8000ce8:	9301      	str	r3, [sp, #4]
 8000cea:	9b01      	ldr	r3, [sp, #4]
 8000cec:	f000 fba6 	bl	800143c <HAL_NVIC_SetPriority>
 8000cf0:	2200      	movs	r2, #0
 8000cf2:	2101      	movs	r1, #1
 8000cf4:	f06f 000a 	mvn.w	r0, #10
 8000cf8:	f000 fba0 	bl	800143c <HAL_NVIC_SetPriority>
 8000cfc:	2200      	movs	r2, #0
 8000cfe:	2101      	movs	r1, #1
 8000d00:	f06f 0009 	mvn.w	r0, #9
 8000d04:	f000 fb9a 	bl	800143c <HAL_NVIC_SetPriority>
 8000d08:	2200      	movs	r2, #0
 8000d0a:	2101      	movs	r1, #1
 8000d0c:	f06f 0004 	mvn.w	r0, #4
 8000d10:	f000 fb94 	bl	800143c <HAL_NVIC_SetPriority>
 8000d14:	2200      	movs	r2, #0
 8000d16:	2101      	movs	r1, #1
 8000d18:	f06f 0003 	mvn.w	r0, #3
 8000d1c:	f000 fb8e 	bl	800143c <HAL_NVIC_SetPriority>
 8000d20:	2200      	movs	r2, #0
 8000d22:	2101      	movs	r1, #1
 8000d24:	f06f 0001 	mvn.w	r0, #1
 8000d28:	f000 fb88 	bl	800143c <HAL_NVIC_SetPriority>
 8000d2c:	2200      	movs	r2, #0
 8000d2e:	2001      	movs	r0, #1
 8000d30:	4611      	mov	r1, r2
 8000d32:	f000 fb83 	bl	800143c <HAL_NVIC_SetPriority>
 8000d36:	2001      	movs	r0, #1
 8000d38:	f000 fbb2 	bl	80014a0 <HAL_NVIC_EnableIRQ>
 8000d3c:	2200      	movs	r2, #0
 8000d3e:	2004      	movs	r0, #4
 8000d40:	4611      	mov	r1, r2
 8000d42:	f000 fb7b 	bl	800143c <HAL_NVIC_SetPriority>
 8000d46:	2004      	movs	r0, #4
 8000d48:	f000 fbaa 	bl	80014a0 <HAL_NVIC_EnableIRQ>
 8000d4c:	2200      	movs	r2, #0
 8000d4e:	2005      	movs	r0, #5
 8000d50:	4611      	mov	r1, r2
 8000d52:	f000 fb73 	bl	800143c <HAL_NVIC_SetPriority>
 8000d56:	2005      	movs	r0, #5
 8000d58:	f000 fba2 	bl	80014a0 <HAL_NVIC_EnableIRQ>
 8000d5c:	2200      	movs	r2, #0
 8000d5e:	2051      	movs	r0, #81	; 0x51
 8000d60:	4611      	mov	r1, r2
 8000d62:	f000 fb6b 	bl	800143c <HAL_NVIC_SetPriority>
 8000d66:	2051      	movs	r0, #81	; 0x51
 8000d68:	b003      	add	sp, #12
 8000d6a:	f85d eb04 	ldr.w	lr, [sp], #4
 8000d6e:	f000 bb97 	b.w	80014a0 <HAL_NVIC_EnableIRQ>
 8000d72:	bf00      	nop
 8000d74:	40023800 	.word	0x40023800

08000d78 <HAL_InitTick>:
 8000d78:	4b21      	ldr	r3, [pc, #132]	; (8000e00 <HAL_InitTick+0x88>)
 8000d7a:	6c1a      	ldr	r2, [r3, #64]	; 0x40
 8000d7c:	f442 7280 	orr.w	r2, r2, #256	; 0x100
 8000d80:	b570      	push	{r4, r5, r6, lr}
 8000d82:	641a      	str	r2, [r3, #64]	; 0x40
 8000d84:	b088      	sub	sp, #32
 8000d86:	6c1b      	ldr	r3, [r3, #64]	; 0x40
 8000d88:	4605      	mov	r5, r0
 8000d8a:	a901      	add	r1, sp, #4
 8000d8c:	a803      	add	r0, sp, #12
 8000d8e:	f403 7380 	and.w	r3, r3, #256	; 0x100
 8000d92:	9302      	str	r3, [sp, #8]
 8000d94:	9b02      	ldr	r3, [sp, #8]
 8000d96:	f001 fe03 	bl	80029a0 <HAL_RCC_GetClockConfig>
 8000d9a:	9b06      	ldr	r3, [sp, #24]
 8000d9c:	bb4b      	cbnz	r3, 8000df2 <HAL_InitTick+0x7a>
 8000d9e:	f001 fddf 	bl	8002960 <HAL_RCC_GetPCLK1Freq>
 8000da2:	4e18      	ldr	r6, [pc, #96]	; (8000e04 <HAL_InitTick+0x8c>)
 8000da4:	4b18      	ldr	r3, [pc, #96]	; (8000e08 <HAL_InitTick+0x90>)
 8000da6:	6033      	str	r3, [r6, #0]
 8000da8:	f240 33e7 	movw	r3, #999	; 0x3e7
 8000dac:	60f3      	str	r3, [r6, #12]
 8000dae:	4b17      	ldr	r3, [pc, #92]	; (8000e0c <HAL_InitTick+0x94>)
 8000db0:	fbb0 f3f3 	udiv	r3, r0, r3
 8000db4:	3b01      	subs	r3, #1
 8000db6:	4630      	mov	r0, r6
 8000db8:	6073      	str	r3, [r6, #4]
 8000dba:	2300      	movs	r3, #0
 8000dbc:	6133      	str	r3, [r6, #16]
 8000dbe:	60b3      	str	r3, [r6, #8]
 8000dc0:	61b3      	str	r3, [r6, #24]
 8000dc2:	f002 f9a5 	bl	8003110 <HAL_TIM_Base_Init>
 8000dc6:	4604      	mov	r4, r0
 8000dc8:	b980      	cbnz	r0, 8000dec <HAL_InitTick+0x74>
 8000dca:	4630      	mov	r0, r6
 8000dcc:	f002 f848 	bl	8002e60 <HAL_TIM_Base_Start_IT>
 8000dd0:	4604      	mov	r4, r0
 8000dd2:	b958      	cbnz	r0, 8000dec <HAL_InitTick+0x74>
 8000dd4:	202d      	movs	r0, #45	; 0x2d
 8000dd6:	f000 fb63 	bl	80014a0 <HAL_NVIC_EnableIRQ>
 8000dda:	2d0f      	cmp	r5, #15
 8000ddc:	d80d      	bhi.n	8000dfa <HAL_InitTick+0x82>
 8000dde:	4622      	mov	r2, r4
 8000de0:	4629      	mov	r1, r5
 8000de2:	202d      	movs	r0, #45	; 0x2d
 8000de4:	f000 fb2a 	bl	800143c <HAL_NVIC_SetPriority>
 8000de8:	4b09      	ldr	r3, [pc, #36]	; (8000e10 <HAL_InitTick+0x98>)
 8000dea:	601d      	str	r5, [r3, #0]
 8000dec:	4620      	mov	r0, r4
 8000dee:	b008      	add	sp, #32
 8000df0:	bd70      	pop	{r4, r5, r6, pc}
 8000df2:	f001 fdb5 	bl	8002960 <HAL_RCC_GetPCLK1Freq>
 8000df6:	0040      	lsls	r0, r0, #1
 8000df8:	e7d3      	b.n	8000da2 <HAL_InitTick+0x2a>
 8000dfa:	2401      	movs	r4, #1
 8000dfc:	e7f6      	b.n	8000dec <HAL_InitTick+0x74>
 8000dfe:	bf00      	nop
 8000e00:	40023800 	.word	0x40023800
 8000e04:	200001a0 	.word	0x200001a0
 8000e08:	40002000 	.word	0x40002000
 8000e0c:	000f4240 	.word	0x000f4240
 8000e10:	2000000c 	.word	0x2000000c

08000e14 <NMI_Handler>:
 8000e14:	b508      	push	{r3, lr}
 8000e16:	f001 fde3 	bl	80029e0 <HAL_RCC_NMI_IRQHandler>
 8000e1a:	e7fe      	b.n	8000e1a <NMI_Handler+0x6>

08000e1c <HardFault_Handler>:
 8000e1c:	e7fe      	b.n	8000e1c <HardFault_Handler>

08000e1e <MemManage_Handler>:
 8000e1e:	e7fe      	b.n	8000e1e <MemManage_Handler>

08000e20 <BusFault_Handler>:
 8000e20:	e7fe      	b.n	8000e20 <BusFault_Handler>

08000e22 <UsageFault_Handler>:
 8000e22:	e7fe      	b.n	8000e22 <UsageFault_Handler>

08000e24 <SVC_Handler>:
 8000e24:	4770      	bx	lr

08000e26 <DebugMon_Handler>:
 8000e26:	4770      	bx	lr

08000e28 <PendSV_Handler>:
 8000e28:	4770      	bx	lr

08000e2a <SysTick_Handler>:
 8000e2a:	4770      	bx	lr

08000e2c <PVD_IRQHandler>:
 8000e2c:	f001 babc 	b.w	80023a8 <HAL_PWR_PVD_IRQHandler>

08000e30 <FLASH_IRQHandler>:
 8000e30:	f000 bc42 	b.w	80016b8 <HAL_FLASH_IRQHandler>

08000e34 <RCC_IRQHandler>:
 8000e34:	4770      	bx	lr
	...

08000e38 <TIM8_TRG_COM_TIM14_IRQHandler>:
 8000e38:	4801      	ldr	r0, [pc, #4]	; (8000e40 <TIM8_TRG_COM_TIM14_IRQHandler+0x8>)
 8000e3a:	f002 b853 	b.w	8002ee4 <HAL_TIM_IRQHandler>
 8000e3e:	bf00      	nop
 8000e40:	200001a0 	.word	0x200001a0

08000e44 <UART5_IRQHandler>:
 8000e44:	4801      	ldr	r0, [pc, #4]	; (8000e4c <UART5_IRQHandler+0x8>)
 8000e46:	f002 b9cb 	b.w	80031e0 <HAL_UART_IRQHandler>
 8000e4a:	bf00      	nop
 8000e4c:	200001ec 	.word	0x200001ec

08000e50 <TIM6_DAC_IRQHandler>:
 8000e50:	4801      	ldr	r0, [pc, #4]	; (8000e58 <TIM6_DAC_IRQHandler+0x8>)
 8000e52:	f000 bb47 	b.w	80014e4 <HAL_DAC_IRQHandler>
 8000e56:	bf00      	nop
 8000e58:	20000128 	.word	0x20000128

08000e5c <OTG_FS_IRQHandler>:
 8000e5c:	4801      	ldr	r0, [pc, #4]	; (8000e64 <OTG_FS_IRQHandler+0x8>)
 8000e5e:	f000 be97 	b.w	8001b90 <HAL_HCD_IRQHandler>
 8000e62:	bf00      	nop
 8000e64:	20001048 	.word	0x20001048

08000e68 <OTG_HS_EP1_OUT_IRQHandler>:
 8000e68:	4801      	ldr	r0, [pc, #4]	; (8000e70 <OTG_HS_EP1_OUT_IRQHandler+0x8>)
 8000e6a:	f000 be91 	b.w	8001b90 <HAL_HCD_IRQHandler>
 8000e6e:	bf00      	nop
 8000e70:	20000d44 	.word	0x20000d44

08000e74 <OTG_HS_EP1_IN_IRQHandler>:
 8000e74:	f7ff bff8 	b.w	8000e68 <OTG_HS_EP1_OUT_IRQHandler>

08000e78 <OTG_HS_IRQHandler>:
 8000e78:	f7ff bff6 	b.w	8000e68 <OTG_HS_EP1_OUT_IRQHandler>

08000e7c <FPU_IRQHandler>:
 8000e7c:	4770      	bx	lr
	...

08000e80 <_sbrk>:
 8000e80:	4b0b      	ldr	r3, [pc, #44]	; (8000eb0 <_sbrk+0x30>)
 8000e82:	4602      	mov	r2, r0
 8000e84:	6819      	ldr	r1, [r3, #0]
 8000e86:	b510      	push	{r4, lr}
 8000e88:	b909      	cbnz	r1, 8000e8e <_sbrk+0xe>
 8000e8a:	490a      	ldr	r1, [pc, #40]	; (8000eb4 <_sbrk+0x34>)
 8000e8c:	6019      	str	r1, [r3, #0]
 8000e8e:	6818      	ldr	r0, [r3, #0]
 8000e90:	4909      	ldr	r1, [pc, #36]	; (8000eb8 <_sbrk+0x38>)
 8000e92:	4c0a      	ldr	r4, [pc, #40]	; (8000ebc <_sbrk+0x3c>)
 8000e94:	4402      	add	r2, r0
 8000e96:	1b09      	subs	r1, r1, r4
 8000e98:	428a      	cmp	r2, r1
 8000e9a:	d906      	bls.n	8000eaa <_sbrk+0x2a>
 8000e9c:	f006 f99a 	bl	80071d4 <__errno>
 8000ea0:	230c      	movs	r3, #12
 8000ea2:	6003      	str	r3, [r0, #0]
 8000ea4:	f04f 30ff 	mov.w	r0, #4294967295
 8000ea8:	bd10      	pop	{r4, pc}
 8000eaa:	601a      	str	r2, [r3, #0]
 8000eac:	e7fc      	b.n	8000ea8 <_sbrk+0x28>
 8000eae:	bf00      	nop
 8000eb0:	20000110 	.word	0x20000110
 8000eb4:	20001360 	.word	0x20001360
 8000eb8:	20040000 	.word	0x20040000
 8000ebc:	00002000 	.word	0x00002000

08000ec0 <SystemInit>:
 8000ec0:	4a03      	ldr	r2, [pc, #12]	; (8000ed0 <SystemInit+0x10>)
 8000ec2:	f8d2 3088 	ldr.w	r3, [r2, #136]	; 0x88
 8000ec6:	f443 0370 	orr.w	r3, r3, #15728640	; 0xf00000
 8000eca:	f8c2 3088 	str.w	r3, [r2, #136]	; 0x88
 8000ece:	4770      	bx	lr
 8000ed0:	e000ed00 	.word	0xe000ed00

08000ed4 <MX_UART5_Init>:
 8000ed4:	b508      	push	{r3, lr}
 8000ed6:	480c      	ldr	r0, [pc, #48]	; (8000f08 <MX_UART5_Init+0x34>)
 8000ed8:	f44f 33e1 	mov.w	r3, #115200	; 0x1c200
 8000edc:	4a0b      	ldr	r2, [pc, #44]	; (8000f0c <MX_UART5_Init+0x38>)
 8000ede:	e9c0 2300 	strd	r2, r3, [r0]
 8000ee2:	2300      	movs	r3, #0
 8000ee4:	220c      	movs	r2, #12
 8000ee6:	e9c0 3302 	strd	r3, r3, [r0, #8]
 8000eea:	6103      	str	r3, [r0, #16]
 8000eec:	6243      	str	r3, [r0, #36]	; 0x24
 8000eee:	e9c0 2305 	strd	r2, r3, [r0, #20]
 8000ef2:	e9c0 3307 	strd	r3, r3, [r0, #28]
 8000ef6:	f002 fcd6 	bl	80038a6 <HAL_UART_Init>
 8000efa:	b118      	cbz	r0, 8000f04 <MX_UART5_Init+0x30>
 8000efc:	e8bd 4008 	ldmia.w	sp!, {r3, lr}
 8000f00:	f7ff be14 	b.w	8000b2c <Error_Handler>
 8000f04:	bd08      	pop	{r3, pc}
 8000f06:	bf00      	nop
 8000f08:	200001ec 	.word	0x200001ec
 8000f0c:	40005000 	.word	0x40005000

08000f10 <HAL_UART_MspInit>:
 8000f10:	b5f0      	push	{r4, r5, r6, r7, lr}
 8000f12:	b0a9      	sub	sp, #164	; 0xa4
 8000f14:	4604      	mov	r4, r0
 8000f16:	2214      	movs	r2, #20
 8000f18:	2100      	movs	r1, #0
 8000f1a:	a803      	add	r0, sp, #12
 8000f1c:	f006 f994 	bl	8007248 <memset>
 8000f20:	2280      	movs	r2, #128	; 0x80
 8000f22:	2100      	movs	r1, #0
 8000f24:	a808      	add	r0, sp, #32
 8000f26:	f006 f98f 	bl	8007248 <memset>
 8000f2a:	6822      	ldr	r2, [r4, #0]
 8000f2c:	4b26      	ldr	r3, [pc, #152]	; (8000fc8 <HAL_UART_MspInit+0xb8>)
 8000f2e:	429a      	cmp	r2, r3
 8000f30:	d147      	bne.n	8000fc2 <HAL_UART_MspInit+0xb2>
 8000f32:	f44f 6380 	mov.w	r3, #1024	; 0x400
 8000f36:	a808      	add	r0, sp, #32
 8000f38:	9308      	str	r3, [sp, #32]
 8000f3a:	2300      	movs	r3, #0
 8000f3c:	931b      	str	r3, [sp, #108]	; 0x6c
 8000f3e:	f001 fd5f 	bl	8002a00 <HAL_RCCEx_PeriphCLKConfig>
 8000f42:	b108      	cbz	r0, 8000f48 <HAL_UART_MspInit+0x38>
 8000f44:	f7ff fdf2 	bl	8000b2c <Error_Handler>
 8000f48:	4b20      	ldr	r3, [pc, #128]	; (8000fcc <HAL_UART_MspInit+0xbc>)
 8000f4a:	2400      	movs	r4, #0
 8000f4c:	2702      	movs	r7, #2
 8000f4e:	2603      	movs	r6, #3
 8000f50:	6c1a      	ldr	r2, [r3, #64]	; 0x40
 8000f52:	2508      	movs	r5, #8
 8000f54:	a903      	add	r1, sp, #12
 8000f56:	481e      	ldr	r0, [pc, #120]	; (8000fd0 <HAL_UART_MspInit+0xc0>)
 8000f58:	f442 1280 	orr.w	r2, r2, #1048576	; 0x100000
 8000f5c:	641a      	str	r2, [r3, #64]	; 0x40
 8000f5e:	6c1a      	ldr	r2, [r3, #64]	; 0x40
 8000f60:	f402 1280 	and.w	r2, r2, #1048576	; 0x100000
 8000f64:	9200      	str	r2, [sp, #0]
 8000f66:	9a00      	ldr	r2, [sp, #0]
 8000f68:	6b1a      	ldr	r2, [r3, #48]	; 0x30
 8000f6a:	f042 0204 	orr.w	r2, r2, #4
 8000f6e:	631a      	str	r2, [r3, #48]	; 0x30
 8000f70:	6b1a      	ldr	r2, [r3, #48]	; 0x30
 8000f72:	f002 0204 	and.w	r2, r2, #4
 8000f76:	9201      	str	r2, [sp, #4]
 8000f78:	9a01      	ldr	r2, [sp, #4]
 8000f7a:	6b1a      	ldr	r2, [r3, #48]	; 0x30
 8000f7c:	f042 0208 	orr.w	r2, r2, #8
 8000f80:	631a      	str	r2, [r3, #48]	; 0x30
 8000f82:	6b1b      	ldr	r3, [r3, #48]	; 0x30
 8000f84:	9507      	str	r5, [sp, #28]
 8000f86:	f003 0308 	and.w	r3, r3, #8
 8000f8a:	9302      	str	r3, [sp, #8]
 8000f8c:	9b02      	ldr	r3, [sp, #8]
 8000f8e:	f44f 5380 	mov.w	r3, #4096	; 0x1000
 8000f92:	e9cd 4605 	strd	r4, r6, [sp, #20]
 8000f96:	e9cd 3703 	strd	r3, r7, [sp, #12]
 8000f9a:	f000 fc27 	bl	80017ec <HAL_GPIO_Init>
 8000f9e:	2304      	movs	r3, #4
 8000fa0:	a903      	add	r1, sp, #12
 8000fa2:	480c      	ldr	r0, [pc, #48]	; (8000fd4 <HAL_UART_MspInit+0xc4>)
 8000fa4:	9507      	str	r5, [sp, #28]
 8000fa6:	e9cd 3703 	strd	r3, r7, [sp, #12]
 8000faa:	e9cd 4605 	strd	r4, r6, [sp, #20]
 8000fae:	f000 fc1d 	bl	80017ec <HAL_GPIO_Init>
 8000fb2:	2035      	movs	r0, #53	; 0x35
 8000fb4:	4622      	mov	r2, r4
 8000fb6:	4621      	mov	r1, r4
 8000fb8:	f000 fa40 	bl	800143c <HAL_NVIC_SetPriority>
 8000fbc:	2035      	movs	r0, #53	; 0x35
 8000fbe:	f000 fa6f 	bl	80014a0 <HAL_NVIC_EnableIRQ>
 8000fc2:	b029      	add	sp, #164	; 0xa4
 8000fc4:	bdf0      	pop	{r4, r5, r6, r7, pc}
 8000fc6:	bf00      	nop
 8000fc8:	40005000 	.word	0x40005000
 8000fcc:	40023800 	.word	0x40023800
 8000fd0:	40020800 	.word	0x40020800
 8000fd4:	40020c00 	.word	0x40020c00

08000fd8 <USBH_Get_Device_Data_Host>:
 8000fd8:	b410      	push	{r4}
 8000fda:	f890 332a 	ldrb.w	r3, [r0, #810]	; 0x32a
 8000fde:	2b09      	cmp	r3, #9
 8000fe0:	d151      	bne.n	8001086 <USBH_Get_Device_Data_Host+0xae>
 8000fe2:	2a02      	cmp	r2, #2
 8000fe4:	d14b      	bne.n	800107e <USBH_Get_Device_Data_Host+0xa6>
 8000fe6:	f8d0 3380 	ldr.w	r3, [r0, #896]	; 0x380
 8000fea:	6a18      	ldr	r0, [r3, #32]
 8000fec:	2300      	movs	r3, #0
 8000fee:	4602      	mov	r2, r0
 8000ff0:	f892 420d 	ldrb.w	r4, [r2, #525]	; 0x20d
 8000ff4:	428c      	cmp	r4, r1
 8000ff6:	d105      	bne.n	8001004 <USBH_Get_Device_Data_Host+0x2c>
 8000ff8:	2901      	cmp	r1, #1
 8000ffa:	d00f      	beq.n	800101c <USBH_Get_Device_Data_Host+0x44>
 8000ffc:	2902      	cmp	r1, #2
 8000ffe:	d01b      	beq.n	8001038 <USBH_Get_Device_Data_Host+0x60>
 8001000:	2903      	cmp	r1, #3
 8001002:	d029      	beq.n	8001058 <USBH_Get_Device_Data_Host+0x80>
 8001004:	f892 4279 	ldrb.w	r4, [r2, #633]	; 0x279
 8001008:	428c      	cmp	r4, r1
 800100a:	d133      	bne.n	8001074 <USBH_Get_Device_Data_Host+0x9c>
 800100c:	2901      	cmp	r1, #1
 800100e:	d006      	beq.n	800101e <USBH_Get_Device_Data_Host+0x46>
 8001010:	2902      	cmp	r1, #2
 8001012:	d01f      	beq.n	8001054 <USBH_Get_Device_Data_Host+0x7c>
 8001014:	2903      	cmp	r1, #3
 8001016:	d12d      	bne.n	8001074 <USBH_Get_Device_Data_Host+0x9c>
 8001018:	2101      	movs	r1, #1
 800101a:	e01e      	b.n	800105a <USBH_Get_Device_Data_Host+0x82>
 800101c:	2100      	movs	r1, #0
 800101e:	f44f 7271 	mov.w	r2, #964	; 0x3c4
 8001022:	f85d 4b04 	ldr.w	r4, [sp], #4
 8001026:	4353      	muls	r3, r2
 8001028:	226c      	movs	r2, #108	; 0x6c
 800102a:	fb02 3101 	mla	r1, r2, r1, r3
 800102e:	f501 7103 	add.w	r1, r1, #524	; 0x20c
 8001032:	4408      	add	r0, r1
 8001034:	f004 bc88 	b.w	8005948 <USBH_HUB_GetKeybdInfo>
 8001038:	2100      	movs	r1, #0
 800103a:	226c      	movs	r2, #108	; 0x6c
 800103c:	f85d 4b04 	ldr.w	r4, [sp], #4
 8001040:	434a      	muls	r2, r1
 8001042:	f44f 7171 	mov.w	r1, #964	; 0x3c4
 8001046:	fb01 2303 	mla	r3, r1, r3, r2
 800104a:	f503 7303 	add.w	r3, r3, #524	; 0x20c
 800104e:	4418      	add	r0, r3
 8001050:	f004 bd2a 	b.w	8005aa8 <USBH_HUB_GetMouseInfo>
 8001054:	2101      	movs	r1, #1
 8001056:	e7f0      	b.n	800103a <USBH_Get_Device_Data_Host+0x62>
 8001058:	2100      	movs	r1, #0
 800105a:	226c      	movs	r2, #108	; 0x6c
 800105c:	f85d 4b04 	ldr.w	r4, [sp], #4
 8001060:	434a      	muls	r2, r1
 8001062:	f44f 7171 	mov.w	r1, #964	; 0x3c4
 8001066:	fb01 2303 	mla	r3, r1, r3, r2
 800106a:	f503 7303 	add.w	r3, r3, #524	; 0x20c
 800106e:	4418      	add	r0, r3
 8001070:	f004 bae0 	b.w	8005634 <USBH_HUB_GetGamepadInfo>
 8001074:	3301      	adds	r3, #1
 8001076:	f502 7271 	add.w	r2, r2, #964	; 0x3c4
 800107a:	2b04      	cmp	r3, #4
 800107c:	d1b8      	bne.n	8000ff0 <USBH_Get_Device_Data_Host+0x18>
 800107e:	2000      	movs	r0, #0
 8001080:	f85d 4b04 	ldr.w	r4, [sp], #4
 8001084:	4770      	bx	lr
 8001086:	2a02      	cmp	r2, #2
 8001088:	d1f9      	bne.n	800107e <USBH_Get_Device_Data_Host+0xa6>
 800108a:	f8d0 2380 	ldr.w	r2, [r0, #896]	; 0x380
 800108e:	f102 0420 	add.w	r4, r2, #32
 8001092:	3228      	adds	r2, #40	; 0x28
 8001094:	f854 3b04 	ldr.w	r3, [r4], #4
 8001098:	f893 3030 	ldrb.w	r3, [r3, #48]	; 0x30
 800109c:	f003 0303 	and.w	r3, r3, #3
 80010a0:	2b02      	cmp	r3, #2
 80010a2:	d105      	bne.n	80010b0 <USBH_Get_Device_Data_Host+0xd8>
 80010a4:	2901      	cmp	r1, #1
 80010a6:	d113      	bne.n	80010d0 <USBH_Get_Device_Data_Host+0xf8>
 80010a8:	f85d 4b04 	ldr.w	r4, [sp], #4
 80010ac:	f003 bd4c 	b.w	8004b48 <USBH_HID_GetKeybdInfo>
 80010b0:	2b01      	cmp	r3, #1
 80010b2:	d105      	bne.n	80010c0 <USBH_Get_Device_Data_Host+0xe8>
 80010b4:	2902      	cmp	r1, #2
 80010b6:	d10b      	bne.n	80010d0 <USBH_Get_Device_Data_Host+0xf8>
 80010b8:	f85d 4b04 	ldr.w	r4, [sp], #4
 80010bc:	f003 be32 	b.w	8004d24 <USBH_HID_GetMouseInfo>
 80010c0:	2b03      	cmp	r3, #3
 80010c2:	d105      	bne.n	80010d0 <USBH_Get_Device_Data_Host+0xf8>
 80010c4:	2903      	cmp	r1, #3
 80010c6:	d103      	bne.n	80010d0 <USBH_Get_Device_Data_Host+0xf8>
 80010c8:	f85d 4b04 	ldr.w	r4, [sp], #4
 80010cc:	f003 bc20 	b.w	8004910 <USBH_HID_GetGamepadInfo>
 80010d0:	4294      	cmp	r4, r2
 80010d2:	d0d4      	beq.n	800107e <USBH_Get_Device_Data_Host+0xa6>
 80010d4:	e7de      	b.n	8001094 <USBH_Get_Device_Data_Host+0xbc>
	...

080010d8 <USBH_Get_Device_Data>:
 80010d8:	b507      	push	{r0, r1, r2, lr}
 80010da:	4601      	mov	r1, r0
 80010dc:	480d      	ldr	r0, [pc, #52]	; (8001114 <USBH_Get_Device_Data+0x3c>)
 80010de:	7803      	ldrb	r3, [r0, #0]
 80010e0:	2b0b      	cmp	r3, #11
 80010e2:	d007      	beq.n	80010f4 <USBH_Get_Device_Data+0x1c>
 80010e4:	480c      	ldr	r0, [pc, #48]	; (8001118 <USBH_Get_Device_Data+0x40>)
 80010e6:	7803      	ldrb	r3, [r0, #0]
 80010e8:	2b0b      	cmp	r3, #11
 80010ea:	d00c      	beq.n	8001106 <USBH_Get_Device_Data+0x2e>
 80010ec:	2000      	movs	r0, #0
 80010ee:	b003      	add	sp, #12
 80010f0:	f85d fb04 	ldr.w	pc, [sp], #4
 80010f4:	4b09      	ldr	r3, [pc, #36]	; (800111c <USBH_Get_Device_Data+0x44>)
 80010f6:	9101      	str	r1, [sp, #4]
 80010f8:	781a      	ldrb	r2, [r3, #0]
 80010fa:	f7ff ff6d 	bl	8000fd8 <USBH_Get_Device_Data_Host>
 80010fe:	2800      	cmp	r0, #0
 8001100:	d1f5      	bne.n	80010ee <USBH_Get_Device_Data+0x16>
 8001102:	9901      	ldr	r1, [sp, #4]
 8001104:	e7ee      	b.n	80010e4 <USBH_Get_Device_Data+0xc>
 8001106:	4b06      	ldr	r3, [pc, #24]	; (8001120 <USBH_Get_Device_Data+0x48>)
 8001108:	781a      	ldrb	r2, [r3, #0]
 800110a:	b003      	add	sp, #12
 800110c:	f85d eb04 	ldr.w	lr, [sp], #4
 8001110:	f7ff bf62 	b.w	8000fd8 <USBH_Get_Device_Data_Host>
 8001114:	2000058c 	.word	0x2000058c
 8001118:	20000968 	.word	0x20000968
 800111c:	2000011d 	.word	0x2000011d
 8001120:	2000011c 	.word	0x2000011c

08001124 <SetupJoystick_Host>:
 8001124:	f890 332a 	ldrb.w	r3, [r0, #810]	; 0x32a
 8001128:	2b09      	cmp	r3, #9
 800112a:	d116      	bne.n	800115a <SetupJoystick_Host+0x36>
 800112c:	2902      	cmp	r1, #2
 800112e:	d112      	bne.n	8001156 <SetupJoystick_Host+0x32>
 8001130:	f8d0 3380 	ldr.w	r3, [r0, #896]	; 0x380
 8001134:	6a1b      	ldr	r3, [r3, #32]
 8001136:	f503 6171 	add.w	r1, r3, #3856	; 0xf10
 800113a:	f893 220d 	ldrb.w	r2, [r3, #525]	; 0x20d
 800113e:	2a03      	cmp	r2, #3
 8001140:	d003      	beq.n	800114a <SetupJoystick_Host+0x26>
 8001142:	f893 2279 	ldrb.w	r2, [r3, #633]	; 0x279
 8001146:	2a03      	cmp	r2, #3
 8001148:	d101      	bne.n	800114e <SetupJoystick_Host+0x2a>
 800114a:	2001      	movs	r0, #1
 800114c:	4770      	bx	lr
 800114e:	f503 7371 	add.w	r3, r3, #964	; 0x3c4
 8001152:	428b      	cmp	r3, r1
 8001154:	d1f1      	bne.n	800113a <SetupJoystick_Host+0x16>
 8001156:	2000      	movs	r0, #0
 8001158:	4770      	bx	lr
 800115a:	2902      	cmp	r1, #2
 800115c:	d1fb      	bne.n	8001156 <SetupJoystick_Host+0x32>
 800115e:	f8d0 2380 	ldr.w	r2, [r0, #896]	; 0x380
 8001162:	6a13      	ldr	r3, [r2, #32]
 8001164:	f893 3030 	ldrb.w	r3, [r3, #48]	; 0x30
 8001168:	f003 0303 	and.w	r3, r3, #3
 800116c:	2b03      	cmp	r3, #3
 800116e:	d0ec      	beq.n	800114a <SetupJoystick_Host+0x26>
 8001170:	6a53      	ldr	r3, [r2, #36]	; 0x24
 8001172:	f893 0030 	ldrb.w	r0, [r3, #48]	; 0x30
 8001176:	f000 0003 	and.w	r0, r0, #3
 800117a:	1ec3      	subs	r3, r0, #3
 800117c:	4258      	negs	r0, r3
 800117e:	4158      	adcs	r0, r3
 8001180:	4770      	bx	lr
	...

08001184 <SetPinsOn>:
 8001184:	b5f0      	push	{r4, r5, r6, r7, lr}
 8001186:	2400      	movs	r4, #0
 8001188:	b087      	sub	sp, #28
 800118a:	4d28      	ldr	r5, [pc, #160]	; (800122c <SetPinsOn+0xa8>)
 800118c:	2740      	movs	r7, #64	; 0x40
 800118e:	2601      	movs	r6, #1
 8001190:	2380      	movs	r3, #128	; 0x80
 8001192:	4669      	mov	r1, sp
 8001194:	9405      	str	r4, [sp, #20]
 8001196:	4628      	mov	r0, r5
 8001198:	61af      	str	r7, [r5, #24]
 800119a:	9404      	str	r4, [sp, #16]
 800119c:	e9cd 3600 	strd	r3, r6, [sp]
 80011a0:	e9cd 4402 	strd	r4, r4, [sp, #8]
 80011a4:	f002 fc02 	bl	80039ac <LL_GPIO_Init>
 80011a8:	4669      	mov	r1, sp
 80011aa:	4628      	mov	r0, r5
 80011ac:	9404      	str	r4, [sp, #16]
 80011ae:	e9cd 7600 	strd	r7, r6, [sp]
 80011b2:	e9cd 4402 	strd	r4, r4, [sp, #8]
 80011b6:	f002 fbf9 	bl	80039ac <LL_GPIO_Init>
 80011ba:	f44f 6380 	mov.w	r3, #1024	; 0x400
 80011be:	4669      	mov	r1, sp
 80011c0:	4628      	mov	r0, r5
 80011c2:	9404      	str	r4, [sp, #16]
 80011c4:	e9cd 3600 	strd	r3, r6, [sp]
 80011c8:	e9cd 4402 	strd	r4, r4, [sp, #8]
 80011cc:	f002 fbee 	bl	80039ac <LL_GPIO_Init>
 80011d0:	f44f 6300 	mov.w	r3, #2048	; 0x800
 80011d4:	4669      	mov	r1, sp
 80011d6:	4628      	mov	r0, r5
 80011d8:	9404      	str	r4, [sp, #16]
 80011da:	e9cd 3600 	strd	r3, r6, [sp]
 80011de:	e9cd 4402 	strd	r4, r4, [sp, #8]
 80011e2:	f002 fbe3 	bl	80039ac <LL_GPIO_Init>
 80011e6:	f44f 5300 	mov.w	r3, #8192	; 0x2000
 80011ea:	4669      	mov	r1, sp
 80011ec:	4628      	mov	r0, r5
 80011ee:	9404      	str	r4, [sp, #16]
 80011f0:	e9cd 3600 	strd	r3, r6, [sp]
 80011f4:	e9cd 4402 	strd	r4, r4, [sp, #8]
 80011f8:	f002 fbd8 	bl	80039ac <LL_GPIO_Init>
 80011fc:	f44f 4380 	mov.w	r3, #16384	; 0x4000
 8001200:	4669      	mov	r1, sp
 8001202:	4628      	mov	r0, r5
 8001204:	9404      	str	r4, [sp, #16]
 8001206:	e9cd 3600 	strd	r3, r6, [sp]
 800120a:	e9cd 4402 	strd	r4, r4, [sp, #8]
 800120e:	f002 fbcd 	bl	80039ac <LL_GPIO_Init>
 8001212:	f44f 4300 	mov.w	r3, #32768	; 0x8000
 8001216:	4669      	mov	r1, sp
 8001218:	4628      	mov	r0, r5
 800121a:	9404      	str	r4, [sp, #16]
 800121c:	e9cd 3600 	strd	r3, r6, [sp]
 8001220:	e9cd 4402 	strd	r4, r4, [sp, #8]
 8001224:	f002 fbc2 	bl	80039ac <LL_GPIO_Init>
 8001228:	b007      	add	sp, #28
 800122a:	bdf0      	pop	{r4, r5, r6, r7, pc}
 800122c:	40020800 	.word	0x40020800

08001230 <SetPinsOff>:
 8001230:	e92d 47f0 	stmdb	sp!, {r4, r5, r6, r7, r8, r9, sl, lr}
 8001234:	4c27      	ldr	r4, [pc, #156]	; (80012d4 <SetPinsOff+0xa4>)
 8001236:	b086      	sub	sp, #24
 8001238:	2580      	movs	r5, #128	; 0x80
 800123a:	f44f 6a80 	mov.w	sl, #1024	; 0x400
 800123e:	f44f 6900 	mov.w	r9, #2048	; 0x800
 8001242:	f44f 5800 	mov.w	r8, #8192	; 0x2000
 8001246:	f44f 4780 	mov.w	r7, #16384	; 0x4000
 800124a:	f44f 4600 	mov.w	r6, #32768	; 0x8000
 800124e:	2210      	movs	r2, #16
 8001250:	61a5      	str	r5, [r4, #24]
 8001252:	2100      	movs	r1, #0
 8001254:	f8c4 a018 	str.w	sl, [r4, #24]
 8001258:	a802      	add	r0, sp, #8
 800125a:	f8c4 9018 	str.w	r9, [r4, #24]
 800125e:	f8c4 8018 	str.w	r8, [r4, #24]
 8001262:	61a7      	str	r7, [r4, #24]
 8001264:	61a6      	str	r6, [r4, #24]
 8001266:	f005 ffef 	bl	8007248 <memset>
 800126a:	9500      	str	r5, [sp, #0]
 800126c:	2500      	movs	r5, #0
 800126e:	4669      	mov	r1, sp
 8001270:	4620      	mov	r0, r4
 8001272:	9501      	str	r5, [sp, #4]
 8001274:	f002 fb9a 	bl	80039ac <LL_GPIO_Init>
 8001278:	2340      	movs	r3, #64	; 0x40
 800127a:	4669      	mov	r1, sp
 800127c:	4620      	mov	r0, r4
 800127e:	9504      	str	r5, [sp, #16]
 8001280:	e9cd 3500 	strd	r3, r5, [sp]
 8001284:	f002 fb92 	bl	80039ac <LL_GPIO_Init>
 8001288:	4669      	mov	r1, sp
 800128a:	4620      	mov	r0, r4
 800128c:	9504      	str	r5, [sp, #16]
 800128e:	e9cd a500 	strd	sl, r5, [sp]
 8001292:	f002 fb8b 	bl	80039ac <LL_GPIO_Init>
 8001296:	4669      	mov	r1, sp
 8001298:	4620      	mov	r0, r4
 800129a:	9504      	str	r5, [sp, #16]
 800129c:	e9cd 9500 	strd	r9, r5, [sp]
 80012a0:	f002 fb84 	bl	80039ac <LL_GPIO_Init>
 80012a4:	4669      	mov	r1, sp
 80012a6:	4620      	mov	r0, r4
 80012a8:	9504      	str	r5, [sp, #16]
 80012aa:	e9cd 8500 	strd	r8, r5, [sp]
 80012ae:	f002 fb7d 	bl	80039ac <LL_GPIO_Init>
 80012b2:	4669      	mov	r1, sp
 80012b4:	4620      	mov	r0, r4
 80012b6:	9504      	str	r5, [sp, #16]
 80012b8:	e9cd 7500 	strd	r7, r5, [sp]
 80012bc:	f002 fb76 	bl	80039ac <LL_GPIO_Init>
 80012c0:	4669      	mov	r1, sp
 80012c2:	4620      	mov	r0, r4
 80012c4:	9504      	str	r5, [sp, #16]
 80012c6:	e9cd 6500 	strd	r6, r5, [sp]
 80012ca:	f002 fb6f 	bl	80039ac <LL_GPIO_Init>
 80012ce:	b006      	add	sp, #24
 80012d0:	e8bd 87f0 	ldmia.w	sp!, {r4, r5, r6, r7, r8, r9, sl, pc}
 80012d4:	40020800 	.word	0x40020800

080012d8 <SetupJoystick>:
 80012d8:	480e      	ldr	r0, [pc, #56]	; (8001314 <SetupJoystick+0x3c>)
 80012da:	b508      	push	{r3, lr}
 80012dc:	7803      	ldrb	r3, [r0, #0]
 80012de:	2b0b      	cmp	r3, #11
 80012e0:	d112      	bne.n	8001308 <SetupJoystick+0x30>
 80012e2:	4b0d      	ldr	r3, [pc, #52]	; (8001318 <SetupJoystick+0x40>)
 80012e4:	7819      	ldrb	r1, [r3, #0]
 80012e6:	f7ff ff1d 	bl	8001124 <SetupJoystick_Host>
 80012ea:	4b0c      	ldr	r3, [pc, #48]	; (800131c <SetupJoystick+0x44>)
 80012ec:	781a      	ldrb	r2, [r3, #0]
 80012ee:	2a0b      	cmp	r2, #11
 80012f0:	d104      	bne.n	80012fc <SetupJoystick+0x24>
 80012f2:	4a0b      	ldr	r2, [pc, #44]	; (8001320 <SetupJoystick+0x48>)
 80012f4:	4618      	mov	r0, r3
 80012f6:	7811      	ldrb	r1, [r2, #0]
 80012f8:	f7ff ff14 	bl	8001124 <SetupJoystick_Host>
 80012fc:	2801      	cmp	r0, #1
 80012fe:	d105      	bne.n	800130c <SetupJoystick+0x34>
 8001300:	e8bd 4008 	ldmia.w	sp!, {r3, lr}
 8001304:	f7ff bf3e 	b.w	8001184 <SetPinsOn>
 8001308:	2000      	movs	r0, #0
 800130a:	e7ee      	b.n	80012ea <SetupJoystick+0x12>
 800130c:	e8bd 4008 	ldmia.w	sp!, {r3, lr}
 8001310:	f7ff bf8e 	b.w	8001230 <SetPinsOff>
 8001314:	2000058c 	.word	0x2000058c
 8001318:	2000011d 	.word	0x2000011d
 800131c:	20000968 	.word	0x20000968
 8001320:	2000011c 	.word	0x2000011c

08001324 <SetLEDs>:
 8001324:	4b0b      	ldr	r3, [pc, #44]	; (8001354 <SetLEDs+0x30>)
 8001326:	781b      	ldrb	r3, [r3, #0]
 8001328:	2b0b      	cmp	r3, #11
 800132a:	4b0b      	ldr	r3, [pc, #44]	; (8001358 <SetLEDs+0x34>)
 800132c:	d003      	beq.n	8001336 <SetLEDs+0x12>
 800132e:	4a0b      	ldr	r2, [pc, #44]	; (800135c <SetLEDs+0x38>)
 8001330:	7812      	ldrb	r2, [r2, #0]
 8001332:	2a0b      	cmp	r2, #11
 8001334:	d10b      	bne.n	800134e <SetLEDs+0x2a>
 8001336:	4a0a      	ldr	r2, [pc, #40]	; (8001360 <SetLEDs+0x3c>)
 8001338:	7812      	ldrb	r2, [r2, #0]
 800133a:	2a02      	cmp	r2, #2
 800133c:	d003      	beq.n	8001346 <SetLEDs+0x22>
 800133e:	4a09      	ldr	r2, [pc, #36]	; (8001364 <SetLEDs+0x40>)
 8001340:	7812      	ldrb	r2, [r2, #0]
 8001342:	2a02      	cmp	r2, #2
 8001344:	d103      	bne.n	800134e <SetLEDs+0x2a>
 8001346:	f04f 5200 	mov.w	r2, #536870912	; 0x20000000
 800134a:	619a      	str	r2, [r3, #24]
 800134c:	4770      	bx	lr
 800134e:	f44f 5200 	mov.w	r2, #8192	; 0x2000
 8001352:	e7fa      	b.n	800134a <SetLEDs+0x26>
 8001354:	2000058c 	.word	0x2000058c
 8001358:	40020400 	.word	0x40020400
 800135c:	20000968 	.word	0x20000968
 8001360:	2000011d 	.word	0x2000011d
 8001364:	2000011c 	.word	0x2000011c

08001368 <Reset_Handler>:
 8001368:	f8df d034 	ldr.w	sp, [pc, #52]	; 80013a0 <LoopFillZerobss+0x12>
 800136c:	480d      	ldr	r0, [pc, #52]	; (80013a4 <LoopFillZerobss+0x16>)
 800136e:	490e      	ldr	r1, [pc, #56]	; (80013a8 <LoopFillZerobss+0x1a>)
 8001370:	4a0e      	ldr	r2, [pc, #56]	; (80013ac <LoopFillZerobss+0x1e>)
 8001372:	2300      	movs	r3, #0
 8001374:	e002      	b.n	800137c <LoopCopyDataInit>

08001376 <CopyDataInit>:
 8001376:	58d4      	ldr	r4, [r2, r3]
 8001378:	50c4      	str	r4, [r0, r3]
 800137a:	3304      	adds	r3, #4

0800137c <LoopCopyDataInit>:
 800137c:	18c4      	adds	r4, r0, r3
 800137e:	428c      	cmp	r4, r1
 8001380:	d3f9      	bcc.n	8001376 <CopyDataInit>
 8001382:	4a0b      	ldr	r2, [pc, #44]	; (80013b0 <LoopFillZerobss+0x22>)
 8001384:	4c0b      	ldr	r4, [pc, #44]	; (80013b4 <LoopFillZerobss+0x26>)
 8001386:	2300      	movs	r3, #0
 8001388:	e001      	b.n	800138e <LoopFillZerobss>

0800138a <FillZerobss>:
 800138a:	6013      	str	r3, [r2, #0]
 800138c:	3204      	adds	r2, #4

0800138e <LoopFillZerobss>:
 800138e:	42a2      	cmp	r2, r4
 8001390:	d3fb      	bcc.n	800138a <FillZerobss>
 8001392:	f7ff fd95 	bl	8000ec0 <SystemInit>
 8001396:	f005 ff23 	bl	80071e0 <__libc_init_array>
 800139a:	f7ff fba5 	bl	8000ae8 <main>
 800139e:	4770      	bx	lr
 80013a0:	20040000 	.word	0x20040000
 80013a4:	20000000 	.word	0x20000000
 80013a8:	200000f0 	.word	0x200000f0
 80013ac:	080077a0 	.word	0x080077a0
 80013b0:	200000f0 	.word	0x200000f0
 80013b4:	2000135c 	.word	0x2000135c

080013b8 <ADC_IRQHandler>:
 80013b8:	e7fe      	b.n	80013b8 <ADC_IRQHandler>

080013ba <HAL_Init>:
 80013ba:	b508      	push	{r3, lr}
 80013bc:	2003      	movs	r0, #3
 80013be:	f000 f82b 	bl	8001418 <HAL_NVIC_SetPriorityGrouping>
 80013c2:	200f      	movs	r0, #15
 80013c4:	f7ff fcd8 	bl	8000d78 <HAL_InitTick>
 80013c8:	f7ff fc78 	bl	8000cbc <HAL_MspInit>
 80013cc:	2000      	movs	r0, #0
 80013ce:	bd08      	pop	{r3, pc}

080013d0 <HAL_IncTick>:
 80013d0:	4a03      	ldr	r2, [pc, #12]	; (80013e0 <HAL_IncTick+0x10>)
 80013d2:	4b04      	ldr	r3, [pc, #16]	; (80013e4 <HAL_IncTick+0x14>)
 80013d4:	6811      	ldr	r1, [r2, #0]
 80013d6:	781b      	ldrb	r3, [r3, #0]
 80013d8:	440b      	add	r3, r1
 80013da:	6013      	str	r3, [r2, #0]
 80013dc:	4770      	bx	lr
 80013de:	bf00      	nop
 80013e0:	20000274 	.word	0x20000274
 80013e4:	20000008 	.word	0x20000008

080013e8 <HAL_GetTick>:
 80013e8:	4b01      	ldr	r3, [pc, #4]	; (80013f0 <HAL_GetTick+0x8>)
 80013ea:	6818      	ldr	r0, [r3, #0]
 80013ec:	4770      	bx	lr
 80013ee:	bf00      	nop
 80013f0:	20000274 	.word	0x20000274

080013f4 <HAL_Delay>:
 80013f4:	b538      	push	{r3, r4, r5, lr}
 80013f6:	4604      	mov	r4, r0
 80013f8:	f7ff fff6 	bl	80013e8 <HAL_GetTick>
 80013fc:	4605      	mov	r5, r0
 80013fe:	1c63      	adds	r3, r4, #1
 8001400:	bf1e      	ittt	ne
 8001402:	4b04      	ldrne	r3, [pc, #16]	; (8001414 <HAL_Delay+0x20>)
 8001404:	781b      	ldrbne	r3, [r3, #0]
 8001406:	18e4      	addne	r4, r4, r3
 8001408:	f7ff ffee 	bl	80013e8 <HAL_GetTick>
 800140c:	1b43      	subs	r3, r0, r5
 800140e:	42a3      	cmp	r3, r4
 8001410:	d3fa      	bcc.n	8001408 <HAL_Delay+0x14>
 8001412:	bd38      	pop	{r3, r4, r5, pc}
 8001414:	20000008 	.word	0x20000008

08001418 <HAL_NVIC_SetPriorityGrouping>:
 8001418:	4907      	ldr	r1, [pc, #28]	; (8001438 <HAL_NVIC_SetPriorityGrouping+0x20>)
 800141a:	0203      	lsls	r3, r0, #8
 800141c:	68ca      	ldr	r2, [r1, #12]
 800141e:	f403 63e0 	and.w	r3, r3, #1792	; 0x700
 8001422:	f422 62e0 	bic.w	r2, r2, #1792	; 0x700
 8001426:	0412      	lsls	r2, r2, #16
 8001428:	0c12      	lsrs	r2, r2, #16
 800142a:	4313      	orrs	r3, r2
 800142c:	f043 63bf 	orr.w	r3, r3, #100139008	; 0x5f80000
 8001430:	f443 3300 	orr.w	r3, r3, #131072	; 0x20000
 8001434:	60cb      	str	r3, [r1, #12]
 8001436:	4770      	bx	lr
 8001438:	e000ed00 	.word	0xe000ed00

0800143c <HAL_NVIC_SetPriority>:
 800143c:	4b16      	ldr	r3, [pc, #88]	; (8001498 <HAL_NVIC_SetPriority+0x5c>)
 800143e:	b530      	push	{r4, r5, lr}
 8001440:	68dc      	ldr	r4, [r3, #12]
 8001442:	f3c4 2402 	ubfx	r4, r4, #8, #3
 8001446:	f1c4 0507 	rsb	r5, r4, #7
 800144a:	1d23      	adds	r3, r4, #4
 800144c:	2d04      	cmp	r5, #4
 800144e:	bf28      	it	cs
 8001450:	2504      	movcs	r5, #4
 8001452:	2b06      	cmp	r3, #6
 8001454:	f04f 33ff 	mov.w	r3, #4294967295
 8001458:	bf8c      	ite	hi
 800145a:	3c03      	subhi	r4, #3
 800145c:	2400      	movls	r4, #0
 800145e:	fa03 f505 	lsl.w	r5, r3, r5
 8001462:	2800      	cmp	r0, #0
 8001464:	fa03 f304 	lsl.w	r3, r3, r4
 8001468:	ea21 0105 	bic.w	r1, r1, r5
 800146c:	ea22 0203 	bic.w	r2, r2, r3
 8001470:	fa01 f104 	lsl.w	r1, r1, r4
 8001474:	ea41 0302 	orr.w	r3, r1, r2
 8001478:	ea4f 1303 	mov.w	r3, r3, lsl #4
 800147c:	b2db      	uxtb	r3, r3
 800147e:	db06      	blt.n	800148e <HAL_NVIC_SetPriority+0x52>
 8001480:	f100 4060 	add.w	r0, r0, #3758096384	; 0xe0000000
 8001484:	f500 4061 	add.w	r0, r0, #57600	; 0xe100
 8001488:	f880 3300 	strb.w	r3, [r0, #768]	; 0x300
 800148c:	bd30      	pop	{r4, r5, pc}
 800148e:	f000 000f 	and.w	r0, r0, #15
 8001492:	4a02      	ldr	r2, [pc, #8]	; (800149c <HAL_NVIC_SetPriority+0x60>)
 8001494:	5413      	strb	r3, [r2, r0]
 8001496:	e7f9      	b.n	800148c <HAL_NVIC_SetPriority+0x50>
 8001498:	e000ed00 	.word	0xe000ed00
 800149c:	e000ed14 	.word	0xe000ed14

080014a0 <HAL_NVIC_EnableIRQ>:
 80014a0:	2800      	cmp	r0, #0
 80014a2:	db08      	blt.n	80014b6 <HAL_NVIC_EnableIRQ+0x16>
 80014a4:	0942      	lsrs	r2, r0, #5
 80014a6:	2301      	movs	r3, #1
 80014a8:	f000 001f 	and.w	r0, r0, #31
 80014ac:	fa03 f000 	lsl.w	r0, r3, r0
 80014b0:	4b01      	ldr	r3, [pc, #4]	; (80014b8 <HAL_NVIC_EnableIRQ+0x18>)
 80014b2:	f843 0022 	str.w	r0, [r3, r2, lsl #2]
 80014b6:	4770      	bx	lr
 80014b8:	e000e100 	.word	0xe000e100

080014bc <HAL_DAC_Init>:
 80014bc:	b510      	push	{r4, lr}
 80014be:	4604      	mov	r4, r0
 80014c0:	b168      	cbz	r0, 80014de <HAL_DAC_Init+0x22>
 80014c2:	7903      	ldrb	r3, [r0, #4]
 80014c4:	f003 02ff 	and.w	r2, r3, #255	; 0xff
 80014c8:	b913      	cbnz	r3, 80014d0 <HAL_DAC_Init+0x14>
 80014ca:	7142      	strb	r2, [r0, #5]
 80014cc:	f7ff f840 	bl	8000550 <HAL_DAC_MspInit>
 80014d0:	2302      	movs	r3, #2
 80014d2:	2000      	movs	r0, #0
 80014d4:	7123      	strb	r3, [r4, #4]
 80014d6:	2301      	movs	r3, #1
 80014d8:	6120      	str	r0, [r4, #16]
 80014da:	7123      	strb	r3, [r4, #4]
 80014dc:	bd10      	pop	{r4, pc}
 80014de:	2001      	movs	r0, #1
 80014e0:	e7fc      	b.n	80014dc <HAL_DAC_Init+0x20>

080014e2 <HAL_DAC_DMAUnderrunCallbackCh1>:
 80014e2:	4770      	bx	lr

080014e4 <HAL_DAC_IRQHandler>:
 80014e4:	6803      	ldr	r3, [r0, #0]
 80014e6:	681a      	ldr	r2, [r3, #0]
 80014e8:	0491      	lsls	r1, r2, #18
 80014ea:	b510      	push	{r4, lr}
 80014ec:	4604      	mov	r4, r0
 80014ee:	d511      	bpl.n	8001514 <HAL_DAC_IRQHandler+0x30>
 80014f0:	6b5a      	ldr	r2, [r3, #52]	; 0x34
 80014f2:	0492      	lsls	r2, r2, #18
 80014f4:	d50e      	bpl.n	8001514 <HAL_DAC_IRQHandler+0x30>
 80014f6:	2204      	movs	r2, #4
 80014f8:	7102      	strb	r2, [r0, #4]
 80014fa:	6902      	ldr	r2, [r0, #16]
 80014fc:	f042 0201 	orr.w	r2, r2, #1
 8001500:	6102      	str	r2, [r0, #16]
 8001502:	f44f 5200 	mov.w	r2, #8192	; 0x2000
 8001506:	635a      	str	r2, [r3, #52]	; 0x34
 8001508:	681a      	ldr	r2, [r3, #0]
 800150a:	f422 5280 	bic.w	r2, r2, #4096	; 0x1000
 800150e:	601a      	str	r2, [r3, #0]
 8001510:	f7ff ffe7 	bl	80014e2 <HAL_DAC_DMAUnderrunCallbackCh1>
 8001514:	6823      	ldr	r3, [r4, #0]
 8001516:	681a      	ldr	r2, [r3, #0]
 8001518:	0091      	lsls	r1, r2, #2
 800151a:	d514      	bpl.n	8001546 <HAL_DAC_IRQHandler+0x62>
 800151c:	6b5a      	ldr	r2, [r3, #52]	; 0x34
 800151e:	0092      	lsls	r2, r2, #2
 8001520:	d511      	bpl.n	8001546 <HAL_DAC_IRQHandler+0x62>
 8001522:	2204      	movs	r2, #4
 8001524:	4620      	mov	r0, r4
 8001526:	7122      	strb	r2, [r4, #4]
 8001528:	6922      	ldr	r2, [r4, #16]
 800152a:	f042 0202 	orr.w	r2, r2, #2
 800152e:	6122      	str	r2, [r4, #16]
 8001530:	f04f 5200 	mov.w	r2, #536870912	; 0x20000000
 8001534:	635a      	str	r2, [r3, #52]	; 0x34
 8001536:	681a      	ldr	r2, [r3, #0]
 8001538:	f022 5280 	bic.w	r2, r2, #268435456	; 0x10000000
 800153c:	e8bd 4010 	ldmia.w	sp!, {r4, lr}
 8001540:	601a      	str	r2, [r3, #0]
 8001542:	f000 b824 	b.w	800158e <HAL_DACEx_DMAUnderrunCallbackCh2>
 8001546:	bd10      	pop	{r4, pc}

08001548 <HAL_DAC_ConfigChannel>:
 8001548:	b530      	push	{r4, r5, lr}
 800154a:	7943      	ldrb	r3, [r0, #5]
 800154c:	2b01      	cmp	r3, #1
 800154e:	f04f 0302 	mov.w	r3, #2
 8001552:	d01a      	beq.n	800158a <HAL_DAC_ConfigChannel+0x42>
 8001554:	6804      	ldr	r4, [r0, #0]
 8001556:	f002 0210 	and.w	r2, r2, #16
 800155a:	f640 75fe 	movw	r5, #4094	; 0xffe
 800155e:	7103      	strb	r3, [r0, #4]
 8001560:	6823      	ldr	r3, [r4, #0]
 8001562:	4095      	lsls	r5, r2
 8001564:	ea23 0505 	bic.w	r5, r3, r5
 8001568:	e9d1 3100 	ldrd	r3, r1, [r1]
 800156c:	430b      	orrs	r3, r1
 800156e:	21c0      	movs	r1, #192	; 0xc0
 8001570:	4093      	lsls	r3, r2
 8001572:	fa01 f202 	lsl.w	r2, r1, r2
 8001576:	432b      	orrs	r3, r5
 8001578:	6023      	str	r3, [r4, #0]
 800157a:	6823      	ldr	r3, [r4, #0]
 800157c:	ea23 0202 	bic.w	r2, r3, r2
 8001580:	2301      	movs	r3, #1
 8001582:	6022      	str	r2, [r4, #0]
 8001584:	7103      	strb	r3, [r0, #4]
 8001586:	2300      	movs	r3, #0
 8001588:	7143      	strb	r3, [r0, #5]
 800158a:	4618      	mov	r0, r3
 800158c:	bd30      	pop	{r4, r5, pc}

0800158e <HAL_DACEx_DMAUnderrunCallbackCh2>:
 800158e:	4770      	bx	lr

08001590 <HAL_DMA_Abort>:
 8001590:	b570      	push	{r4, r5, r6, lr}
 8001592:	4604      	mov	r4, r0
 8001594:	6d86      	ldr	r6, [r0, #88]	; 0x58
 8001596:	f7ff ff27 	bl	80013e8 <HAL_GetTick>
 800159a:	4605      	mov	r5, r0
 800159c:	f894 3035 	ldrb.w	r3, [r4, #53]	; 0x35
 80015a0:	2b02      	cmp	r3, #2
 80015a2:	d006      	beq.n	80015b2 <HAL_DMA_Abort+0x22>
 80015a4:	2380      	movs	r3, #128	; 0x80
 80015a6:	2001      	movs	r0, #1
 80015a8:	6563      	str	r3, [r4, #84]	; 0x54
 80015aa:	2300      	movs	r3, #0
 80015ac:	f884 3034 	strb.w	r3, [r4, #52]	; 0x34
 80015b0:	bd70      	pop	{r4, r5, r6, pc}
 80015b2:	6823      	ldr	r3, [r4, #0]
 80015b4:	681a      	ldr	r2, [r3, #0]
 80015b6:	f022 0216 	bic.w	r2, r2, #22
 80015ba:	601a      	str	r2, [r3, #0]
 80015bc:	695a      	ldr	r2, [r3, #20]
 80015be:	f022 0280 	bic.w	r2, r2, #128	; 0x80
 80015c2:	615a      	str	r2, [r3, #20]
 80015c4:	6c22      	ldr	r2, [r4, #64]	; 0x40
 80015c6:	b90a      	cbnz	r2, 80015cc <HAL_DMA_Abort+0x3c>
 80015c8:	6ca2      	ldr	r2, [r4, #72]	; 0x48
 80015ca:	b11a      	cbz	r2, 80015d4 <HAL_DMA_Abort+0x44>
 80015cc:	681a      	ldr	r2, [r3, #0]
 80015ce:	f022 0208 	bic.w	r2, r2, #8
 80015d2:	601a      	str	r2, [r3, #0]
 80015d4:	681a      	ldr	r2, [r3, #0]
 80015d6:	f022 0201 	bic.w	r2, r2, #1
 80015da:	601a      	str	r2, [r3, #0]
 80015dc:	6823      	ldr	r3, [r4, #0]
 80015de:	681b      	ldr	r3, [r3, #0]
 80015e0:	f013 0301 	ands.w	r3, r3, #1
 80015e4:	d10a      	bne.n	80015fc <HAL_DMA_Abort+0x6c>
 80015e6:	6de1      	ldr	r1, [r4, #92]	; 0x5c
 80015e8:	223f      	movs	r2, #63	; 0x3f
 80015ea:	4618      	mov	r0, r3
 80015ec:	408a      	lsls	r2, r1
 80015ee:	60b2      	str	r2, [r6, #8]
 80015f0:	2201      	movs	r2, #1
 80015f2:	f884 3034 	strb.w	r3, [r4, #52]	; 0x34
 80015f6:	f884 2035 	strb.w	r2, [r4, #53]	; 0x35
 80015fa:	e7d9      	b.n	80015b0 <HAL_DMA_Abort+0x20>
 80015fc:	f7ff fef4 	bl	80013e8 <HAL_GetTick>
 8001600:	1b40      	subs	r0, r0, r5
 8001602:	2805      	cmp	r0, #5
 8001604:	d9ea      	bls.n	80015dc <HAL_DMA_Abort+0x4c>
 8001606:	2320      	movs	r3, #32
 8001608:	2003      	movs	r0, #3
 800160a:	6563      	str	r3, [r4, #84]	; 0x54
 800160c:	2300      	movs	r3, #0
 800160e:	f884 0035 	strb.w	r0, [r4, #53]	; 0x35
 8001612:	f884 3034 	strb.w	r3, [r4, #52]	; 0x34
 8001616:	e7cb      	b.n	80015b0 <HAL_DMA_Abort+0x20>

08001618 <HAL_DMA_Abort_IT>:
 8001618:	f890 3035 	ldrb.w	r3, [r0, #53]	; 0x35
 800161c:	2b02      	cmp	r3, #2
 800161e:	d003      	beq.n	8001628 <HAL_DMA_Abort_IT+0x10>
 8001620:	2380      	movs	r3, #128	; 0x80
 8001622:	6543      	str	r3, [r0, #84]	; 0x54
 8001624:	2001      	movs	r0, #1
 8001626:	4770      	bx	lr
 8001628:	6802      	ldr	r2, [r0, #0]
 800162a:	2305      	movs	r3, #5
 800162c:	f880 3035 	strb.w	r3, [r0, #53]	; 0x35
 8001630:	2000      	movs	r0, #0
 8001632:	6813      	ldr	r3, [r2, #0]
 8001634:	f023 0301 	bic.w	r3, r3, #1
 8001638:	6013      	str	r3, [r2, #0]
 800163a:	4770      	bx	lr

0800163c <FLASH_SetErrorCode>:
 800163c:	4b1b      	ldr	r3, [pc, #108]	; (80016ac <FLASH_SetErrorCode+0x70>)
 800163e:	68da      	ldr	r2, [r3, #12]
 8001640:	0792      	lsls	r2, r2, #30
 8001642:	d504      	bpl.n	800164e <FLASH_SetErrorCode+0x12>
 8001644:	491a      	ldr	r1, [pc, #104]	; (80016b0 <FLASH_SetErrorCode+0x74>)
 8001646:	698a      	ldr	r2, [r1, #24]
 8001648:	f042 0220 	orr.w	r2, r2, #32
 800164c:	618a      	str	r2, [r1, #24]
 800164e:	68db      	ldr	r3, [r3, #12]
 8001650:	06db      	lsls	r3, r3, #27
 8001652:	d504      	bpl.n	800165e <FLASH_SetErrorCode+0x22>
 8001654:	4a16      	ldr	r2, [pc, #88]	; (80016b0 <FLASH_SetErrorCode+0x74>)
 8001656:	6993      	ldr	r3, [r2, #24]
 8001658:	f043 0310 	orr.w	r3, r3, #16
 800165c:	6193      	str	r3, [r2, #24]
 800165e:	4b13      	ldr	r3, [pc, #76]	; (80016ac <FLASH_SetErrorCode+0x70>)
 8001660:	68da      	ldr	r2, [r3, #12]
 8001662:	0690      	lsls	r0, r2, #26
 8001664:	d504      	bpl.n	8001670 <FLASH_SetErrorCode+0x34>
 8001666:	4912      	ldr	r1, [pc, #72]	; (80016b0 <FLASH_SetErrorCode+0x74>)
 8001668:	698a      	ldr	r2, [r1, #24]
 800166a:	f042 0208 	orr.w	r2, r2, #8
 800166e:	618a      	str	r2, [r1, #24]
 8001670:	68db      	ldr	r3, [r3, #12]
 8001672:	0659      	lsls	r1, r3, #25
 8001674:	d504      	bpl.n	8001680 <FLASH_SetErrorCode+0x44>
 8001676:	4a0e      	ldr	r2, [pc, #56]	; (80016b0 <FLASH_SetErrorCode+0x74>)
 8001678:	6993      	ldr	r3, [r2, #24]
 800167a:	f043 0304 	orr.w	r3, r3, #4
 800167e:	6193      	str	r3, [r2, #24]
 8001680:	4b0a      	ldr	r3, [pc, #40]	; (80016ac <FLASH_SetErrorCode+0x70>)
 8001682:	68da      	ldr	r2, [r3, #12]
 8001684:	0612      	lsls	r2, r2, #24
 8001686:	d504      	bpl.n	8001692 <FLASH_SetErrorCode+0x56>
 8001688:	4909      	ldr	r1, [pc, #36]	; (80016b0 <FLASH_SetErrorCode+0x74>)
 800168a:	698a      	ldr	r2, [r1, #24]
 800168c:	f042 0202 	orr.w	r2, r2, #2
 8001690:	618a      	str	r2, [r1, #24]
 8001692:	68db      	ldr	r3, [r3, #12]
 8001694:	05db      	lsls	r3, r3, #23
 8001696:	d504      	bpl.n	80016a2 <FLASH_SetErrorCode+0x66>
 8001698:	4a05      	ldr	r2, [pc, #20]	; (80016b0 <FLASH_SetErrorCode+0x74>)
 800169a:	6993      	ldr	r3, [r2, #24]
 800169c:	f043 0340 	orr.w	r3, r3, #64	; 0x40
 80016a0:	6193      	str	r3, [r2, #24]
 80016a2:	4b02      	ldr	r3, [pc, #8]	; (80016ac <FLASH_SetErrorCode+0x70>)
 80016a4:	f44f 72f9 	mov.w	r2, #498	; 0x1f2
 80016a8:	60da      	str	r2, [r3, #12]
 80016aa:	4770      	bx	lr
 80016ac:	40023c00 	.word	0x40023c00
 80016b0:	20000278 	.word	0x20000278

080016b4 <HAL_FLASH_EndOfOperationCallback>:
 80016b4:	4770      	bx	lr

080016b6 <HAL_FLASH_OperationErrorCallback>:
 80016b6:	4770      	bx	lr

080016b8 <HAL_FLASH_IRQHandler>:
 80016b8:	4b36      	ldr	r3, [pc, #216]	; (8001794 <HAL_FLASH_IRQHandler+0xdc>)
 80016ba:	691a      	ldr	r2, [r3, #16]
 80016bc:	f022 0201 	bic.w	r2, r2, #1
 80016c0:	b570      	push	{r4, r5, r6, lr}
 80016c2:	611a      	str	r2, [r3, #16]
 80016c4:	691a      	ldr	r2, [r3, #16]
 80016c6:	4d34      	ldr	r5, [pc, #208]	; (8001798 <HAL_FLASH_IRQHandler+0xe0>)
 80016c8:	f022 0202 	bic.w	r2, r2, #2
 80016cc:	611a      	str	r2, [r3, #16]
 80016ce:	691a      	ldr	r2, [r3, #16]
 80016d0:	f022 02f8 	bic.w	r2, r2, #248	; 0xf8
 80016d4:	611a      	str	r2, [r3, #16]
 80016d6:	691a      	ldr	r2, [r3, #16]
 80016d8:	f022 0204 	bic.w	r2, r2, #4
 80016dc:	611a      	str	r2, [r3, #16]
 80016de:	68dc      	ldr	r4, [r3, #12]
 80016e0:	f014 0401 	ands.w	r4, r4, #1
 80016e4:	d019      	beq.n	800171a <HAL_FLASH_IRQHandler+0x62>
 80016e6:	2201      	movs	r2, #1
 80016e8:	60da      	str	r2, [r3, #12]
 80016ea:	782a      	ldrb	r2, [r5, #0]
 80016ec:	2a02      	cmp	r2, #2
 80016ee:	b2d3      	uxtb	r3, r2
 80016f0:	d042      	beq.n	8001778 <HAL_FLASH_IRQHandler+0xc0>
 80016f2:	2b03      	cmp	r3, #3
 80016f4:	d046      	beq.n	8001784 <HAL_FLASH_IRQHandler+0xcc>
 80016f6:	2b01      	cmp	r3, #1
 80016f8:	d146      	bne.n	8001788 <HAL_FLASH_IRQHandler+0xd0>
 80016fa:	686b      	ldr	r3, [r5, #4]
 80016fc:	3b01      	subs	r3, #1
 80016fe:	606b      	str	r3, [r5, #4]
 8001700:	686e      	ldr	r6, [r5, #4]
 8001702:	2e00      	cmp	r6, #0
 8001704:	d030      	beq.n	8001768 <HAL_FLASH_IRQHandler+0xb0>
 8001706:	68e8      	ldr	r0, [r5, #12]
 8001708:	f7ff ffd4 	bl	80016b4 <HAL_FLASH_EndOfOperationCallback>
 800170c:	68ec      	ldr	r4, [r5, #12]
 800170e:	3401      	adds	r4, #1
 8001710:	60ec      	str	r4, [r5, #12]
 8001712:	4620      	mov	r0, r4
 8001714:	7a29      	ldrb	r1, [r5, #8]
 8001716:	f000 f841 	bl	800179c <FLASH_Erase_Sector>
 800171a:	4b1e      	ldr	r3, [pc, #120]	; (8001794 <HAL_FLASH_IRQHandler+0xdc>)
 800171c:	68db      	ldr	r3, [r3, #12]
 800171e:	f413 7ff9 	tst.w	r3, #498	; 0x1f2
 8001722:	d012      	beq.n	800174a <HAL_FLASH_IRQHandler+0x92>
 8001724:	782a      	ldrb	r2, [r5, #0]
 8001726:	2a02      	cmp	r2, #2
 8001728:	b2d3      	uxtb	r3, r2
 800172a:	d031      	beq.n	8001790 <HAL_FLASH_IRQHandler+0xd8>
 800172c:	2b03      	cmp	r3, #3
 800172e:	d02d      	beq.n	800178c <HAL_FLASH_IRQHandler+0xd4>
 8001730:	2b01      	cmp	r3, #1
 8001732:	d103      	bne.n	800173c <HAL_FLASH_IRQHandler+0x84>
 8001734:	f04f 33ff 	mov.w	r3, #4294967295
 8001738:	68ec      	ldr	r4, [r5, #12]
 800173a:	60eb      	str	r3, [r5, #12]
 800173c:	f7ff ff7e 	bl	800163c <FLASH_SetErrorCode>
 8001740:	4620      	mov	r0, r4
 8001742:	f7ff ffb8 	bl	80016b6 <HAL_FLASH_OperationErrorCallback>
 8001746:	2300      	movs	r3, #0
 8001748:	702b      	strb	r3, [r5, #0]
 800174a:	782b      	ldrb	r3, [r5, #0]
 800174c:	f003 01ff 	and.w	r1, r3, #255	; 0xff
 8001750:	b94b      	cbnz	r3, 8001766 <HAL_FLASH_IRQHandler+0xae>
 8001752:	4b10      	ldr	r3, [pc, #64]	; (8001794 <HAL_FLASH_IRQHandler+0xdc>)
 8001754:	691a      	ldr	r2, [r3, #16]
 8001756:	f022 7280 	bic.w	r2, r2, #16777216	; 0x1000000
 800175a:	611a      	str	r2, [r3, #16]
 800175c:	691a      	ldr	r2, [r3, #16]
 800175e:	f022 7200 	bic.w	r2, r2, #33554432	; 0x2000000
 8001762:	611a      	str	r2, [r3, #16]
 8001764:	7529      	strb	r1, [r5, #20]
 8001766:	bd70      	pop	{r4, r5, r6, pc}
 8001768:	f04f 34ff 	mov.w	r4, #4294967295
 800176c:	4620      	mov	r0, r4
 800176e:	60ec      	str	r4, [r5, #12]
 8001770:	f7ff ffa0 	bl	80016b4 <HAL_FLASH_EndOfOperationCallback>
 8001774:	702e      	strb	r6, [r5, #0]
 8001776:	e7d0      	b.n	800171a <HAL_FLASH_IRQHandler+0x62>
 8001778:	2000      	movs	r0, #0
 800177a:	2400      	movs	r4, #0
 800177c:	f7ff ff9a 	bl	80016b4 <HAL_FLASH_EndOfOperationCallback>
 8001780:	702c      	strb	r4, [r5, #0]
 8001782:	e7ca      	b.n	800171a <HAL_FLASH_IRQHandler+0x62>
 8001784:	6928      	ldr	r0, [r5, #16]
 8001786:	e7f8      	b.n	800177a <HAL_FLASH_IRQHandler+0xc2>
 8001788:	2400      	movs	r4, #0
 800178a:	e7c6      	b.n	800171a <HAL_FLASH_IRQHandler+0x62>
 800178c:	692c      	ldr	r4, [r5, #16]
 800178e:	e7d5      	b.n	800173c <HAL_FLASH_IRQHandler+0x84>
 8001790:	2400      	movs	r4, #0
 8001792:	e7d3      	b.n	800173c <HAL_FLASH_IRQHandler+0x84>
 8001794:	40023c00 	.word	0x40023c00
 8001798:	20000278 	.word	0x20000278

0800179c <FLASH_Erase_Sector>:
 800179c:	b139      	cbz	r1, 80017ae <FLASH_Erase_Sector+0x12>
 800179e:	2901      	cmp	r1, #1
 80017a0:	d01e      	beq.n	80017e0 <FLASH_Erase_Sector+0x44>
 80017a2:	2902      	cmp	r1, #2
 80017a4:	bf0c      	ite	eq
 80017a6:	f44f 7100 	moveq.w	r1, #512	; 0x200
 80017aa:	f44f 7140 	movne.w	r1, #768	; 0x300
 80017ae:	4b0e      	ldr	r3, [pc, #56]	; (80017e8 <FLASH_Erase_Sector+0x4c>)
 80017b0:	691a      	ldr	r2, [r3, #16]
 80017b2:	f422 7240 	bic.w	r2, r2, #768	; 0x300
 80017b6:	611a      	str	r2, [r3, #16]
 80017b8:	691a      	ldr	r2, [r3, #16]
 80017ba:	4311      	orrs	r1, r2
 80017bc:	6119      	str	r1, [r3, #16]
 80017be:	691a      	ldr	r2, [r3, #16]
 80017c0:	f022 02f8 	bic.w	r2, r2, #248	; 0xf8
 80017c4:	611a      	str	r2, [r3, #16]
 80017c6:	691a      	ldr	r2, [r3, #16]
 80017c8:	ea42 00c0 	orr.w	r0, r2, r0, lsl #3
 80017cc:	f040 0002 	orr.w	r0, r0, #2
 80017d0:	6118      	str	r0, [r3, #16]
 80017d2:	691a      	ldr	r2, [r3, #16]
 80017d4:	f442 3280 	orr.w	r2, r2, #65536	; 0x10000
 80017d8:	611a      	str	r2, [r3, #16]
 80017da:	f3bf 8f4f 	dsb	sy
 80017de:	4770      	bx	lr
 80017e0:	f44f 7180 	mov.w	r1, #256	; 0x100
 80017e4:	e7e3      	b.n	80017ae <FLASH_Erase_Sector+0x12>
 80017e6:	bf00      	nop
 80017e8:	40023c00 	.word	0x40023c00

080017ec <HAL_GPIO_Init>:
 80017ec:	e92d 4ff7 	stmdb	sp!, {r0, r1, r2, r4, r5, r6, r7, r8, r9, sl, fp, lr}
 80017f0:	2300      	movs	r3, #0
 80017f2:	f8df 91a4 	ldr.w	r9, [pc, #420]	; 8001998 <HAL_GPIO_Init+0x1ac>
 80017f6:	4a66      	ldr	r2, [pc, #408]	; (8001990 <HAL_GPIO_Init+0x1a4>)
 80017f8:	2401      	movs	r4, #1
 80017fa:	680d      	ldr	r5, [r1, #0]
 80017fc:	409c      	lsls	r4, r3
 80017fe:	ea04 0c05 	and.w	ip, r4, r5
 8001802:	43ac      	bics	r4, r5
 8001804:	f040 80ae 	bne.w	8001964 <HAL_GPIO_Init+0x178>
 8001808:	684d      	ldr	r5, [r1, #4]
 800180a:	ea4f 0843 	mov.w	r8, r3, lsl #1
 800180e:	2603      	movs	r6, #3
 8001810:	f005 0403 	and.w	r4, r5, #3
 8001814:	fa06 f608 	lsl.w	r6, r6, r8
 8001818:	1e67      	subs	r7, r4, #1
 800181a:	43f6      	mvns	r6, r6
 800181c:	2f01      	cmp	r7, #1
 800181e:	d834      	bhi.n	800188a <HAL_GPIO_Init+0x9e>
 8001820:	6887      	ldr	r7, [r0, #8]
 8001822:	ea07 0e06 	and.w	lr, r7, r6
 8001826:	68cf      	ldr	r7, [r1, #12]
 8001828:	fa07 f708 	lsl.w	r7, r7, r8
 800182c:	ea47 070e 	orr.w	r7, r7, lr
 8001830:	6087      	str	r7, [r0, #8]
 8001832:	6847      	ldr	r7, [r0, #4]
 8001834:	ea27 0e0c 	bic.w	lr, r7, ip
 8001838:	f3c5 1700 	ubfx	r7, r5, #4, #1
 800183c:	409f      	lsls	r7, r3
 800183e:	ea47 070e 	orr.w	r7, r7, lr
 8001842:	6047      	str	r7, [r0, #4]
 8001844:	68c7      	ldr	r7, [r0, #12]
 8001846:	2c02      	cmp	r4, #2
 8001848:	ea07 0e06 	and.w	lr, r7, r6
 800184c:	688f      	ldr	r7, [r1, #8]
 800184e:	fa07 f708 	lsl.w	r7, r7, r8
 8001852:	ea47 070e 	orr.w	r7, r7, lr
 8001856:	60c7      	str	r7, [r0, #12]
 8001858:	d119      	bne.n	800188e <HAL_GPIO_Init+0xa2>
 800185a:	ea4f 0ad3 	mov.w	sl, r3, lsr #3
 800185e:	f003 0b07 	and.w	fp, r3, #7
 8001862:	f04f 0e0f 	mov.w	lr, #15
 8001866:	eb00 0a8a 	add.w	sl, r0, sl, lsl #2
 800186a:	ea4f 0b8b 	mov.w	fp, fp, lsl #2
 800186e:	f8da 7020 	ldr.w	r7, [sl, #32]
 8001872:	fa0e fe0b 	lsl.w	lr, lr, fp
 8001876:	ea27 0e0e 	bic.w	lr, r7, lr
 800187a:	690f      	ldr	r7, [r1, #16]
 800187c:	fa07 f70b 	lsl.w	r7, r7, fp
 8001880:	ea47 070e 	orr.w	r7, r7, lr
 8001884:	f8ca 7020 	str.w	r7, [sl, #32]
 8001888:	e001      	b.n	800188e <HAL_GPIO_Init+0xa2>
 800188a:	2c03      	cmp	r4, #3
 800188c:	d1da      	bne.n	8001844 <HAL_GPIO_Init+0x58>
 800188e:	6807      	ldr	r7, [r0, #0]
 8001890:	fa04 f408 	lsl.w	r4, r4, r8
 8001894:	f415 3f40 	tst.w	r5, #196608	; 0x30000
 8001898:	ea06 0607 	and.w	r6, r6, r7
 800189c:	ea46 0604 	orr.w	r6, r6, r4
 80018a0:	6006      	str	r6, [r0, #0]
 80018a2:	d05f      	beq.n	8001964 <HAL_GPIO_Init+0x178>
 80018a4:	f8d9 4044 	ldr.w	r4, [r9, #68]	; 0x44
 80018a8:	f023 0603 	bic.w	r6, r3, #3
 80018ac:	f003 0703 	and.w	r7, r3, #3
 80018b0:	f04f 0e0f 	mov.w	lr, #15
 80018b4:	f444 4480 	orr.w	r4, r4, #16384	; 0x4000
 80018b8:	f106 4680 	add.w	r6, r6, #1073741824	; 0x40000000
 80018bc:	00bf      	lsls	r7, r7, #2
 80018be:	f8c9 4044 	str.w	r4, [r9, #68]	; 0x44
 80018c2:	f506 369c 	add.w	r6, r6, #79872	; 0x13800
 80018c6:	f8d9 4044 	ldr.w	r4, [r9, #68]	; 0x44
 80018ca:	f404 4480 	and.w	r4, r4, #16384	; 0x4000
 80018ce:	9401      	str	r4, [sp, #4]
 80018d0:	9c01      	ldr	r4, [sp, #4]
 80018d2:	fa0e f407 	lsl.w	r4, lr, r7
 80018d6:	f8d6 8008 	ldr.w	r8, [r6, #8]
 80018da:	ea28 0e04 	bic.w	lr, r8, r4
 80018de:	4c2d      	ldr	r4, [pc, #180]	; (8001994 <HAL_GPIO_Init+0x1a8>)
 80018e0:	42a0      	cmp	r0, r4
 80018e2:	d046      	beq.n	8001972 <HAL_GPIO_Init+0x186>
 80018e4:	f504 6480 	add.w	r4, r4, #1024	; 0x400
 80018e8:	42a0      	cmp	r0, r4
 80018ea:	d044      	beq.n	8001976 <HAL_GPIO_Init+0x18a>
 80018ec:	f504 6480 	add.w	r4, r4, #1024	; 0x400
 80018f0:	42a0      	cmp	r0, r4
 80018f2:	d042      	beq.n	800197a <HAL_GPIO_Init+0x18e>
 80018f4:	f504 6480 	add.w	r4, r4, #1024	; 0x400
 80018f8:	42a0      	cmp	r0, r4
 80018fa:	d040      	beq.n	800197e <HAL_GPIO_Init+0x192>
 80018fc:	f504 6480 	add.w	r4, r4, #1024	; 0x400
 8001900:	42a0      	cmp	r0, r4
 8001902:	d03e      	beq.n	8001982 <HAL_GPIO_Init+0x196>
 8001904:	f504 6480 	add.w	r4, r4, #1024	; 0x400
 8001908:	42a0      	cmp	r0, r4
 800190a:	d03c      	beq.n	8001986 <HAL_GPIO_Init+0x19a>
 800190c:	f504 6480 	add.w	r4, r4, #1024	; 0x400
 8001910:	42a0      	cmp	r0, r4
 8001912:	d03a      	beq.n	800198a <HAL_GPIO_Init+0x19e>
 8001914:	f504 6480 	add.w	r4, r4, #1024	; 0x400
 8001918:	42a0      	cmp	r0, r4
 800191a:	bf0c      	ite	eq
 800191c:	2407      	moveq	r4, #7
 800191e:	2408      	movne	r4, #8
 8001920:	40bc      	lsls	r4, r7
 8001922:	02ef      	lsls	r7, r5, #11
 8001924:	ea44 040e 	orr.w	r4, r4, lr
 8001928:	60b4      	str	r4, [r6, #8]
 800192a:	ea6f 060c 	mvn.w	r6, ip
 800192e:	6894      	ldr	r4, [r2, #8]
 8001930:	bf54      	ite	pl
 8001932:	4034      	andpl	r4, r6
 8001934:	ea4c 0404 	orrmi.w	r4, ip, r4
 8001938:	02af      	lsls	r7, r5, #10
 800193a:	6094      	str	r4, [r2, #8]
 800193c:	68d4      	ldr	r4, [r2, #12]
 800193e:	bf54      	ite	pl
 8001940:	4034      	andpl	r4, r6
 8001942:	ea4c 0404 	orrmi.w	r4, ip, r4
 8001946:	03af      	lsls	r7, r5, #14
 8001948:	60d4      	str	r4, [r2, #12]
 800194a:	6854      	ldr	r4, [r2, #4]
 800194c:	bf54      	ite	pl
 800194e:	4034      	andpl	r4, r6
 8001950:	ea4c 0404 	orrmi.w	r4, ip, r4
 8001954:	03ed      	lsls	r5, r5, #15
 8001956:	6054      	str	r4, [r2, #4]
 8001958:	6814      	ldr	r4, [r2, #0]
 800195a:	bf54      	ite	pl
 800195c:	4034      	andpl	r4, r6
 800195e:	ea4c 0404 	orrmi.w	r4, ip, r4
 8001962:	6014      	str	r4, [r2, #0]
 8001964:	3301      	adds	r3, #1
 8001966:	2b10      	cmp	r3, #16
 8001968:	f47f af46 	bne.w	80017f8 <HAL_GPIO_Init+0xc>
 800196c:	b003      	add	sp, #12
 800196e:	e8bd 8ff0 	ldmia.w	sp!, {r4, r5, r6, r7, r8, r9, sl, fp, pc}
 8001972:	2400      	movs	r4, #0
 8001974:	e7d4      	b.n	8001920 <HAL_GPIO_Init+0x134>
 8001976:	2401      	movs	r4, #1
 8001978:	e7d2      	b.n	8001920 <HAL_GPIO_Init+0x134>
 800197a:	2402      	movs	r4, #2
 800197c:	e7d0      	b.n	8001920 <HAL_GPIO_Init+0x134>
 800197e:	2403      	movs	r4, #3
 8001980:	e7ce      	b.n	8001920 <HAL_GPIO_Init+0x134>
 8001982:	2404      	movs	r4, #4
 8001984:	e7cc      	b.n	8001920 <HAL_GPIO_Init+0x134>
 8001986:	2405      	movs	r4, #5
 8001988:	e7ca      	b.n	8001920 <HAL_GPIO_Init+0x134>
 800198a:	2406      	movs	r4, #6
 800198c:	e7c8      	b.n	8001920 <HAL_GPIO_Init+0x134>
 800198e:	bf00      	nop
 8001990:	40013c00 	.word	0x40013c00
 8001994:	40020000 	.word	0x40020000
 8001998:	40023800 	.word	0x40023800

0800199c <HAL_HCD_HC_Init>:
 800199c:	e92d 43f0 	stmdb	sp!, {r4, r5, r6, r7, r8, r9, lr}
 80019a0:	4605      	mov	r5, r0
 80019a2:	b085      	sub	sp, #20
 80019a4:	f895 42f8 	ldrb.w	r4, [r5, #760]	; 0x2f8
 80019a8:	f89d e030 	ldrb.w	lr, [sp, #48]	; 0x30
 80019ac:	2c01      	cmp	r4, #1
 80019ae:	f89d 8034 	ldrb.w	r8, [sp, #52]	; 0x34
 80019b2:	f8bd 9038 	ldrh.w	r9, [sp, #56]	; 0x38
 80019b6:	d025      	beq.n	8001a04 <HAL_HCD_HC_Init+0x68>
 80019b8:	2401      	movs	r4, #1
 80019ba:	09d0      	lsrs	r0, r2, #7
 80019bc:	2700      	movs	r7, #0
 80019be:	f002 067f 	and.w	r6, r2, #127	; 0x7f
 80019c2:	f885 42f8 	strb.w	r4, [r5, #760]	; 0x2f8
 80019c6:	242c      	movs	r4, #44	; 0x2c
 80019c8:	fb04 5401 	mla	r4, r4, r1, r5
 80019cc:	f884 703d 	strb.w	r7, [r4, #61]	; 0x3d
 80019d0:	f884 3038 	strb.w	r3, [r4, #56]	; 0x38
 80019d4:	f884 1039 	strb.w	r1, [r4, #57]	; 0x39
 80019d8:	f884 803f 	strb.w	r8, [r4, #63]	; 0x3f
 80019dc:	f884 603a 	strb.w	r6, [r4, #58]	; 0x3a
 80019e0:	f884 003b 	strb.w	r0, [r4, #59]	; 0x3b
 80019e4:	f884 e03c 	strb.w	lr, [r4, #60]	; 0x3c
 80019e8:	f8a4 9040 	strh.w	r9, [r4, #64]	; 0x40
 80019ec:	6828      	ldr	r0, [r5, #0]
 80019ee:	f8cd e000 	str.w	lr, [sp]
 80019f2:	e9cd 8901 	strd	r8, r9, [sp, #4]
 80019f6:	f002 fab6 	bl	8003f66 <USB_HC_Init>
 80019fa:	f885 72f8 	strb.w	r7, [r5, #760]	; 0x2f8
 80019fe:	b005      	add	sp, #20
 8001a00:	e8bd 83f0 	ldmia.w	sp!, {r4, r5, r6, r7, r8, r9, pc}
 8001a04:	2002      	movs	r0, #2
 8001a06:	e7fa      	b.n	80019fe <HAL_HCD_HC_Init+0x62>

08001a08 <HAL_HCD_HC_Halt>:
 8001a08:	b510      	push	{r4, lr}
 8001a0a:	f890 32f8 	ldrb.w	r3, [r0, #760]	; 0x2f8
 8001a0e:	4604      	mov	r4, r0
 8001a10:	2b01      	cmp	r3, #1
 8001a12:	d009      	beq.n	8001a28 <HAL_HCD_HC_Halt+0x20>
 8001a14:	2301      	movs	r3, #1
 8001a16:	f880 32f8 	strb.w	r3, [r0, #760]	; 0x2f8
 8001a1a:	6800      	ldr	r0, [r0, #0]
 8001a1c:	f002 fb38 	bl	8004090 <USB_HC_Halt>
 8001a20:	2000      	movs	r0, #0
 8001a22:	f884 02f8 	strb.w	r0, [r4, #760]	; 0x2f8
 8001a26:	bd10      	pop	{r4, pc}
 8001a28:	2002      	movs	r0, #2
 8001a2a:	e7fc      	b.n	8001a26 <HAL_HCD_HC_Halt+0x1e>

08001a2c <HAL_HCD_Init>:
 8001a2c:	e92d 41f0 	stmdb	sp!, {r4, r5, r6, r7, r8, lr}
 8001a30:	4605      	mov	r5, r0
 8001a32:	b08a      	sub	sp, #40	; 0x28
 8001a34:	2800      	cmp	r0, #0
 8001a36:	d041      	beq.n	8001abc <HAL_HCD_Init+0x90>
 8001a38:	f890 32f9 	ldrb.w	r3, [r0, #761]	; 0x2f9
 8001a3c:	6804      	ldr	r4, [r0, #0]
 8001a3e:	f003 02ff 	and.w	r2, r3, #255	; 0xff
 8001a42:	b91b      	cbnz	r3, 8001a4c <HAL_HCD_Init+0x20>
 8001a44:	f880 22f8 	strb.w	r2, [r0, #760]	; 0x2f8
 8001a48:	f005 fa22 	bl	8006e90 <HAL_HCD_MspInit>
 8001a4c:	2303      	movs	r3, #3
 8001a4e:	466e      	mov	r6, sp
 8001a50:	f105 0804 	add.w	r8, r5, #4
 8001a54:	462f      	mov	r7, r5
 8001a56:	f885 32f9 	strb.w	r3, [r5, #761]	; 0x2f9
 8001a5a:	6be3      	ldr	r3, [r4, #60]	; 0x3c
 8001a5c:	462c      	mov	r4, r5
 8001a5e:	f413 7380 	ands.w	r3, r3, #256	; 0x100
 8001a62:	f854 0b10 	ldr.w	r0, [r4], #16
 8001a66:	bf08      	it	eq
 8001a68:	612b      	streq	r3, [r5, #16]
 8001a6a:	f002 f8eb 	bl	8003c44 <USB_DisableGlobalInt>
 8001a6e:	cc0f      	ldmia	r4!, {r0, r1, r2, r3}
 8001a70:	c60f      	stmia	r6!, {r0, r1, r2, r3}
 8001a72:	cc0f      	ldmia	r4!, {r0, r1, r2, r3}
 8001a74:	c60f      	stmia	r6!, {r0, r1, r2, r3}
 8001a76:	e894 0003 	ldmia.w	r4, {r0, r1}
 8001a7a:	e886 0003 	stmia.w	r6, {r0, r1}
 8001a7e:	e898 000e 	ldmia.w	r8, {r1, r2, r3}
 8001a82:	6828      	ldr	r0, [r5, #0]
 8001a84:	466e      	mov	r6, sp
 8001a86:	f002 f857 	bl	8003b38 <USB_CoreInit>
 8001a8a:	f857 0b10 	ldr.w	r0, [r7], #16
 8001a8e:	2101      	movs	r1, #1
 8001a90:	f002 f8de 	bl	8003c50 <USB_SetCurrentMode>
 8001a94:	cf0f      	ldmia	r7!, {r0, r1, r2, r3}
 8001a96:	c60f      	stmia	r6!, {r0, r1, r2, r3}
 8001a98:	cf0f      	ldmia	r7!, {r0, r1, r2, r3}
 8001a9a:	c60f      	stmia	r6!, {r0, r1, r2, r3}
 8001a9c:	e894 0003 	ldmia.w	r4, {r0, r1}
 8001aa0:	e886 0003 	stmia.w	r6, {r0, r1}
 8001aa4:	e898 000e 	ldmia.w	r8, {r1, r2, r3}
 8001aa8:	6828      	ldr	r0, [r5, #0]
 8001aaa:	f002 f98f 	bl	8003dcc <USB_HostInit>
 8001aae:	2301      	movs	r3, #1
 8001ab0:	2000      	movs	r0, #0
 8001ab2:	f885 32f9 	strb.w	r3, [r5, #761]	; 0x2f9
 8001ab6:	b00a      	add	sp, #40	; 0x28
 8001ab8:	e8bd 81f0 	ldmia.w	sp!, {r4, r5, r6, r7, r8, pc}
 8001abc:	2001      	movs	r0, #1
 8001abe:	e7fa      	b.n	8001ab6 <HAL_HCD_Init+0x8a>

08001ac0 <HAL_HCD_HC_SubmitRequest>:
 8001ac0:	b4f0      	push	{r4, r5, r6, r7}
 8001ac2:	262c      	movs	r6, #44	; 0x2c
 8001ac4:	f89d 7010 	ldrb.w	r7, [sp, #16]
 8001ac8:	9d05      	ldr	r5, [sp, #20]
 8001aca:	fb06 0601 	mla	r6, r6, r1, r0
 8001ace:	f8bd 4018 	ldrh.w	r4, [sp, #24]
 8001ad2:	f89d c01c 	ldrb.w	ip, [sp, #28]
 8001ad6:	f886 203b 	strb.w	r2, [r6, #59]	; 0x3b
 8001ada:	f886 303f 	strb.w	r3, [r6, #63]	; 0x3f
 8001ade:	b97f      	cbnz	r7, 8001b00 <HAL_HCD_HC_SubmitRequest+0x40>
 8001ae0:	2703      	movs	r7, #3
 8001ae2:	2b02      	cmp	r3, #2
 8001ae4:	f886 c03d 	strb.w	ip, [r6, #61]	; 0x3d
 8001ae8:	f886 7042 	strb.w	r7, [r6, #66]	; 0x42
 8001aec:	d042      	beq.n	8001b74 <HAL_HCD_HC_SubmitRequest+0xb4>
 8001aee:	42bb      	cmp	r3, r7
 8001af0:	d040      	beq.n	8001b74 <HAL_HCD_HC_SubmitRequest+0xb4>
 8001af2:	2b01      	cmp	r3, #1
 8001af4:	d12a      	bne.n	8001b4c <HAL_HCD_HC_SubmitRequest+0x8c>
 8001af6:	232c      	movs	r3, #44	; 0x2c
 8001af8:	2200      	movs	r2, #0
 8001afa:	fb03 0301 	mla	r3, r3, r1, r0
 8001afe:	e023      	b.n	8001b48 <HAL_HCD_HC_SubmitRequest+0x88>
 8001b00:	f04f 0c02 	mov.w	ip, #2
 8001b04:	f886 c042 	strb.w	ip, [r6, #66]	; 0x42
 8001b08:	2b03      	cmp	r3, #3
 8001b0a:	d81f      	bhi.n	8001b4c <HAL_HCD_HC_SubmitRequest+0x8c>
 8001b0c:	a601      	add	r6, pc, #4	; (adr r6, 8001b14 <HAL_HCD_HC_SubmitRequest+0x54>)
 8001b0e:	f856 f023 	ldr.w	pc, [r6, r3, lsl #2]
 8001b12:	bf00      	nop
 8001b14:	08001b25 	.word	0x08001b25
 8001b18:	08001af7 	.word	0x08001af7
 8001b1c:	08001b75 	.word	0x08001b75
 8001b20:	08001b75 	.word	0x08001b75
 8001b24:	2f01      	cmp	r7, #1
 8001b26:	d111      	bne.n	8001b4c <HAL_HCD_HC_SubmitRequest+0x8c>
 8001b28:	b982      	cbnz	r2, 8001b4c <HAL_HCD_HC_SubmitRequest+0x8c>
 8001b2a:	232c      	movs	r3, #44	; 0x2c
 8001b2c:	fb03 0301 	mla	r3, r3, r1, r0
 8001b30:	b934      	cbnz	r4, 8001b40 <HAL_HCD_HC_SubmitRequest+0x80>
 8001b32:	f883 7055 	strb.w	r7, [r3, #85]	; 0x55
 8001b36:	232c      	movs	r3, #44	; 0x2c
 8001b38:	fb03 0301 	mla	r3, r3, r1, r0
 8001b3c:	2202      	movs	r2, #2
 8001b3e:	e003      	b.n	8001b48 <HAL_HCD_HC_SubmitRequest+0x88>
 8001b40:	f893 6055 	ldrb.w	r6, [r3, #85]	; 0x55
 8001b44:	2e00      	cmp	r6, #0
 8001b46:	d1f6      	bne.n	8001b36 <HAL_HCD_HC_SubmitRequest+0x76>
 8001b48:	f883 2042 	strb.w	r2, [r3, #66]	; 0x42
 8001b4c:	262c      	movs	r6, #44	; 0x2c
 8001b4e:	2200      	movs	r2, #0
 8001b50:	fb06 0301 	mla	r3, r6, r1, r0
 8001b54:	f883 1039 	strb.w	r1, [r3, #57]	; 0x39
 8001b58:	4619      	mov	r1, r3
 8001b5a:	f883 2060 	strb.w	r2, [r3, #96]	; 0x60
 8001b5e:	f883 2061 	strb.w	r2, [r3, #97]	; 0x61
 8001b62:	3138      	adds	r1, #56	; 0x38
 8001b64:	645d      	str	r5, [r3, #68]	; 0x44
 8001b66:	64dc      	str	r4, [r3, #76]	; 0x4c
 8001b68:	651a      	str	r2, [r3, #80]	; 0x50
 8001b6a:	7c02      	ldrb	r2, [r0, #16]
 8001b6c:	6800      	ldr	r0, [r0, #0]
 8001b6e:	bcf0      	pop	{r4, r5, r6, r7}
 8001b70:	f002 bafc 	b.w	800416c <USB_HC_StartXfer>
 8001b74:	232c      	movs	r3, #44	; 0x2c
 8001b76:	fb03 0301 	mla	r3, r3, r1, r0
 8001b7a:	b922      	cbnz	r2, 8001b86 <HAL_HCD_HC_SubmitRequest+0xc6>
 8001b7c:	f893 6055 	ldrb.w	r6, [r3, #85]	; 0x55
 8001b80:	2e00      	cmp	r6, #0
 8001b82:	d1db      	bne.n	8001b3c <HAL_HCD_HC_SubmitRequest+0x7c>
 8001b84:	e7e0      	b.n	8001b48 <HAL_HCD_HC_SubmitRequest+0x88>
 8001b86:	f893 2054 	ldrb.w	r2, [r3, #84]	; 0x54
 8001b8a:	2a00      	cmp	r2, #0
 8001b8c:	d1d6      	bne.n	8001b3c <HAL_HCD_HC_SubmitRequest+0x7c>
 8001b8e:	e7db      	b.n	8001b48 <HAL_HCD_HC_SubmitRequest+0x88>

08001b90 <HAL_HCD_IRQHandler>:
 8001b90:	e92d 4ff0 	stmdb	sp!, {r4, r5, r6, r7, r8, r9, sl, fp, lr}
 8001b94:	f8d0 9000 	ldr.w	r9, [r0]
 8001b98:	b085      	sub	sp, #20
 8001b9a:	4604      	mov	r4, r0
 8001b9c:	4648      	mov	r0, r9
 8001b9e:	f002 f911 	bl	8003dc4 <USB_GetMode>
 8001ba2:	2801      	cmp	r0, #1
 8001ba4:	f040 80f1 	bne.w	8001d8a <HAL_HCD_IRQHandler+0x1fa>
 8001ba8:	6820      	ldr	r0, [r4, #0]
 8001baa:	f002 f8ff 	bl	8003dac <USB_ReadInterrupts>
 8001bae:	2800      	cmp	r0, #0
 8001bb0:	f000 80eb 	beq.w	8001d8a <HAL_HCD_IRQHandler+0x1fa>
 8001bb4:	6820      	ldr	r0, [r4, #0]
 8001bb6:	f002 f8f9 	bl	8003dac <USB_ReadInterrupts>
 8001bba:	0281      	lsls	r1, r0, #10
 8001bbc:	d503      	bpl.n	8001bc6 <HAL_HCD_IRQHandler+0x36>
 8001bbe:	6823      	ldr	r3, [r4, #0]
 8001bc0:	f44f 1200 	mov.w	r2, #2097152	; 0x200000
 8001bc4:	615a      	str	r2, [r3, #20]
 8001bc6:	6820      	ldr	r0, [r4, #0]
 8001bc8:	f002 f8f0 	bl	8003dac <USB_ReadInterrupts>
 8001bcc:	02c2      	lsls	r2, r0, #11
 8001bce:	d503      	bpl.n	8001bd8 <HAL_HCD_IRQHandler+0x48>
 8001bd0:	6823      	ldr	r3, [r4, #0]
 8001bd2:	f44f 1280 	mov.w	r2, #1048576	; 0x100000
 8001bd6:	615a      	str	r2, [r3, #20]
 8001bd8:	6820      	ldr	r0, [r4, #0]
 8001bda:	f002 f8e7 	bl	8003dac <USB_ReadInterrupts>
 8001bde:	0143      	lsls	r3, r0, #5
 8001be0:	d503      	bpl.n	8001bea <HAL_HCD_IRQHandler+0x5a>
 8001be2:	6823      	ldr	r3, [r4, #0]
 8001be4:	f04f 6280 	mov.w	r2, #67108864	; 0x4000000
 8001be8:	615a      	str	r2, [r3, #20]
 8001bea:	6820      	ldr	r0, [r4, #0]
 8001bec:	f002 f8de 	bl	8003dac <USB_ReadInterrupts>
 8001bf0:	0787      	lsls	r7, r0, #30
 8001bf2:	d502      	bpl.n	8001bfa <HAL_HCD_IRQHandler+0x6a>
 8001bf4:	6823      	ldr	r3, [r4, #0]
 8001bf6:	2202      	movs	r2, #2
 8001bf8:	615a      	str	r2, [r3, #20]
 8001bfa:	6820      	ldr	r0, [r4, #0]
 8001bfc:	f002 f8d6 	bl	8003dac <USB_ReadInterrupts>
 8001c00:	0086      	lsls	r6, r0, #2
 8001c02:	d515      	bpl.n	8001c30 <HAL_HCD_IRQHandler+0xa0>
 8001c04:	6823      	ldr	r3, [r4, #0]
 8001c06:	f04f 5200 	mov.w	r2, #536870912	; 0x20000000
 8001c0a:	615a      	str	r2, [r3, #20]
 8001c0c:	f8d9 3440 	ldr.w	r3, [r9, #1088]	; 0x440
 8001c10:	07dd      	lsls	r5, r3, #31
 8001c12:	d40d      	bmi.n	8001c30 <HAL_HCD_IRQHandler+0xa0>
 8001c14:	2110      	movs	r1, #16
 8001c16:	4648      	mov	r0, r9
 8001c18:	f002 f848 	bl	8003cac <USB_FlushTxFifo>
 8001c1c:	4648      	mov	r0, r9
 8001c1e:	f002 f86b 	bl	8003cf8 <USB_FlushRxFifo>
 8001c22:	2101      	movs	r1, #1
 8001c24:	6820      	ldr	r0, [r4, #0]
 8001c26:	f002 f933 	bl	8003e90 <USB_InitFSLSPClkSel>
 8001c2a:	4620      	mov	r0, r4
 8001c2c:	f005 f9e2 	bl	8006ff4 <HAL_HCD_Disconnect_Callback>
 8001c30:	6820      	ldr	r0, [r4, #0]
 8001c32:	f002 f8bb 	bl	8003dac <USB_ReadInterrupts>
 8001c36:	01c0      	lsls	r0, r0, #7
 8001c38:	d53d      	bpl.n	8001cb6 <HAL_HCD_IRQHandler+0x126>
 8001c3a:	6825      	ldr	r5, [r4, #0]
 8001c3c:	f8d5 3440 	ldr.w	r3, [r5, #1088]	; 0x440
 8001c40:	9302      	str	r3, [sp, #8]
 8001c42:	f8d5 3440 	ldr.w	r3, [r5, #1088]	; 0x440
 8001c46:	9303      	str	r3, [sp, #12]
 8001c48:	9b03      	ldr	r3, [sp, #12]
 8001c4a:	f023 032e 	bic.w	r3, r3, #46	; 0x2e
 8001c4e:	9303      	str	r3, [sp, #12]
 8001c50:	9b02      	ldr	r3, [sp, #8]
 8001c52:	0799      	lsls	r1, r3, #30
 8001c54:	d509      	bpl.n	8001c6a <HAL_HCD_IRQHandler+0xda>
 8001c56:	9b02      	ldr	r3, [sp, #8]
 8001c58:	07da      	lsls	r2, r3, #31
 8001c5a:	d502      	bpl.n	8001c62 <HAL_HCD_IRQHandler+0xd2>
 8001c5c:	4620      	mov	r0, r4
 8001c5e:	f005 f9c5 	bl	8006fec <HAL_HCD_Connect_Callback>
 8001c62:	9b03      	ldr	r3, [sp, #12]
 8001c64:	f043 0302 	orr.w	r3, r3, #2
 8001c68:	9303      	str	r3, [sp, #12]
 8001c6a:	9b02      	ldr	r3, [sp, #8]
 8001c6c:	071b      	lsls	r3, r3, #28
 8001c6e:	d518      	bpl.n	8001ca2 <HAL_HCD_IRQHandler+0x112>
 8001c70:	9b03      	ldr	r3, [sp, #12]
 8001c72:	f043 0308 	orr.w	r3, r3, #8
 8001c76:	9303      	str	r3, [sp, #12]
 8001c78:	9b02      	ldr	r3, [sp, #8]
 8001c7a:	075f      	lsls	r7, r3, #29
 8001c7c:	f140 8090 	bpl.w	8001da0 <HAL_HCD_IRQHandler+0x210>
 8001c80:	69a1      	ldr	r1, [r4, #24]
 8001c82:	2902      	cmp	r1, #2
 8001c84:	f040 8084 	bne.w	8001d90 <HAL_HCD_IRQHandler+0x200>
 8001c88:	9b02      	ldr	r3, [sp, #8]
 8001c8a:	6820      	ldr	r0, [r4, #0]
 8001c8c:	f403 23c0 	and.w	r3, r3, #393216	; 0x60000
 8001c90:	f5b3 2f80 	cmp.w	r3, #262144	; 0x40000
 8001c94:	bf18      	it	ne
 8001c96:	2101      	movne	r1, #1
 8001c98:	f002 f8fa 	bl	8003e90 <USB_InitFSLSPClkSel>
 8001c9c:	4620      	mov	r0, r4
 8001c9e:	f005 f9ae 	bl	8006ffe <HAL_HCD_PortEnabled_Callback>
 8001ca2:	9b02      	ldr	r3, [sp, #8]
 8001ca4:	069e      	lsls	r6, r3, #26
 8001ca6:	d503      	bpl.n	8001cb0 <HAL_HCD_IRQHandler+0x120>
 8001ca8:	9b03      	ldr	r3, [sp, #12]
 8001caa:	f043 0320 	orr.w	r3, r3, #32
 8001cae:	9303      	str	r3, [sp, #12]
 8001cb0:	9b03      	ldr	r3, [sp, #12]
 8001cb2:	f8c5 3440 	str.w	r3, [r5, #1088]	; 0x440
 8001cb6:	6820      	ldr	r0, [r4, #0]
 8001cb8:	f002 f878 	bl	8003dac <USB_ReadInterrupts>
 8001cbc:	0705      	lsls	r5, r0, #28
 8001cbe:	d505      	bpl.n	8001ccc <HAL_HCD_IRQHandler+0x13c>
 8001cc0:	4620      	mov	r0, r4
 8001cc2:	f005 f98f 	bl	8006fe4 <HAL_HCD_SOF_Callback>
 8001cc6:	6823      	ldr	r3, [r4, #0]
 8001cc8:	2208      	movs	r2, #8
 8001cca:	615a      	str	r2, [r3, #20]
 8001ccc:	6820      	ldr	r0, [r4, #0]
 8001cce:	f002 f86d 	bl	8003dac <USB_ReadInterrupts>
 8001cd2:	06c0      	lsls	r0, r0, #27
 8001cd4:	d542      	bpl.n	8001d5c <HAL_HCD_IRQHandler+0x1cc>
 8001cd6:	6826      	ldr	r6, [r4, #0]
 8001cd8:	69b3      	ldr	r3, [r6, #24]
 8001cda:	f023 0310 	bic.w	r3, r3, #16
 8001cde:	61b3      	str	r3, [r6, #24]
 8001ce0:	6a37      	ldr	r7, [r6, #32]
 8001ce2:	f3c7 4343 	ubfx	r3, r7, #17, #4
 8001ce6:	2b02      	cmp	r3, #2
 8001ce8:	d133      	bne.n	8001d52 <HAL_HCD_IRQHandler+0x1c2>
 8001cea:	f3c7 180a 	ubfx	r8, r7, #4, #11
 8001cee:	f1b8 0f00 	cmp.w	r8, #0
 8001cf2:	d02e      	beq.n	8001d52 <HAL_HCD_IRQHandler+0x1c2>
 8001cf4:	f007 070f 	and.w	r7, r7, #15
 8001cf8:	252c      	movs	r5, #44	; 0x2c
 8001cfa:	fb05 4507 	mla	r5, r5, r7, r4
 8001cfe:	6c69      	ldr	r1, [r5, #68]	; 0x44
 8001d00:	b339      	cbz	r1, 8001d52 <HAL_HCD_IRQHandler+0x1c2>
 8001d02:	6d2b      	ldr	r3, [r5, #80]	; 0x50
 8001d04:	6cea      	ldr	r2, [r5, #76]	; 0x4c
 8001d06:	4443      	add	r3, r8
 8001d08:	4293      	cmp	r3, r2
 8001d0a:	d84d      	bhi.n	8001da8 <HAL_HCD_IRQHandler+0x218>
 8001d0c:	4642      	mov	r2, r8
 8001d0e:	4630      	mov	r0, r6
 8001d10:	f002 f829 	bl	8003d66 <USB_ReadPacket>
 8001d14:	6c6b      	ldr	r3, [r5, #68]	; 0x44
 8001d16:	f506 66a0 	add.w	r6, r6, #1280	; 0x500
 8001d1a:	f8b5 1040 	ldrh.w	r1, [r5, #64]	; 0x40
 8001d1e:	4443      	add	r3, r8
 8001d20:	017a      	lsls	r2, r7, #5
 8001d22:	4588      	cmp	r8, r1
 8001d24:	eb06 1747 	add.w	r7, r6, r7, lsl #5
 8001d28:	646b      	str	r3, [r5, #68]	; 0x44
 8001d2a:	6d2b      	ldr	r3, [r5, #80]	; 0x50
 8001d2c:	4443      	add	r3, r8
 8001d2e:	652b      	str	r3, [r5, #80]	; 0x50
 8001d30:	693b      	ldr	r3, [r7, #16]
 8001d32:	d10e      	bne.n	8001d52 <HAL_HCD_IRQHandler+0x1c2>
 8001d34:	f3c3 43c9 	ubfx	r3, r3, #19, #10
 8001d38:	b15b      	cbz	r3, 8001d52 <HAL_HCD_IRQHandler+0x1c2>
 8001d3a:	5993      	ldr	r3, [r2, r6]
 8001d3c:	f023 4380 	bic.w	r3, r3, #1073741824	; 0x40000000
 8001d40:	f043 4300 	orr.w	r3, r3, #2147483648	; 0x80000000
 8001d44:	5193      	str	r3, [r2, r6]
 8001d46:	f895 3054 	ldrb.w	r3, [r5, #84]	; 0x54
 8001d4a:	f083 0301 	eor.w	r3, r3, #1
 8001d4e:	f885 3054 	strb.w	r3, [r5, #84]	; 0x54
 8001d52:	6822      	ldr	r2, [r4, #0]
 8001d54:	6993      	ldr	r3, [r2, #24]
 8001d56:	f043 0310 	orr.w	r3, r3, #16
 8001d5a:	6193      	str	r3, [r2, #24]
 8001d5c:	6820      	ldr	r0, [r4, #0]
 8001d5e:	f002 f825 	bl	8003dac <USB_ReadInterrupts>
 8001d62:	0181      	lsls	r1, r0, #6
 8001d64:	d511      	bpl.n	8001d8a <HAL_HCD_IRQHandler+0x1fa>
 8001d66:	6820      	ldr	r0, [r4, #0]
 8001d68:	f04f 0a00 	mov.w	sl, #0
 8001d6c:	f002 f98b 	bl	8004086 <USB_HC_ReadInterrupt>
 8001d70:	f509 69a0 	add.w	r9, r9, #1280	; 0x500
 8001d74:	4683      	mov	fp, r0
 8001d76:	f04f 0802 	mov.w	r8, #2
 8001d7a:	272c      	movs	r7, #44	; 0x2c
 8001d7c:	68a3      	ldr	r3, [r4, #8]
 8001d7e:	6826      	ldr	r6, [r4, #0]
 8001d80:	4553      	cmp	r3, sl
 8001d82:	d815      	bhi.n	8001db0 <HAL_HCD_IRQHandler+0x220>
 8001d84:	f04f 7300 	mov.w	r3, #33554432	; 0x2000000
 8001d88:	6173      	str	r3, [r6, #20]
 8001d8a:	b005      	add	sp, #20
 8001d8c:	e8bd 8ff0 	ldmia.w	sp!, {r4, r5, r6, r7, r8, r9, sl, fp, pc}
 8001d90:	68e3      	ldr	r3, [r4, #12]
 8001d92:	2b01      	cmp	r3, #1
 8001d94:	d182      	bne.n	8001c9c <HAL_HCD_IRQHandler+0x10c>
 8001d96:	f64e 2260 	movw	r2, #60000	; 0xea60
 8001d9a:	f8c5 2404 	str.w	r2, [r5, #1028]	; 0x404
 8001d9e:	e77d      	b.n	8001c9c <HAL_HCD_IRQHandler+0x10c>
 8001da0:	4620      	mov	r0, r4
 8001da2:	f005 f930 	bl	8007006 <HAL_HCD_PortDisabled_Callback>
 8001da6:	e77c      	b.n	8001ca2 <HAL_HCD_IRQHandler+0x112>
 8001da8:	2304      	movs	r3, #4
 8001daa:	f885 3060 	strb.w	r3, [r5, #96]	; 0x60
 8001dae:	e7d0      	b.n	8001d52 <HAL_HCD_IRQHandler+0x1c2>
 8001db0:	f00a 030f 	and.w	r3, sl, #15
 8001db4:	fa2b f303 	lsr.w	r3, fp, r3
 8001db8:	07da      	lsls	r2, r3, #31
 8001dba:	f140 80ad 	bpl.w	8001f18 <HAL_HCD_IRQHandler+0x388>
 8001dbe:	ea4f 134a 	mov.w	r3, sl, lsl #5
 8001dc2:	4630      	mov	r0, r6
 8001dc4:	fa5f f58a 	uxtb.w	r5, sl
 8001dc8:	f853 3009 	ldr.w	r3, [r3, r9]
 8001dcc:	4629      	mov	r1, r5
 8001dce:	041b      	lsls	r3, r3, #16
 8001dd0:	f140 8163 	bpl.w	800209a <HAL_HCD_IRQHandler+0x50a>
 8001dd4:	f001 ffee 	bl	8003db4 <USB_ReadChInterrupts>
 8001dd8:	0742      	lsls	r2, r0, #29
 8001dda:	d509      	bpl.n	8001df0 <HAL_HCD_IRQHandler+0x260>
 8001ddc:	f506 63a0 	add.w	r3, r6, #1280	; 0x500
 8001de0:	2204      	movs	r2, #4
 8001de2:	eb03 1345 	add.w	r3, r3, r5, lsl #5
 8001de6:	609a      	str	r2, [r3, #8]
 8001de8:	2207      	movs	r2, #7
 8001dea:	fb07 4305 	mla	r3, r7, r5, r4
 8001dee:	e00f      	b.n	8001e10 <HAL_HCD_IRQHandler+0x280>
 8001df0:	4629      	mov	r1, r5
 8001df2:	6820      	ldr	r0, [r4, #0]
 8001df4:	f001 ffde 	bl	8003db4 <USB_ReadChInterrupts>
 8001df8:	05c3      	lsls	r3, r0, #23
 8001dfa:	d522      	bpl.n	8001e42 <HAL_HCD_IRQHandler+0x2b2>
 8001dfc:	f506 63a0 	add.w	r3, r6, #1280	; 0x500
 8001e00:	f44f 7280 	mov.w	r2, #256	; 0x100
 8001e04:	eb03 1345 	add.w	r3, r3, r5, lsl #5
 8001e08:	609a      	str	r2, [r3, #8]
 8001e0a:	2208      	movs	r2, #8
 8001e0c:	fb07 4305 	mla	r3, r7, r5, r4
 8001e10:	f883 2061 	strb.w	r2, [r3, #97]	; 0x61
 8001e14:	4629      	mov	r1, r5
 8001e16:	6820      	ldr	r0, [r4, #0]
 8001e18:	f002 f93a 	bl	8004090 <USB_HC_Halt>
 8001e1c:	4629      	mov	r1, r5
 8001e1e:	6820      	ldr	r0, [r4, #0]
 8001e20:	f001 ffc8 	bl	8003db4 <USB_ReadChInterrupts>
 8001e24:	f410 7f00 	tst.w	r0, #512	; 0x200
 8001e28:	4629      	mov	r1, r5
 8001e2a:	6820      	ldr	r0, [r4, #0]
 8001e2c:	d036      	beq.n	8001e9c <HAL_HCD_IRQHandler+0x30c>
 8001e2e:	f506 66a0 	add.w	r6, r6, #1280	; 0x500
 8001e32:	f002 f92d 	bl	8004090 <USB_HC_Halt>
 8001e36:	f44f 7300 	mov.w	r3, #512	; 0x200
 8001e3a:	eb06 1645 	add.w	r6, r6, r5, lsl #5
 8001e3e:	60b3      	str	r3, [r6, #8]
 8001e40:	e06a      	b.n	8001f18 <HAL_HCD_IRQHandler+0x388>
 8001e42:	4629      	mov	r1, r5
 8001e44:	6820      	ldr	r0, [r4, #0]
 8001e46:	f001 ffb5 	bl	8003db4 <USB_ReadChInterrupts>
 8001e4a:	0700      	lsls	r0, r0, #28
 8001e4c:	d509      	bpl.n	8001e62 <HAL_HCD_IRQHandler+0x2d2>
 8001e4e:	f506 63a0 	add.w	r3, r6, #1280	; 0x500
 8001e52:	2208      	movs	r2, #8
 8001e54:	eb03 1345 	add.w	r3, r3, r5, lsl #5
 8001e58:	609a      	str	r2, [r3, #8]
 8001e5a:	2206      	movs	r2, #6
 8001e5c:	fb07 4305 	mla	r3, r7, r5, r4
 8001e60:	e7d6      	b.n	8001e10 <HAL_HCD_IRQHandler+0x280>
 8001e62:	4629      	mov	r1, r5
 8001e64:	6820      	ldr	r0, [r4, #0]
 8001e66:	f001 ffa5 	bl	8003db4 <USB_ReadChInterrupts>
 8001e6a:	0541      	lsls	r1, r0, #21
 8001e6c:	d50a      	bpl.n	8001e84 <HAL_HCD_IRQHandler+0x2f4>
 8001e6e:	f506 63a0 	add.w	r3, r6, #1280	; 0x500
 8001e72:	f44f 6280 	mov.w	r2, #1024	; 0x400
 8001e76:	eb03 1345 	add.w	r3, r3, r5, lsl #5
 8001e7a:	609a      	str	r2, [r3, #8]
 8001e7c:	2209      	movs	r2, #9
 8001e7e:	fb07 4305 	mla	r3, r7, r5, r4
 8001e82:	e7c5      	b.n	8001e10 <HAL_HCD_IRQHandler+0x280>
 8001e84:	4629      	mov	r1, r5
 8001e86:	6820      	ldr	r0, [r4, #0]
 8001e88:	f001 ff94 	bl	8003db4 <USB_ReadChInterrupts>
 8001e8c:	0602      	lsls	r2, r0, #24
 8001e8e:	d5c5      	bpl.n	8001e1c <HAL_HCD_IRQHandler+0x28c>
 8001e90:	f506 63a0 	add.w	r3, r6, #1280	; 0x500
 8001e94:	2280      	movs	r2, #128	; 0x80
 8001e96:	eb03 1345 	add.w	r3, r3, r5, lsl #5
 8001e9a:	e7a4      	b.n	8001de6 <HAL_HCD_IRQHandler+0x256>
 8001e9c:	f001 ff8a 	bl	8003db4 <USB_ReadChInterrupts>
 8001ea0:	07c3      	lsls	r3, r0, #31
 8001ea2:	d549      	bpl.n	8001f38 <HAL_HCD_IRQHandler+0x3a8>
 8001ea4:	f506 61a0 	add.w	r1, r6, #1280	; 0x500
 8001ea8:	2320      	movs	r3, #32
 8001eaa:	0168      	lsls	r0, r5, #5
 8001eac:	eb01 1645 	add.w	r6, r1, r5, lsl #5
 8001eb0:	60b3      	str	r3, [r6, #8]
 8001eb2:	6923      	ldr	r3, [r4, #16]
 8001eb4:	b14b      	cbz	r3, 8001eca <HAL_HCD_IRQHandler+0x33a>
 8001eb6:	6932      	ldr	r2, [r6, #16]
 8001eb8:	fb07 4c05 	mla	ip, r7, r5, r4
 8001ebc:	f3c2 0212 	ubfx	r2, r2, #0, #19
 8001ec0:	f8dc 3048 	ldr.w	r3, [ip, #72]	; 0x48
 8001ec4:	1a9b      	subs	r3, r3, r2
 8001ec6:	f8cc 3050 	str.w	r3, [ip, #80]	; 0x50
 8001eca:	fb07 4305 	mla	r3, r7, r5, r4
 8001ece:	2201      	movs	r2, #1
 8001ed0:	f04f 0c00 	mov.w	ip, #0
 8001ed4:	f883 2061 	strb.w	r2, [r3, #97]	; 0x61
 8001ed8:	f8c3 c05c 	str.w	ip, [r3, #92]	; 0x5c
 8001edc:	60b2      	str	r2, [r6, #8]
 8001ede:	f893 203f 	ldrb.w	r2, [r3, #63]	; 0x3f
 8001ee2:	f012 02fd 	ands.w	r2, r2, #253	; 0xfd
 8001ee6:	d11a      	bne.n	8001f1e <HAL_HCD_IRQHandler+0x38e>
 8001ee8:	4629      	mov	r1, r5
 8001eea:	6820      	ldr	r0, [r4, #0]
 8001eec:	f002 f8d0 	bl	8004090 <USB_HC_Halt>
 8001ef0:	2310      	movs	r3, #16
 8001ef2:	60b3      	str	r3, [r6, #8]
 8001ef4:	6923      	ldr	r3, [r4, #16]
 8001ef6:	fb07 4505 	mla	r5, r7, r5, r4
 8001efa:	2b01      	cmp	r3, #1
 8001efc:	d106      	bne.n	8001f0c <HAL_HCD_IRQHandler+0x37c>
 8001efe:	f8b5 2040 	ldrh.w	r2, [r5, #64]	; 0x40
 8001f02:	6cab      	ldr	r3, [r5, #72]	; 0x48
 8001f04:	fbb3 f3f2 	udiv	r3, r3, r2
 8001f08:	07de      	lsls	r6, r3, #31
 8001f0a:	d505      	bpl.n	8001f18 <HAL_HCD_IRQHandler+0x388>
 8001f0c:	f895 3054 	ldrb.w	r3, [r5, #84]	; 0x54
 8001f10:	f083 0301 	eor.w	r3, r3, #1
 8001f14:	f885 3054 	strb.w	r3, [r5, #84]	; 0x54
 8001f18:	f10a 0a01 	add.w	sl, sl, #1
 8001f1c:	e72e      	b.n	8001d7c <HAL_HCD_IRQHandler+0x1ec>
 8001f1e:	2a01      	cmp	r2, #1
 8001f20:	d1e8      	bne.n	8001ef4 <HAL_HCD_IRQHandler+0x364>
 8001f22:	5846      	ldr	r6, [r0, r1]
 8001f24:	f046 5600 	orr.w	r6, r6, #536870912	; 0x20000000
 8001f28:	5046      	str	r6, [r0, r1]
 8001f2a:	4629      	mov	r1, r5
 8001f2c:	4620      	mov	r0, r4
 8001f2e:	f883 2060 	strb.w	r2, [r3, #96]	; 0x60
 8001f32:	f005 f863 	bl	8006ffc <HAL_HCD_HC_NotifyURBChange_Callback>
 8001f36:	e7dd      	b.n	8001ef4 <HAL_HCD_IRQHandler+0x364>
 8001f38:	4629      	mov	r1, r5
 8001f3a:	6820      	ldr	r0, [r4, #0]
 8001f3c:	f001 ff3a 	bl	8003db4 <USB_ReadChInterrupts>
 8001f40:	0680      	lsls	r0, r0, #26
 8001f42:	d505      	bpl.n	8001f50 <HAL_HCD_IRQHandler+0x3c0>
 8001f44:	f506 66a0 	add.w	r6, r6, #1280	; 0x500
 8001f48:	2320      	movs	r3, #32
 8001f4a:	eb06 1645 	add.w	r6, r6, r5, lsl #5
 8001f4e:	e776      	b.n	8001e3e <HAL_HCD_IRQHandler+0x2ae>
 8001f50:	4629      	mov	r1, r5
 8001f52:	6820      	ldr	r0, [r4, #0]
 8001f54:	f001 ff2e 	bl	8003db4 <USB_ReadChInterrupts>
 8001f58:	f010 0302 	ands.w	r3, r0, #2
 8001f5c:	d060      	beq.n	8002020 <HAL_HCD_IRQHandler+0x490>
 8001f5e:	f506 66a0 	add.w	r6, r6, #1280	; 0x500
 8001f62:	fb07 4205 	mla	r2, r7, r5, r4
 8001f66:	0169      	lsls	r1, r5, #5
 8001f68:	eb06 1345 	add.w	r3, r6, r5, lsl #5
 8001f6c:	f8c3 8008 	str.w	r8, [r3, #8]
 8001f70:	f892 3061 	ldrb.w	r3, [r2, #97]	; 0x61
 8001f74:	2b01      	cmp	r3, #1
 8001f76:	d10c      	bne.n	8001f92 <HAL_HCD_IRQHandler+0x402>
 8001f78:	f240 2301 	movw	r3, #513	; 0x201
 8001f7c:	f8a2 3060 	strh.w	r3, [r2, #96]	; 0x60
 8001f80:	fb07 4305 	mla	r3, r7, r5, r4
 8001f84:	4629      	mov	r1, r5
 8001f86:	4620      	mov	r0, r4
 8001f88:	f893 2060 	ldrb.w	r2, [r3, #96]	; 0x60
 8001f8c:	f005 f836 	bl	8006ffc <HAL_HCD_HC_NotifyURBChange_Callback>
 8001f90:	e7c2      	b.n	8001f18 <HAL_HCD_IRQHandler+0x388>
 8001f92:	2b06      	cmp	r3, #6
 8001f94:	d102      	bne.n	8001f9c <HAL_HCD_IRQHandler+0x40c>
 8001f96:	f240 2305 	movw	r3, #517	; 0x205
 8001f9a:	e7ef      	b.n	8001f7c <HAL_HCD_IRQHandler+0x3ec>
 8001f9c:	2b07      	cmp	r3, #7
 8001f9e:	d001      	beq.n	8001fa4 <HAL_HCD_IRQHandler+0x414>
 8001fa0:	2b09      	cmp	r3, #9
 8001fa2:	d113      	bne.n	8001fcc <HAL_HCD_IRQHandler+0x43c>
 8001fa4:	fb07 4305 	mla	r3, r7, r5, r4
 8001fa8:	6dda      	ldr	r2, [r3, #92]	; 0x5c
 8001faa:	f883 8061 	strb.w	r8, [r3, #97]	; 0x61
 8001fae:	3201      	adds	r2, #1
 8001fb0:	2a02      	cmp	r2, #2
 8001fb2:	65da      	str	r2, [r3, #92]	; 0x5c
 8001fb4:	d901      	bls.n	8001fba <HAL_HCD_IRQHandler+0x42a>
 8001fb6:	2200      	movs	r2, #0
 8001fb8:	e02a      	b.n	8002010 <HAL_HCD_IRQHandler+0x480>
 8001fba:	f883 8060 	strb.w	r8, [r3, #96]	; 0x60
 8001fbe:	598b      	ldr	r3, [r1, r6]
 8001fc0:	f023 4380 	bic.w	r3, r3, #1073741824	; 0x40000000
 8001fc4:	f043 4300 	orr.w	r3, r3, #2147483648	; 0x80000000
 8001fc8:	518b      	str	r3, [r1, r6]
 8001fca:	e7d9      	b.n	8001f80 <HAL_HCD_IRQHandler+0x3f0>
 8001fcc:	2b05      	cmp	r3, #5
 8001fce:	d102      	bne.n	8001fd6 <HAL_HCD_IRQHandler+0x446>
 8001fd0:	f882 8061 	strb.w	r8, [r2, #97]	; 0x61
 8001fd4:	e7d4      	b.n	8001f80 <HAL_HCD_IRQHandler+0x3f0>
 8001fd6:	2b03      	cmp	r3, #3
 8001fd8:	d104      	bne.n	8001fe4 <HAL_HCD_IRQHandler+0x454>
 8001fda:	fb07 4305 	mla	r3, r7, r5, r4
 8001fde:	f883 8061 	strb.w	r8, [r3, #97]	; 0x61
 8001fe2:	e7cd      	b.n	8001f80 <HAL_HCD_IRQHandler+0x3f0>
 8001fe4:	2b04      	cmp	r3, #4
 8001fe6:	d10b      	bne.n	8002000 <HAL_HCD_IRQHandler+0x470>
 8001fe8:	fb07 4305 	mla	r3, r7, r5, r4
 8001fec:	f240 2202 	movw	r2, #514	; 0x202
 8001ff0:	f8a3 2060 	strh.w	r2, [r3, #96]	; 0x60
 8001ff4:	f893 303f 	ldrb.w	r3, [r3, #63]	; 0x3f
 8001ff8:	f013 0ffd 	tst.w	r3, #253	; 0xfd
 8001ffc:	d1c0      	bne.n	8001f80 <HAL_HCD_IRQHandler+0x3f0>
 8001ffe:	e7de      	b.n	8001fbe <HAL_HCD_IRQHandler+0x42e>
 8002000:	2b08      	cmp	r3, #8
 8002002:	d10a      	bne.n	800201a <HAL_HCD_IRQHandler+0x48a>
 8002004:	fb07 4305 	mla	r3, r7, r5, r4
 8002008:	6dda      	ldr	r2, [r3, #92]	; 0x5c
 800200a:	f883 8061 	strb.w	r8, [r3, #97]	; 0x61
 800200e:	3201      	adds	r2, #1
 8002010:	65da      	str	r2, [r3, #92]	; 0x5c
 8002012:	2204      	movs	r2, #4
 8002014:	f883 2060 	strb.w	r2, [r3, #96]	; 0x60
 8002018:	e7b2      	b.n	8001f80 <HAL_HCD_IRQHandler+0x3f0>
 800201a:	2b02      	cmp	r3, #2
 800201c:	d1b0      	bne.n	8001f80 <HAL_HCD_IRQHandler+0x3f0>
 800201e:	e77b      	b.n	8001f18 <HAL_HCD_IRQHandler+0x388>
 8002020:	4629      	mov	r1, r5
 8002022:	6820      	ldr	r0, [r4, #0]
 8002024:	9301      	str	r3, [sp, #4]
 8002026:	f001 fec5 	bl	8003db4 <USB_ReadChInterrupts>
 800202a:	f010 0240 	ands.w	r2, r0, #64	; 0x40
 800202e:	d00f      	beq.n	8002050 <HAL_HCD_IRQHandler+0x4c0>
 8002030:	f506 66a0 	add.w	r6, r6, #1280	; 0x500
 8002034:	2240      	movs	r2, #64	; 0x40
 8002036:	2105      	movs	r1, #5
 8002038:	9b01      	ldr	r3, [sp, #4]
 800203a:	eb06 1645 	add.w	r6, r6, r5, lsl #5
 800203e:	60b2      	str	r2, [r6, #8]
 8002040:	fb07 4205 	mla	r2, r7, r5, r4
 8002044:	f882 1061 	strb.w	r1, [r2, #97]	; 0x61
 8002048:	65d3      	str	r3, [r2, #92]	; 0x5c
 800204a:	4629      	mov	r1, r5
 800204c:	6820      	ldr	r0, [r4, #0]
 800204e:	e052      	b.n	80020f6 <HAL_HCD_IRQHandler+0x566>
 8002050:	4629      	mov	r1, r5
 8002052:	6820      	ldr	r0, [r4, #0]
 8002054:	9201      	str	r2, [sp, #4]
 8002056:	f001 fead 	bl	8003db4 <USB_ReadChInterrupts>
 800205a:	06c1      	lsls	r1, r0, #27
 800205c:	f57f af5c 	bpl.w	8001f18 <HAL_HCD_IRQHandler+0x388>
 8002060:	fb07 4305 	mla	r3, r7, r5, r4
 8002064:	6820      	ldr	r0, [r4, #0]
 8002066:	9a01      	ldr	r2, [sp, #4]
 8002068:	f893 103f 	ldrb.w	r1, [r3, #63]	; 0x3f
 800206c:	2903      	cmp	r1, #3
 800206e:	d107      	bne.n	8002080 <HAL_HCD_IRQHandler+0x4f0>
 8002070:	65da      	str	r2, [r3, #92]	; 0x5c
 8002072:	2204      	movs	r2, #4
 8002074:	4629      	mov	r1, r5
 8002076:	f883 2061 	strb.w	r2, [r3, #97]	; 0x61
 800207a:	f002 f809 	bl	8004090 <USB_HC_Halt>
 800207e:	e006      	b.n	800208e <HAL_HCD_IRQHandler+0x4fe>
 8002080:	f011 01fd 	ands.w	r1, r1, #253	; 0xfd
 8002084:	d103      	bne.n	800208e <HAL_HCD_IRQHandler+0x4fe>
 8002086:	6922      	ldr	r2, [r4, #16]
 8002088:	65d9      	str	r1, [r3, #92]	; 0x5c
 800208a:	2a00      	cmp	r2, #0
 800208c:	d0f1      	beq.n	8002072 <HAL_HCD_IRQHandler+0x4e2>
 800208e:	f506 66a0 	add.w	r6, r6, #1280	; 0x500
 8002092:	2310      	movs	r3, #16
 8002094:	eb06 1645 	add.w	r6, r6, r5, lsl #5
 8002098:	e6d1      	b.n	8001e3e <HAL_HCD_IRQHandler+0x2ae>
 800209a:	f001 fe8b 	bl	8003db4 <USB_ReadChInterrupts>
 800209e:	f010 0304 	ands.w	r3, r0, #4
 80020a2:	d00b      	beq.n	80020bc <HAL_HCD_IRQHandler+0x52c>
 80020a4:	f506 66a0 	add.w	r6, r6, #1280	; 0x500
 80020a8:	2304      	movs	r3, #4
 80020aa:	2207      	movs	r2, #7
 80020ac:	eb06 1645 	add.w	r6, r6, r5, lsl #5
 80020b0:	60b3      	str	r3, [r6, #8]
 80020b2:	fb07 4305 	mla	r3, r7, r5, r4
 80020b6:	f883 2061 	strb.w	r2, [r3, #97]	; 0x61
 80020ba:	e7c6      	b.n	800204a <HAL_HCD_IRQHandler+0x4ba>
 80020bc:	4629      	mov	r1, r5
 80020be:	6820      	ldr	r0, [r4, #0]
 80020c0:	9301      	str	r3, [sp, #4]
 80020c2:	f001 fe77 	bl	8003db4 <USB_ReadChInterrupts>
 80020c6:	0682      	lsls	r2, r0, #26
 80020c8:	d518      	bpl.n	80020fc <HAL_HCD_IRQHandler+0x56c>
 80020ca:	f506 66a0 	add.w	r6, r6, #1280	; 0x500
 80020ce:	2220      	movs	r2, #32
 80020d0:	9b01      	ldr	r3, [sp, #4]
 80020d2:	eb06 1645 	add.w	r6, r6, r5, lsl #5
 80020d6:	60b2      	str	r2, [r6, #8]
 80020d8:	fb07 4205 	mla	r2, r7, r5, r4
 80020dc:	f892 103d 	ldrb.w	r1, [r2, #61]	; 0x3d
 80020e0:	2901      	cmp	r1, #1
 80020e2:	f47f af19 	bne.w	8001f18 <HAL_HCD_IRQHandler+0x388>
 80020e6:	6820      	ldr	r0, [r4, #0]
 80020e8:	4629      	mov	r1, r5
 80020ea:	f882 303d 	strb.w	r3, [r2, #61]	; 0x3d
 80020ee:	f240 3302 	movw	r3, #770	; 0x302
 80020f2:	f8a2 3060 	strh.w	r3, [r2, #96]	; 0x60
 80020f6:	f001 ffcb 	bl	8004090 <USB_HC_Halt>
 80020fa:	e70d      	b.n	8001f18 <HAL_HCD_IRQHandler+0x388>
 80020fc:	4629      	mov	r1, r5
 80020fe:	6820      	ldr	r0, [r4, #0]
 8002100:	f001 fe58 	bl	8003db4 <USB_ReadChInterrupts>
 8002104:	f410 7200 	ands.w	r2, r0, #512	; 0x200
 8002108:	d007      	beq.n	800211a <HAL_HCD_IRQHandler+0x58a>
 800210a:	f506 66a0 	add.w	r6, r6, #1280	; 0x500
 800210e:	f44f 7300 	mov.w	r3, #512	; 0x200
 8002112:	eb06 1645 	add.w	r6, r6, r5, lsl #5
 8002116:	60b3      	str	r3, [r6, #8]
 8002118:	e797      	b.n	800204a <HAL_HCD_IRQHandler+0x4ba>
 800211a:	4629      	mov	r1, r5
 800211c:	6820      	ldr	r0, [r4, #0]
 800211e:	9201      	str	r2, [sp, #4]
 8002120:	f001 fe48 	bl	8003db4 <USB_ReadChInterrupts>
 8002124:	f010 0301 	ands.w	r3, r0, #1
 8002128:	d01b      	beq.n	8002162 <HAL_HCD_IRQHandler+0x5d2>
 800212a:	fb07 4305 	mla	r3, r7, r5, r4
 800212e:	9a01      	ldr	r2, [sp, #4]
 8002130:	4629      	mov	r1, r5
 8002132:	6820      	ldr	r0, [r4, #0]
 8002134:	65da      	str	r2, [r3, #92]	; 0x5c
 8002136:	f506 66a0 	add.w	r6, r6, #1280	; 0x500
 800213a:	9301      	str	r3, [sp, #4]
 800213c:	f001 fe3a 	bl	8003db4 <USB_ReadChInterrupts>
 8002140:	0643      	lsls	r3, r0, #25
 8002142:	eb06 1645 	add.w	r6, r6, r5, lsl #5
 8002146:	d505      	bpl.n	8002154 <HAL_HCD_IRQHandler+0x5c4>
 8002148:	9b01      	ldr	r3, [sp, #4]
 800214a:	2201      	movs	r2, #1
 800214c:	f883 203d 	strb.w	r2, [r3, #61]	; 0x3d
 8002150:	2340      	movs	r3, #64	; 0x40
 8002152:	60b3      	str	r3, [r6, #8]
 8002154:	2301      	movs	r3, #1
 8002156:	fb07 4205 	mla	r2, r7, r5, r4
 800215a:	60b3      	str	r3, [r6, #8]
 800215c:	f882 3061 	strb.w	r3, [r2, #97]	; 0x61
 8002160:	e773      	b.n	800204a <HAL_HCD_IRQHandler+0x4ba>
 8002162:	4629      	mov	r1, r5
 8002164:	6820      	ldr	r0, [r4, #0]
 8002166:	9301      	str	r3, [sp, #4]
 8002168:	f001 fe24 	bl	8003db4 <USB_ReadChInterrupts>
 800216c:	0640      	lsls	r0, r0, #25
 800216e:	d513      	bpl.n	8002198 <HAL_HCD_IRQHandler+0x608>
 8002170:	fb07 4205 	mla	r2, r7, r5, r4
 8002174:	2105      	movs	r1, #5
 8002176:	9b01      	ldr	r3, [sp, #4]
 8002178:	f506 66a0 	add.w	r6, r6, #1280	; 0x500
 800217c:	f882 1061 	strb.w	r1, [r2, #97]	; 0x61
 8002180:	2101      	movs	r1, #1
 8002182:	65d3      	str	r3, [r2, #92]	; 0x5c
 8002184:	eb06 1645 	add.w	r6, r6, r5, lsl #5
 8002188:	f882 103d 	strb.w	r1, [r2, #61]	; 0x3d
 800218c:	4629      	mov	r1, r5
 800218e:	6820      	ldr	r0, [r4, #0]
 8002190:	f001 ff7e 	bl	8004090 <USB_HC_Halt>
 8002194:	2340      	movs	r3, #64	; 0x40
 8002196:	e652      	b.n	8001e3e <HAL_HCD_IRQHandler+0x2ae>
 8002198:	4629      	mov	r1, r5
 800219a:	6820      	ldr	r0, [r4, #0]
 800219c:	f001 fe0a 	bl	8003db4 <USB_ReadChInterrupts>
 80021a0:	0701      	lsls	r1, r0, #28
 80021a2:	d509      	bpl.n	80021b8 <HAL_HCD_IRQHandler+0x628>
 80021a4:	f506 66a0 	add.w	r6, r6, #1280	; 0x500
 80021a8:	2308      	movs	r3, #8
 80021aa:	2206      	movs	r2, #6
 80021ac:	eb06 1645 	add.w	r6, r6, r5, lsl #5
 80021b0:	60b3      	str	r3, [r6, #8]
 80021b2:	fb07 4305 	mla	r3, r7, r5, r4
 80021b6:	e77e      	b.n	80020b6 <HAL_HCD_IRQHandler+0x526>
 80021b8:	4629      	mov	r1, r5
 80021ba:	6820      	ldr	r0, [r4, #0]
 80021bc:	f001 fdfa 	bl	8003db4 <USB_ReadChInterrupts>
 80021c0:	06c2      	lsls	r2, r0, #27
 80021c2:	d512      	bpl.n	80021ea <HAL_HCD_IRQHandler+0x65a>
 80021c4:	fb07 4305 	mla	r3, r7, r5, r4
 80021c8:	2200      	movs	r2, #0
 80021ca:	65da      	str	r2, [r3, #92]	; 0x5c
 80021cc:	2204      	movs	r2, #4
 80021ce:	f883 2061 	strb.w	r2, [r3, #97]	; 0x61
 80021d2:	f893 203d 	ldrb.w	r2, [r3, #61]	; 0x3d
 80021d6:	b92a      	cbnz	r2, 80021e4 <HAL_HCD_IRQHandler+0x654>
 80021d8:	f893 203c 	ldrb.w	r2, [r3, #60]	; 0x3c
 80021dc:	b912      	cbnz	r2, 80021e4 <HAL_HCD_IRQHandler+0x654>
 80021de:	2201      	movs	r2, #1
 80021e0:	f883 203d 	strb.w	r2, [r3, #61]	; 0x3d
 80021e4:	4629      	mov	r1, r5
 80021e6:	6820      	ldr	r0, [r4, #0]
 80021e8:	e747      	b.n	800207a <HAL_HCD_IRQHandler+0x4ea>
 80021ea:	4629      	mov	r1, r5
 80021ec:	6820      	ldr	r0, [r4, #0]
 80021ee:	f001 fde1 	bl	8003db4 <USB_ReadChInterrupts>
 80021f2:	0603      	lsls	r3, r0, #24
 80021f4:	d524      	bpl.n	8002240 <HAL_HCD_IRQHandler+0x6b0>
 80021f6:	6923      	ldr	r3, [r4, #16]
 80021f8:	b973      	cbnz	r3, 8002218 <HAL_HCD_IRQHandler+0x688>
 80021fa:	fb07 4305 	mla	r3, r7, r5, r4
 80021fe:	2207      	movs	r2, #7
 8002200:	4629      	mov	r1, r5
 8002202:	f883 2061 	strb.w	r2, [r3, #97]	; 0x61
 8002206:	6820      	ldr	r0, [r4, #0]
 8002208:	f001 ff42 	bl	8004090 <USB_HC_Halt>
 800220c:	f506 66a0 	add.w	r6, r6, #1280	; 0x500
 8002210:	2380      	movs	r3, #128	; 0x80
 8002212:	eb06 1645 	add.w	r6, r6, r5, lsl #5
 8002216:	e612      	b.n	8001e3e <HAL_HCD_IRQHandler+0x2ae>
 8002218:	fb07 4305 	mla	r3, r7, r5, r4
 800221c:	6dda      	ldr	r2, [r3, #92]	; 0x5c
 800221e:	3201      	adds	r2, #1
 8002220:	2a02      	cmp	r2, #2
 8002222:	65da      	str	r2, [r3, #92]	; 0x5c
 8002224:	d909      	bls.n	800223a <HAL_HCD_IRQHandler+0x6aa>
 8002226:	2200      	movs	r2, #0
 8002228:	4629      	mov	r1, r5
 800222a:	4620      	mov	r0, r4
 800222c:	65da      	str	r2, [r3, #92]	; 0x5c
 800222e:	2204      	movs	r2, #4
 8002230:	f883 2060 	strb.w	r2, [r3, #96]	; 0x60
 8002234:	f004 fee2 	bl	8006ffc <HAL_HCD_HC_NotifyURBChange_Callback>
 8002238:	e7e8      	b.n	800220c <HAL_HCD_IRQHandler+0x67c>
 800223a:	f883 8060 	strb.w	r8, [r3, #96]	; 0x60
 800223e:	e7e5      	b.n	800220c <HAL_HCD_IRQHandler+0x67c>
 8002240:	4629      	mov	r1, r5
 8002242:	6820      	ldr	r0, [r4, #0]
 8002244:	f001 fdb6 	bl	8003db4 <USB_ReadChInterrupts>
 8002248:	0540      	lsls	r0, r0, #21
 800224a:	d50f      	bpl.n	800226c <HAL_HCD_IRQHandler+0x6dc>
 800224c:	fb07 4305 	mla	r3, r7, r5, r4
 8002250:	2209      	movs	r2, #9
 8002252:	f506 66a0 	add.w	r6, r6, #1280	; 0x500
 8002256:	4629      	mov	r1, r5
 8002258:	f883 2061 	strb.w	r2, [r3, #97]	; 0x61
 800225c:	6820      	ldr	r0, [r4, #0]
 800225e:	eb06 1645 	add.w	r6, r6, r5, lsl #5
 8002262:	f001 ff15 	bl	8004090 <USB_HC_Halt>
 8002266:	f44f 6380 	mov.w	r3, #1024	; 0x400
 800226a:	e5e8      	b.n	8001e3e <HAL_HCD_IRQHandler+0x2ae>
 800226c:	4629      	mov	r1, r5
 800226e:	6820      	ldr	r0, [r4, #0]
 8002270:	f001 fda0 	bl	8003db4 <USB_ReadChInterrupts>
 8002274:	0781      	lsls	r1, r0, #30
 8002276:	f57f ae4f 	bpl.w	8001f18 <HAL_HCD_IRQHandler+0x388>
 800227a:	f506 66a0 	add.w	r6, r6, #1280	; 0x500
 800227e:	0168      	lsls	r0, r5, #5
 8002280:	eb06 1345 	add.w	r3, r6, r5, lsl #5
 8002284:	f8c3 8008 	str.w	r8, [r3, #8]
 8002288:	fb07 4305 	mla	r3, r7, r5, r4
 800228c:	f893 2061 	ldrb.w	r2, [r3, #97]	; 0x61
 8002290:	2a01      	cmp	r2, #1
 8002292:	d123      	bne.n	80022dc <HAL_HCD_IRQHandler+0x74c>
 8002294:	f240 2201 	movw	r2, #513	; 0x201
 8002298:	f8a3 2060 	strh.w	r2, [r3, #96]	; 0x60
 800229c:	f893 203f 	ldrb.w	r2, [r3, #63]	; 0x3f
 80022a0:	3a02      	subs	r2, #2
 80022a2:	2a01      	cmp	r2, #1
 80022a4:	f63f ae6c 	bhi.w	8001f80 <HAL_HCD_IRQHandler+0x3f0>
 80022a8:	6922      	ldr	r2, [r4, #16]
 80022aa:	b932      	cbnz	r2, 80022ba <HAL_HCD_IRQHandler+0x72a>
 80022ac:	f893 2055 	ldrb.w	r2, [r3, #85]	; 0x55
 80022b0:	f082 0201 	eor.w	r2, r2, #1
 80022b4:	f883 2055 	strb.w	r2, [r3, #85]	; 0x55
 80022b8:	e662      	b.n	8001f80 <HAL_HCD_IRQHandler+0x3f0>
 80022ba:	2a01      	cmp	r2, #1
 80022bc:	f47f ae60 	bne.w	8001f80 <HAL_HCD_IRQHandler+0x3f0>
 80022c0:	6cda      	ldr	r2, [r3, #76]	; 0x4c
 80022c2:	2a00      	cmp	r2, #0
 80022c4:	f43f ae5c 	beq.w	8001f80 <HAL_HCD_IRQHandler+0x3f0>
 80022c8:	f8b3 1040 	ldrh.w	r1, [r3, #64]	; 0x40
 80022cc:	3a01      	subs	r2, #1
 80022ce:	440a      	add	r2, r1
 80022d0:	fbb2 f2f1 	udiv	r2, r2, r1
 80022d4:	07d2      	lsls	r2, r2, #31
 80022d6:	f57f ae53 	bpl.w	8001f80 <HAL_HCD_IRQHandler+0x3f0>
 80022da:	e7e7      	b.n	80022ac <HAL_HCD_IRQHandler+0x71c>
 80022dc:	2a03      	cmp	r2, #3
 80022de:	f43f ae7e 	beq.w	8001fde <HAL_HCD_IRQHandler+0x44e>
 80022e2:	2a04      	cmp	r2, #4
 80022e4:	d104      	bne.n	80022f0 <HAL_HCD_IRQHandler+0x760>
 80022e6:	f240 2202 	movw	r2, #514	; 0x202
 80022ea:	f8a3 2060 	strh.w	r2, [r3, #96]	; 0x60
 80022ee:	e647      	b.n	8001f80 <HAL_HCD_IRQHandler+0x3f0>
 80022f0:	2a05      	cmp	r2, #5
 80022f2:	d0f8      	beq.n	80022e6 <HAL_HCD_IRQHandler+0x756>
 80022f4:	2a06      	cmp	r2, #6
 80022f6:	d102      	bne.n	80022fe <HAL_HCD_IRQHandler+0x76e>
 80022f8:	f240 2205 	movw	r2, #517	; 0x205
 80022fc:	e7f5      	b.n	80022ea <HAL_HCD_IRQHandler+0x75a>
 80022fe:	2a07      	cmp	r2, #7
 8002300:	d002      	beq.n	8002308 <HAL_HCD_IRQHandler+0x778>
 8002302:	2a09      	cmp	r2, #9
 8002304:	f47f ae08 	bne.w	8001f18 <HAL_HCD_IRQHandler+0x388>
 8002308:	fb07 4305 	mla	r3, r7, r5, r4
 800230c:	6dda      	ldr	r2, [r3, #92]	; 0x5c
 800230e:	f883 8061 	strb.w	r8, [r3, #97]	; 0x61
 8002312:	3201      	adds	r2, #1
 8002314:	2a02      	cmp	r2, #2
 8002316:	65da      	str	r2, [r3, #92]	; 0x5c
 8002318:	f63f ae4d 	bhi.w	8001fb6 <HAL_HCD_IRQHandler+0x426>
 800231c:	f883 8060 	strb.w	r8, [r3, #96]	; 0x60
 8002320:	5983      	ldr	r3, [r0, r6]
 8002322:	f023 4380 	bic.w	r3, r3, #1073741824	; 0x40000000
 8002326:	f043 4300 	orr.w	r3, r3, #2147483648	; 0x80000000
 800232a:	5183      	str	r3, [r0, r6]
 800232c:	e628      	b.n	8001f80 <HAL_HCD_IRQHandler+0x3f0>

0800232e <HAL_HCD_Start>:
 800232e:	b510      	push	{r4, lr}
 8002330:	f890 32f8 	ldrb.w	r3, [r0, #760]	; 0x2f8
 8002334:	4604      	mov	r4, r0
 8002336:	2b01      	cmp	r3, #1
 8002338:	d00c      	beq.n	8002354 <HAL_HCD_Start+0x26>
 800233a:	2101      	movs	r1, #1
 800233c:	f880 12f8 	strb.w	r1, [r0, #760]	; 0x2f8
 8002340:	6800      	ldr	r0, [r0, #0]
 8002342:	f001 fde0 	bl	8003f06 <USB_DriveVbus>
 8002346:	6820      	ldr	r0, [r4, #0]
 8002348:	f001 fc76 	bl	8003c38 <USB_EnableGlobalInt>
 800234c:	2000      	movs	r0, #0
 800234e:	f884 02f8 	strb.w	r0, [r4, #760]	; 0x2f8
 8002352:	bd10      	pop	{r4, pc}
 8002354:	2002      	movs	r0, #2
 8002356:	e7fc      	b.n	8002352 <HAL_HCD_Start+0x24>

08002358 <HAL_HCD_Stop>:
 8002358:	b510      	push	{r4, lr}
 800235a:	f890 32f8 	ldrb.w	r3, [r0, #760]	; 0x2f8
 800235e:	4604      	mov	r4, r0
 8002360:	2b01      	cmp	r3, #1
 8002362:	d009      	beq.n	8002378 <HAL_HCD_Stop+0x20>
 8002364:	2301      	movs	r3, #1
 8002366:	f880 32f8 	strb.w	r3, [r0, #760]	; 0x2f8
 800236a:	6800      	ldr	r0, [r0, #0]
 800236c:	f001 ffa5 	bl	80042ba <USB_StopHost>
 8002370:	2000      	movs	r0, #0
 8002372:	f884 02f8 	strb.w	r0, [r4, #760]	; 0x2f8
 8002376:	bd10      	pop	{r4, pc}
 8002378:	2002      	movs	r0, #2
 800237a:	e7fc      	b.n	8002376 <HAL_HCD_Stop+0x1e>

0800237c <HAL_HCD_ResetPort>:
 800237c:	6800      	ldr	r0, [r0, #0]
 800237e:	f001 bda4 	b.w	8003eca <USB_ResetPort>

08002382 <HAL_HCD_HC_GetURBState>:
 8002382:	232c      	movs	r3, #44	; 0x2c
 8002384:	fb03 0001 	mla	r0, r3, r1, r0
 8002388:	f890 0060 	ldrb.w	r0, [r0, #96]	; 0x60
 800238c:	4770      	bx	lr

0800238e <HAL_HCD_HC_GetXferCount>:
 800238e:	232c      	movs	r3, #44	; 0x2c
 8002390:	fb03 0001 	mla	r0, r3, r1, r0
 8002394:	6d00      	ldr	r0, [r0, #80]	; 0x50
 8002396:	4770      	bx	lr

08002398 <HAL_HCD_GetCurrentFrame>:
 8002398:	6800      	ldr	r0, [r0, #0]
 800239a:	f001 bddf 	b.w	8003f5c <USB_GetCurrentFrame>

0800239e <HAL_HCD_GetCurrentSpeed>:
 800239e:	6800      	ldr	r0, [r0, #0]
 80023a0:	f001 bdd1 	b.w	8003f46 <USB_GetHostSpeed>

080023a4 <HAL_PWR_PVDCallback>:
 80023a4:	4770      	bx	lr
	...

080023a8 <HAL_PWR_PVD_IRQHandler>:
 80023a8:	b510      	push	{r4, lr}
 80023aa:	4c05      	ldr	r4, [pc, #20]	; (80023c0 <HAL_PWR_PVD_IRQHandler+0x18>)
 80023ac:	6963      	ldr	r3, [r4, #20]
 80023ae:	03db      	lsls	r3, r3, #15
 80023b0:	d504      	bpl.n	80023bc <HAL_PWR_PVD_IRQHandler+0x14>
 80023b2:	f7ff fff7 	bl	80023a4 <HAL_PWR_PVDCallback>
 80023b6:	f44f 3380 	mov.w	r3, #65536	; 0x10000
 80023ba:	6163      	str	r3, [r4, #20]
 80023bc:	bd10      	pop	{r4, pc}
 80023be:	bf00      	nop
 80023c0:	40013c00 	.word	0x40013c00

080023c4 <HAL_PWREx_EnableOverDrive>:
 80023c4:	4b19      	ldr	r3, [pc, #100]	; (800242c <HAL_PWREx_EnableOverDrive+0x68>)
 80023c6:	b537      	push	{r0, r1, r2, r4, r5, lr}
 80023c8:	6c1a      	ldr	r2, [r3, #64]	; 0x40
 80023ca:	4c19      	ldr	r4, [pc, #100]	; (8002430 <HAL_PWREx_EnableOverDrive+0x6c>)
 80023cc:	f042 5280 	orr.w	r2, r2, #268435456	; 0x10000000
 80023d0:	641a      	str	r2, [r3, #64]	; 0x40
 80023d2:	6c1b      	ldr	r3, [r3, #64]	; 0x40
 80023d4:	f003 5380 	and.w	r3, r3, #268435456	; 0x10000000
 80023d8:	9301      	str	r3, [sp, #4]
 80023da:	9b01      	ldr	r3, [sp, #4]
 80023dc:	6823      	ldr	r3, [r4, #0]
 80023de:	f443 3380 	orr.w	r3, r3, #65536	; 0x10000
 80023e2:	6023      	str	r3, [r4, #0]
 80023e4:	f7ff f800 	bl	80013e8 <HAL_GetTick>
 80023e8:	4605      	mov	r5, r0
 80023ea:	6863      	ldr	r3, [r4, #4]
 80023ec:	03da      	lsls	r2, r3, #15
 80023ee:	d50c      	bpl.n	800240a <HAL_PWREx_EnableOverDrive+0x46>
 80023f0:	6823      	ldr	r3, [r4, #0]
 80023f2:	4d0f      	ldr	r5, [pc, #60]	; (8002430 <HAL_PWREx_EnableOverDrive+0x6c>)
 80023f4:	f443 3300 	orr.w	r3, r3, #131072	; 0x20000
 80023f8:	6023      	str	r3, [r4, #0]
 80023fa:	f7fe fff5 	bl	80013e8 <HAL_GetTick>
 80023fe:	4604      	mov	r4, r0
 8002400:	686b      	ldr	r3, [r5, #4]
 8002402:	039b      	lsls	r3, r3, #14
 8002404:	d50a      	bpl.n	800241c <HAL_PWREx_EnableOverDrive+0x58>
 8002406:	2000      	movs	r0, #0
 8002408:	e006      	b.n	8002418 <HAL_PWREx_EnableOverDrive+0x54>
 800240a:	f7fe ffed 	bl	80013e8 <HAL_GetTick>
 800240e:	1b40      	subs	r0, r0, r5
 8002410:	f5b0 7f7a 	cmp.w	r0, #1000	; 0x3e8
 8002414:	d9e9      	bls.n	80023ea <HAL_PWREx_EnableOverDrive+0x26>
 8002416:	2003      	movs	r0, #3
 8002418:	b003      	add	sp, #12
 800241a:	bd30      	pop	{r4, r5, pc}
 800241c:	f7fe ffe4 	bl	80013e8 <HAL_GetTick>
 8002420:	1b00      	subs	r0, r0, r4
 8002422:	f5b0 7f7a 	cmp.w	r0, #1000	; 0x3e8
 8002426:	d9eb      	bls.n	8002400 <HAL_PWREx_EnableOverDrive+0x3c>
 8002428:	e7f5      	b.n	8002416 <HAL_PWREx_EnableOverDrive+0x52>
 800242a:	bf00      	nop
 800242c:	40023800 	.word	0x40023800
 8002430:	40007000 	.word	0x40007000

08002434 <HAL_RCC_OscConfig>:
 8002434:	e92d 41f3 	stmdb	sp!, {r0, r1, r4, r5, r6, r7, r8, lr}
 8002438:	4604      	mov	r4, r0
 800243a:	b340      	cbz	r0, 800248e <HAL_RCC_OscConfig+0x5a>
 800243c:	6803      	ldr	r3, [r0, #0]
 800243e:	07d8      	lsls	r0, r3, #31
 8002440:	d410      	bmi.n	8002464 <HAL_RCC_OscConfig+0x30>
 8002442:	6823      	ldr	r3, [r4, #0]
 8002444:	0799      	lsls	r1, r3, #30
 8002446:	d466      	bmi.n	8002516 <HAL_RCC_OscConfig+0xe2>
 8002448:	6823      	ldr	r3, [r4, #0]
 800244a:	0719      	lsls	r1, r3, #28
 800244c:	f100 80ac 	bmi.w	80025a8 <HAL_RCC_OscConfig+0x174>
 8002450:	6823      	ldr	r3, [r4, #0]
 8002452:	075a      	lsls	r2, r3, #29
 8002454:	f100 80cd 	bmi.w	80025f2 <HAL_RCC_OscConfig+0x1be>
 8002458:	69a2      	ldr	r2, [r4, #24]
 800245a:	2a00      	cmp	r2, #0
 800245c:	f040 8136 	bne.w	80026cc <HAL_RCC_OscConfig+0x298>
 8002460:	2000      	movs	r0, #0
 8002462:	e02c      	b.n	80024be <HAL_RCC_OscConfig+0x8a>
 8002464:	4b97      	ldr	r3, [pc, #604]	; (80026c4 <HAL_RCC_OscConfig+0x290>)
 8002466:	689a      	ldr	r2, [r3, #8]
 8002468:	f002 020c 	and.w	r2, r2, #12
 800246c:	2a04      	cmp	r2, #4
 800246e:	d007      	beq.n	8002480 <HAL_RCC_OscConfig+0x4c>
 8002470:	689a      	ldr	r2, [r3, #8]
 8002472:	f002 020c 	and.w	r2, r2, #12
 8002476:	2a08      	cmp	r2, #8
 8002478:	d10b      	bne.n	8002492 <HAL_RCC_OscConfig+0x5e>
 800247a:	685a      	ldr	r2, [r3, #4]
 800247c:	0252      	lsls	r2, r2, #9
 800247e:	d508      	bpl.n	8002492 <HAL_RCC_OscConfig+0x5e>
 8002480:	4b90      	ldr	r3, [pc, #576]	; (80026c4 <HAL_RCC_OscConfig+0x290>)
 8002482:	681b      	ldr	r3, [r3, #0]
 8002484:	039b      	lsls	r3, r3, #14
 8002486:	d5dc      	bpl.n	8002442 <HAL_RCC_OscConfig+0xe>
 8002488:	6863      	ldr	r3, [r4, #4]
 800248a:	2b00      	cmp	r3, #0
 800248c:	d1d9      	bne.n	8002442 <HAL_RCC_OscConfig+0xe>
 800248e:	2001      	movs	r0, #1
 8002490:	e015      	b.n	80024be <HAL_RCC_OscConfig+0x8a>
 8002492:	6862      	ldr	r2, [r4, #4]
 8002494:	f5b2 3f80 	cmp.w	r2, #65536	; 0x10000
 8002498:	d114      	bne.n	80024c4 <HAL_RCC_OscConfig+0x90>
 800249a:	681a      	ldr	r2, [r3, #0]
 800249c:	f442 3280 	orr.w	r2, r2, #65536	; 0x10000
 80024a0:	601a      	str	r2, [r3, #0]
 80024a2:	f7fe ffa1 	bl	80013e8 <HAL_GetTick>
 80024a6:	4e87      	ldr	r6, [pc, #540]	; (80026c4 <HAL_RCC_OscConfig+0x290>)
 80024a8:	4605      	mov	r5, r0
 80024aa:	6833      	ldr	r3, [r6, #0]
 80024ac:	039f      	lsls	r7, r3, #14
 80024ae:	d4c8      	bmi.n	8002442 <HAL_RCC_OscConfig+0xe>
 80024b0:	f7fe ff9a 	bl	80013e8 <HAL_GetTick>
 80024b4:	1b40      	subs	r0, r0, r5
 80024b6:	f5b0 7f7a 	cmp.w	r0, #1000	; 0x3e8
 80024ba:	d9f6      	bls.n	80024aa <HAL_RCC_OscConfig+0x76>
 80024bc:	2003      	movs	r0, #3
 80024be:	b002      	add	sp, #8
 80024c0:	e8bd 81f0 	ldmia.w	sp!, {r4, r5, r6, r7, r8, pc}
 80024c4:	4d7f      	ldr	r5, [pc, #508]	; (80026c4 <HAL_RCC_OscConfig+0x290>)
 80024c6:	682b      	ldr	r3, [r5, #0]
 80024c8:	b99a      	cbnz	r2, 80024f2 <HAL_RCC_OscConfig+0xbe>
 80024ca:	f423 3380 	bic.w	r3, r3, #65536	; 0x10000
 80024ce:	602b      	str	r3, [r5, #0]
 80024d0:	682b      	ldr	r3, [r5, #0]
 80024d2:	f423 2380 	bic.w	r3, r3, #262144	; 0x40000
 80024d6:	602b      	str	r3, [r5, #0]
 80024d8:	f7fe ff86 	bl	80013e8 <HAL_GetTick>
 80024dc:	4606      	mov	r6, r0
 80024de:	682b      	ldr	r3, [r5, #0]
 80024e0:	0398      	lsls	r0, r3, #14
 80024e2:	d5ae      	bpl.n	8002442 <HAL_RCC_OscConfig+0xe>
 80024e4:	f7fe ff80 	bl	80013e8 <HAL_GetTick>
 80024e8:	1b80      	subs	r0, r0, r6
 80024ea:	f5b0 7f7a 	cmp.w	r0, #1000	; 0x3e8
 80024ee:	d9f6      	bls.n	80024de <HAL_RCC_OscConfig+0xaa>
 80024f0:	e7e4      	b.n	80024bc <HAL_RCC_OscConfig+0x88>
 80024f2:	f5b2 2fa0 	cmp.w	r2, #327680	; 0x50000
 80024f6:	d107      	bne.n	8002508 <HAL_RCC_OscConfig+0xd4>
 80024f8:	f443 2380 	orr.w	r3, r3, #262144	; 0x40000
 80024fc:	602b      	str	r3, [r5, #0]
 80024fe:	682b      	ldr	r3, [r5, #0]
 8002500:	f443 3380 	orr.w	r3, r3, #65536	; 0x10000
 8002504:	602b      	str	r3, [r5, #0]
 8002506:	e7cc      	b.n	80024a2 <HAL_RCC_OscConfig+0x6e>
 8002508:	f423 3380 	bic.w	r3, r3, #65536	; 0x10000
 800250c:	602b      	str	r3, [r5, #0]
 800250e:	682b      	ldr	r3, [r5, #0]
 8002510:	f423 2380 	bic.w	r3, r3, #262144	; 0x40000
 8002514:	e7f6      	b.n	8002504 <HAL_RCC_OscConfig+0xd0>
 8002516:	4b6b      	ldr	r3, [pc, #428]	; (80026c4 <HAL_RCC_OscConfig+0x290>)
 8002518:	689a      	ldr	r2, [r3, #8]
 800251a:	f012 0f0c 	tst.w	r2, #12
 800251e:	d007      	beq.n	8002530 <HAL_RCC_OscConfig+0xfc>
 8002520:	689a      	ldr	r2, [r3, #8]
 8002522:	f002 020c 	and.w	r2, r2, #12
 8002526:	2a08      	cmp	r2, #8
 8002528:	d111      	bne.n	800254e <HAL_RCC_OscConfig+0x11a>
 800252a:	685a      	ldr	r2, [r3, #4]
 800252c:	0251      	lsls	r1, r2, #9
 800252e:	d40e      	bmi.n	800254e <HAL_RCC_OscConfig+0x11a>
 8002530:	4b64      	ldr	r3, [pc, #400]	; (80026c4 <HAL_RCC_OscConfig+0x290>)
 8002532:	681a      	ldr	r2, [r3, #0]
 8002534:	0792      	lsls	r2, r2, #30
 8002536:	d502      	bpl.n	800253e <HAL_RCC_OscConfig+0x10a>
 8002538:	68e2      	ldr	r2, [r4, #12]
 800253a:	2a01      	cmp	r2, #1
 800253c:	d1a7      	bne.n	800248e <HAL_RCC_OscConfig+0x5a>
 800253e:	681a      	ldr	r2, [r3, #0]
 8002540:	6921      	ldr	r1, [r4, #16]
 8002542:	f022 02f8 	bic.w	r2, r2, #248	; 0xf8
 8002546:	ea42 02c1 	orr.w	r2, r2, r1, lsl #3
 800254a:	601a      	str	r2, [r3, #0]
 800254c:	e77c      	b.n	8002448 <HAL_RCC_OscConfig+0x14>
 800254e:	68e2      	ldr	r2, [r4, #12]
 8002550:	b1c2      	cbz	r2, 8002584 <HAL_RCC_OscConfig+0x150>
 8002552:	681a      	ldr	r2, [r3, #0]
 8002554:	4d5b      	ldr	r5, [pc, #364]	; (80026c4 <HAL_RCC_OscConfig+0x290>)
 8002556:	f042 0201 	orr.w	r2, r2, #1
 800255a:	601a      	str	r2, [r3, #0]
 800255c:	f7fe ff44 	bl	80013e8 <HAL_GetTick>
 8002560:	4606      	mov	r6, r0
 8002562:	682b      	ldr	r3, [r5, #0]
 8002564:	079f      	lsls	r7, r3, #30
 8002566:	d507      	bpl.n	8002578 <HAL_RCC_OscConfig+0x144>
 8002568:	682b      	ldr	r3, [r5, #0]
 800256a:	6922      	ldr	r2, [r4, #16]
 800256c:	f023 03f8 	bic.w	r3, r3, #248	; 0xf8
 8002570:	ea43 03c2 	orr.w	r3, r3, r2, lsl #3
 8002574:	602b      	str	r3, [r5, #0]
 8002576:	e767      	b.n	8002448 <HAL_RCC_OscConfig+0x14>
 8002578:	f7fe ff36 	bl	80013e8 <HAL_GetTick>
 800257c:	1b80      	subs	r0, r0, r6
 800257e:	2802      	cmp	r0, #2
 8002580:	d9ef      	bls.n	8002562 <HAL_RCC_OscConfig+0x12e>
 8002582:	e79b      	b.n	80024bc <HAL_RCC_OscConfig+0x88>
 8002584:	681a      	ldr	r2, [r3, #0]
 8002586:	4e4f      	ldr	r6, [pc, #316]	; (80026c4 <HAL_RCC_OscConfig+0x290>)
 8002588:	f022 0201 	bic.w	r2, r2, #1
 800258c:	601a      	str	r2, [r3, #0]
 800258e:	f7fe ff2b 	bl	80013e8 <HAL_GetTick>
 8002592:	4605      	mov	r5, r0
 8002594:	6833      	ldr	r3, [r6, #0]
 8002596:	0798      	lsls	r0, r3, #30
 8002598:	f57f af56 	bpl.w	8002448 <HAL_RCC_OscConfig+0x14>
 800259c:	f7fe ff24 	bl	80013e8 <HAL_GetTick>
 80025a0:	1b40      	subs	r0, r0, r5
 80025a2:	2802      	cmp	r0, #2
 80025a4:	d9f6      	bls.n	8002594 <HAL_RCC_OscConfig+0x160>
 80025a6:	e789      	b.n	80024bc <HAL_RCC_OscConfig+0x88>
 80025a8:	6963      	ldr	r3, [r4, #20]
 80025aa:	4d46      	ldr	r5, [pc, #280]	; (80026c4 <HAL_RCC_OscConfig+0x290>)
 80025ac:	b183      	cbz	r3, 80025d0 <HAL_RCC_OscConfig+0x19c>
 80025ae:	6f6b      	ldr	r3, [r5, #116]	; 0x74
 80025b0:	f043 0301 	orr.w	r3, r3, #1
 80025b4:	676b      	str	r3, [r5, #116]	; 0x74
 80025b6:	f7fe ff17 	bl	80013e8 <HAL_GetTick>
 80025ba:	4606      	mov	r6, r0
 80025bc:	6f6b      	ldr	r3, [r5, #116]	; 0x74
 80025be:	079b      	lsls	r3, r3, #30
 80025c0:	f53f af46 	bmi.w	8002450 <HAL_RCC_OscConfig+0x1c>
 80025c4:	f7fe ff10 	bl	80013e8 <HAL_GetTick>
 80025c8:	1b80      	subs	r0, r0, r6
 80025ca:	2802      	cmp	r0, #2
 80025cc:	d9f6      	bls.n	80025bc <HAL_RCC_OscConfig+0x188>
 80025ce:	e775      	b.n	80024bc <HAL_RCC_OscConfig+0x88>
 80025d0:	6f6b      	ldr	r3, [r5, #116]	; 0x74
 80025d2:	f023 0301 	bic.w	r3, r3, #1
 80025d6:	676b      	str	r3, [r5, #116]	; 0x74
 80025d8:	f7fe ff06 	bl	80013e8 <HAL_GetTick>
 80025dc:	4606      	mov	r6, r0
 80025de:	6f6b      	ldr	r3, [r5, #116]	; 0x74
 80025e0:	079f      	lsls	r7, r3, #30
 80025e2:	f57f af35 	bpl.w	8002450 <HAL_RCC_OscConfig+0x1c>
 80025e6:	f7fe feff 	bl	80013e8 <HAL_GetTick>
 80025ea:	1b80      	subs	r0, r0, r6
 80025ec:	2802      	cmp	r0, #2
 80025ee:	d9f6      	bls.n	80025de <HAL_RCC_OscConfig+0x1aa>
 80025f0:	e764      	b.n	80024bc <HAL_RCC_OscConfig+0x88>
 80025f2:	4b34      	ldr	r3, [pc, #208]	; (80026c4 <HAL_RCC_OscConfig+0x290>)
 80025f4:	6c1a      	ldr	r2, [r3, #64]	; 0x40
 80025f6:	00d0      	lsls	r0, r2, #3
 80025f8:	d427      	bmi.n	800264a <HAL_RCC_OscConfig+0x216>
 80025fa:	6c1a      	ldr	r2, [r3, #64]	; 0x40
 80025fc:	2701      	movs	r7, #1
 80025fe:	f042 5280 	orr.w	r2, r2, #268435456	; 0x10000000
 8002602:	641a      	str	r2, [r3, #64]	; 0x40
 8002604:	6c1b      	ldr	r3, [r3, #64]	; 0x40
 8002606:	f003 5380 	and.w	r3, r3, #268435456	; 0x10000000
 800260a:	9301      	str	r3, [sp, #4]
 800260c:	9b01      	ldr	r3, [sp, #4]
 800260e:	4d2e      	ldr	r5, [pc, #184]	; (80026c8 <HAL_RCC_OscConfig+0x294>)
 8002610:	682b      	ldr	r3, [r5, #0]
 8002612:	05d9      	lsls	r1, r3, #23
 8002614:	d51b      	bpl.n	800264e <HAL_RCC_OscConfig+0x21a>
 8002616:	68a3      	ldr	r3, [r4, #8]
 8002618:	4d2a      	ldr	r5, [pc, #168]	; (80026c4 <HAL_RCC_OscConfig+0x290>)
 800261a:	2b01      	cmp	r3, #1
 800261c:	d127      	bne.n	800266e <HAL_RCC_OscConfig+0x23a>
 800261e:	6f2b      	ldr	r3, [r5, #112]	; 0x70
 8002620:	f043 0301 	orr.w	r3, r3, #1
 8002624:	672b      	str	r3, [r5, #112]	; 0x70
 8002626:	f241 3888 	movw	r8, #5000	; 0x1388
 800262a:	f7fe fedd 	bl	80013e8 <HAL_GetTick>
 800262e:	4e25      	ldr	r6, [pc, #148]	; (80026c4 <HAL_RCC_OscConfig+0x290>)
 8002630:	4605      	mov	r5, r0
 8002632:	6f33      	ldr	r3, [r6, #112]	; 0x70
 8002634:	079b      	lsls	r3, r3, #30
 8002636:	d53f      	bpl.n	80026b8 <HAL_RCC_OscConfig+0x284>
 8002638:	2f00      	cmp	r7, #0
 800263a:	f43f af0d 	beq.w	8002458 <HAL_RCC_OscConfig+0x24>
 800263e:	4a21      	ldr	r2, [pc, #132]	; (80026c4 <HAL_RCC_OscConfig+0x290>)
 8002640:	6c13      	ldr	r3, [r2, #64]	; 0x40
 8002642:	f023 5380 	bic.w	r3, r3, #268435456	; 0x10000000
 8002646:	6413      	str	r3, [r2, #64]	; 0x40
 8002648:	e706      	b.n	8002458 <HAL_RCC_OscConfig+0x24>
 800264a:	2700      	movs	r7, #0
 800264c:	e7df      	b.n	800260e <HAL_RCC_OscConfig+0x1da>
 800264e:	682b      	ldr	r3, [r5, #0]
 8002650:	f443 7380 	orr.w	r3, r3, #256	; 0x100
 8002654:	602b      	str	r3, [r5, #0]
 8002656:	f7fe fec7 	bl	80013e8 <HAL_GetTick>
 800265a:	4606      	mov	r6, r0
 800265c:	682b      	ldr	r3, [r5, #0]
 800265e:	05da      	lsls	r2, r3, #23
 8002660:	d4d9      	bmi.n	8002616 <HAL_RCC_OscConfig+0x1e2>
 8002662:	f7fe fec1 	bl	80013e8 <HAL_GetTick>
 8002666:	1b80      	subs	r0, r0, r6
 8002668:	2864      	cmp	r0, #100	; 0x64
 800266a:	d9f7      	bls.n	800265c <HAL_RCC_OscConfig+0x228>
 800266c:	e726      	b.n	80024bc <HAL_RCC_OscConfig+0x88>
 800266e:	b9ab      	cbnz	r3, 800269c <HAL_RCC_OscConfig+0x268>
 8002670:	6f2b      	ldr	r3, [r5, #112]	; 0x70
 8002672:	f241 3888 	movw	r8, #5000	; 0x1388
 8002676:	f023 0301 	bic.w	r3, r3, #1
 800267a:	672b      	str	r3, [r5, #112]	; 0x70
 800267c:	6f2b      	ldr	r3, [r5, #112]	; 0x70
 800267e:	f023 0304 	bic.w	r3, r3, #4
 8002682:	672b      	str	r3, [r5, #112]	; 0x70
 8002684:	f7fe feb0 	bl	80013e8 <HAL_GetTick>
 8002688:	4606      	mov	r6, r0
 800268a:	6f2b      	ldr	r3, [r5, #112]	; 0x70
 800268c:	0798      	lsls	r0, r3, #30
 800268e:	d5d3      	bpl.n	8002638 <HAL_RCC_OscConfig+0x204>
 8002690:	f7fe feaa 	bl	80013e8 <HAL_GetTick>
 8002694:	1b80      	subs	r0, r0, r6
 8002696:	4540      	cmp	r0, r8
 8002698:	d9f7      	bls.n	800268a <HAL_RCC_OscConfig+0x256>
 800269a:	e70f      	b.n	80024bc <HAL_RCC_OscConfig+0x88>
 800269c:	2b05      	cmp	r3, #5
 800269e:	6f2b      	ldr	r3, [r5, #112]	; 0x70
 80026a0:	d103      	bne.n	80026aa <HAL_RCC_OscConfig+0x276>
 80026a2:	f043 0304 	orr.w	r3, r3, #4
 80026a6:	672b      	str	r3, [r5, #112]	; 0x70
 80026a8:	e7b9      	b.n	800261e <HAL_RCC_OscConfig+0x1ea>
 80026aa:	f023 0301 	bic.w	r3, r3, #1
 80026ae:	672b      	str	r3, [r5, #112]	; 0x70
 80026b0:	6f2b      	ldr	r3, [r5, #112]	; 0x70
 80026b2:	f023 0304 	bic.w	r3, r3, #4
 80026b6:	e7b5      	b.n	8002624 <HAL_RCC_OscConfig+0x1f0>
 80026b8:	f7fe fe96 	bl	80013e8 <HAL_GetTick>
 80026bc:	1b40      	subs	r0, r0, r5
 80026be:	4540      	cmp	r0, r8
 80026c0:	d9b7      	bls.n	8002632 <HAL_RCC_OscConfig+0x1fe>
 80026c2:	e6fb      	b.n	80024bc <HAL_RCC_OscConfig+0x88>
 80026c4:	40023800 	.word	0x40023800
 80026c8:	40007000 	.word	0x40007000
 80026cc:	4d38      	ldr	r5, [pc, #224]	; (80027b0 <HAL_RCC_OscConfig+0x37c>)
 80026ce:	68ab      	ldr	r3, [r5, #8]
 80026d0:	f003 030c 	and.w	r3, r3, #12
 80026d4:	2b08      	cmp	r3, #8
 80026d6:	d041      	beq.n	800275c <HAL_RCC_OscConfig+0x328>
 80026d8:	682b      	ldr	r3, [r5, #0]
 80026da:	2a02      	cmp	r2, #2
 80026dc:	f023 7380 	bic.w	r3, r3, #16777216	; 0x1000000
 80026e0:	602b      	str	r3, [r5, #0]
 80026e2:	d12e      	bne.n	8002742 <HAL_RCC_OscConfig+0x30e>
 80026e4:	f7fe fe80 	bl	80013e8 <HAL_GetTick>
 80026e8:	4606      	mov	r6, r0
 80026ea:	682b      	ldr	r3, [r5, #0]
 80026ec:	0199      	lsls	r1, r3, #6
 80026ee:	d422      	bmi.n	8002736 <HAL_RCC_OscConfig+0x302>
 80026f0:	6aa3      	ldr	r3, [r4, #40]	; 0x28
 80026f2:	085b      	lsrs	r3, r3, #1
 80026f4:	1e5a      	subs	r2, r3, #1
 80026f6:	e9d4 3107 	ldrd	r3, r1, [r4, #28]
 80026fa:	430b      	orrs	r3, r1
 80026fc:	ea43 4302 	orr.w	r3, r3, r2, lsl #16
 8002700:	6a62      	ldr	r2, [r4, #36]	; 0x24
 8002702:	ea43 1382 	orr.w	r3, r3, r2, lsl #6
 8002706:	6ae2      	ldr	r2, [r4, #44]	; 0x2c
 8002708:	ea43 6302 	orr.w	r3, r3, r2, lsl #24
 800270c:	f043 5300 	orr.w	r3, r3, #536870912	; 0x20000000
 8002710:	606b      	str	r3, [r5, #4]
 8002712:	682b      	ldr	r3, [r5, #0]
 8002714:	f043 7380 	orr.w	r3, r3, #16777216	; 0x1000000
 8002718:	602b      	str	r3, [r5, #0]
 800271a:	f7fe fe65 	bl	80013e8 <HAL_GetTick>
 800271e:	4d24      	ldr	r5, [pc, #144]	; (80027b0 <HAL_RCC_OscConfig+0x37c>)
 8002720:	4604      	mov	r4, r0
 8002722:	682b      	ldr	r3, [r5, #0]
 8002724:	019a      	lsls	r2, r3, #6
 8002726:	f53f ae9b 	bmi.w	8002460 <HAL_RCC_OscConfig+0x2c>
 800272a:	f7fe fe5d 	bl	80013e8 <HAL_GetTick>
 800272e:	1b00      	subs	r0, r0, r4
 8002730:	2802      	cmp	r0, #2
 8002732:	d9f6      	bls.n	8002722 <HAL_RCC_OscConfig+0x2ee>
 8002734:	e6c2      	b.n	80024bc <HAL_RCC_OscConfig+0x88>
 8002736:	f7fe fe57 	bl	80013e8 <HAL_GetTick>
 800273a:	1b80      	subs	r0, r0, r6
 800273c:	2802      	cmp	r0, #2
 800273e:	d9d4      	bls.n	80026ea <HAL_RCC_OscConfig+0x2b6>
 8002740:	e6bc      	b.n	80024bc <HAL_RCC_OscConfig+0x88>
 8002742:	f7fe fe51 	bl	80013e8 <HAL_GetTick>
 8002746:	4604      	mov	r4, r0
 8002748:	682b      	ldr	r3, [r5, #0]
 800274a:	019b      	lsls	r3, r3, #6
 800274c:	f57f ae88 	bpl.w	8002460 <HAL_RCC_OscConfig+0x2c>
 8002750:	f7fe fe4a 	bl	80013e8 <HAL_GetTick>
 8002754:	1b00      	subs	r0, r0, r4
 8002756:	2802      	cmp	r0, #2
 8002758:	d9f6      	bls.n	8002748 <HAL_RCC_OscConfig+0x314>
 800275a:	e6af      	b.n	80024bc <HAL_RCC_OscConfig+0x88>
 800275c:	2a01      	cmp	r2, #1
 800275e:	686b      	ldr	r3, [r5, #4]
 8002760:	f43f ae95 	beq.w	800248e <HAL_RCC_OscConfig+0x5a>
 8002764:	f403 0280 	and.w	r2, r3, #4194304	; 0x400000
 8002768:	69e1      	ldr	r1, [r4, #28]
 800276a:	428a      	cmp	r2, r1
 800276c:	f47f ae8f 	bne.w	800248e <HAL_RCC_OscConfig+0x5a>
 8002770:	f003 023f 	and.w	r2, r3, #63	; 0x3f
 8002774:	6a21      	ldr	r1, [r4, #32]
 8002776:	428a      	cmp	r2, r1
 8002778:	f47f ae89 	bne.w	800248e <HAL_RCC_OscConfig+0x5a>
 800277c:	f647 72c0 	movw	r2, #32704	; 0x7fc0
 8002780:	6a61      	ldr	r1, [r4, #36]	; 0x24
 8002782:	401a      	ands	r2, r3
 8002784:	ebb2 1f81 	cmp.w	r2, r1, lsl #6
 8002788:	f47f ae81 	bne.w	800248e <HAL_RCC_OscConfig+0x5a>
 800278c:	6aa2      	ldr	r2, [r4, #40]	; 0x28
 800278e:	f403 3140 	and.w	r1, r3, #196608	; 0x30000
 8002792:	0852      	lsrs	r2, r2, #1
 8002794:	3a01      	subs	r2, #1
 8002796:	ebb1 4f02 	cmp.w	r1, r2, lsl #16
 800279a:	f47f ae78 	bne.w	800248e <HAL_RCC_OscConfig+0x5a>
 800279e:	f003 6370 	and.w	r3, r3, #251658240	; 0xf000000
 80027a2:	6ae2      	ldr	r2, [r4, #44]	; 0x2c
 80027a4:	ebb3 6f02 	cmp.w	r3, r2, lsl #24
 80027a8:	f43f ae5a 	beq.w	8002460 <HAL_RCC_OscConfig+0x2c>
 80027ac:	e66f      	b.n	800248e <HAL_RCC_OscConfig+0x5a>
 80027ae:	bf00      	nop
 80027b0:	40023800 	.word	0x40023800

080027b4 <HAL_RCC_EnableCSS>:
 80027b4:	4a02      	ldr	r2, [pc, #8]	; (80027c0 <HAL_RCC_EnableCSS+0xc>)
 80027b6:	6813      	ldr	r3, [r2, #0]
 80027b8:	f443 2300 	orr.w	r3, r3, #524288	; 0x80000
 80027bc:	6013      	str	r3, [r2, #0]
 80027be:	4770      	bx	lr
 80027c0:	40023800 	.word	0x40023800

080027c4 <HAL_RCC_GetSysClockFreq>:
 80027c4:	4913      	ldr	r1, [pc, #76]	; (8002814 <HAL_RCC_GetSysClockFreq+0x50>)
 80027c6:	b508      	push	{r3, lr}
 80027c8:	688b      	ldr	r3, [r1, #8]
 80027ca:	f003 030c 	and.w	r3, r3, #12
 80027ce:	2b04      	cmp	r3, #4
 80027d0:	d01b      	beq.n	800280a <HAL_RCC_GetSysClockFreq+0x46>
 80027d2:	2b08      	cmp	r3, #8
 80027d4:	d11b      	bne.n	800280e <HAL_RCC_GetSysClockFreq+0x4a>
 80027d6:	684a      	ldr	r2, [r1, #4]
 80027d8:	684b      	ldr	r3, [r1, #4]
 80027da:	6849      	ldr	r1, [r1, #4]
 80027dc:	f002 023f 	and.w	r2, r2, #63	; 0x3f
 80027e0:	f413 0380 	ands.w	r3, r3, #4194304	; 0x400000
 80027e4:	f3c1 1188 	ubfx	r1, r1, #6, #9
 80027e8:	bf1a      	itte	ne
 80027ea:	480b      	ldrne	r0, [pc, #44]	; (8002818 <HAL_RCC_GetSysClockFreq+0x54>)
 80027ec:	2300      	movne	r3, #0
 80027ee:	480b      	ldreq	r0, [pc, #44]	; (800281c <HAL_RCC_GetSysClockFreq+0x58>)
 80027f0:	fba1 0100 	umull	r0, r1, r1, r0
 80027f4:	f7fd fd14 	bl	8000220 <__aeabi_uldivmod>
 80027f8:	4b06      	ldr	r3, [pc, #24]	; (8002814 <HAL_RCC_GetSysClockFreq+0x50>)
 80027fa:	685b      	ldr	r3, [r3, #4]
 80027fc:	f3c3 4301 	ubfx	r3, r3, #16, #2
 8002800:	3301      	adds	r3, #1
 8002802:	005b      	lsls	r3, r3, #1
 8002804:	fbb0 f0f3 	udiv	r0, r0, r3
 8002808:	bd08      	pop	{r3, pc}
 800280a:	4803      	ldr	r0, [pc, #12]	; (8002818 <HAL_RCC_GetSysClockFreq+0x54>)
 800280c:	e7fc      	b.n	8002808 <HAL_RCC_GetSysClockFreq+0x44>
 800280e:	4803      	ldr	r0, [pc, #12]	; (800281c <HAL_RCC_GetSysClockFreq+0x58>)
 8002810:	e7fa      	b.n	8002808 <HAL_RCC_GetSysClockFreq+0x44>
 8002812:	bf00      	nop
 8002814:	40023800 	.word	0x40023800
 8002818:	017d7840 	.word	0x017d7840
 800281c:	00f42400 	.word	0x00f42400

08002820 <HAL_RCC_ClockConfig>:
 8002820:	e92d 41f0 	stmdb	sp!, {r4, r5, r6, r7, r8, lr}
 8002824:	460d      	mov	r5, r1
 8002826:	4604      	mov	r4, r0
 8002828:	b910      	cbnz	r0, 8002830 <HAL_RCC_ClockConfig+0x10>
 800282a:	2001      	movs	r0, #1
 800282c:	e8bd 81f0 	ldmia.w	sp!, {r4, r5, r6, r7, r8, pc}
 8002830:	4a46      	ldr	r2, [pc, #280]	; (800294c <HAL_RCC_ClockConfig+0x12c>)
 8002832:	6813      	ldr	r3, [r2, #0]
 8002834:	f003 030f 	and.w	r3, r3, #15
 8002838:	428b      	cmp	r3, r1
 800283a:	d328      	bcc.n	800288e <HAL_RCC_ClockConfig+0x6e>
 800283c:	6822      	ldr	r2, [r4, #0]
 800283e:	0797      	lsls	r7, r2, #30
 8002840:	d430      	bmi.n	80028a4 <HAL_RCC_ClockConfig+0x84>
 8002842:	07d0      	lsls	r0, r2, #31
 8002844:	d444      	bmi.n	80028d0 <HAL_RCC_ClockConfig+0xb0>
 8002846:	4a41      	ldr	r2, [pc, #260]	; (800294c <HAL_RCC_ClockConfig+0x12c>)
 8002848:	6813      	ldr	r3, [r2, #0]
 800284a:	f003 030f 	and.w	r3, r3, #15
 800284e:	42ab      	cmp	r3, r5
 8002850:	d867      	bhi.n	8002922 <HAL_RCC_ClockConfig+0x102>
 8002852:	6822      	ldr	r2, [r4, #0]
 8002854:	0751      	lsls	r1, r2, #29
 8002856:	d470      	bmi.n	800293a <HAL_RCC_ClockConfig+0x11a>
 8002858:	0713      	lsls	r3, r2, #28
 800285a:	d507      	bpl.n	800286c <HAL_RCC_ClockConfig+0x4c>
 800285c:	4a3c      	ldr	r2, [pc, #240]	; (8002950 <HAL_RCC_ClockConfig+0x130>)
 800285e:	6921      	ldr	r1, [r4, #16]
 8002860:	6893      	ldr	r3, [r2, #8]
 8002862:	f423 4360 	bic.w	r3, r3, #57344	; 0xe000
 8002866:	ea43 03c1 	orr.w	r3, r3, r1, lsl #3
 800286a:	6093      	str	r3, [r2, #8]
 800286c:	f7ff ffaa 	bl	80027c4 <HAL_RCC_GetSysClockFreq>
 8002870:	4b37      	ldr	r3, [pc, #220]	; (8002950 <HAL_RCC_ClockConfig+0x130>)
 8002872:	4a38      	ldr	r2, [pc, #224]	; (8002954 <HAL_RCC_ClockConfig+0x134>)
 8002874:	689b      	ldr	r3, [r3, #8]
 8002876:	f3c3 1303 	ubfx	r3, r3, #4, #4
 800287a:	5cd3      	ldrb	r3, [r2, r3]
 800287c:	40d8      	lsrs	r0, r3
 800287e:	4b36      	ldr	r3, [pc, #216]	; (8002958 <HAL_RCC_ClockConfig+0x138>)
 8002880:	6018      	str	r0, [r3, #0]
 8002882:	4b36      	ldr	r3, [pc, #216]	; (800295c <HAL_RCC_ClockConfig+0x13c>)
 8002884:	6818      	ldr	r0, [r3, #0]
 8002886:	f7fe fa77 	bl	8000d78 <HAL_InitTick>
 800288a:	2000      	movs	r0, #0
 800288c:	e7ce      	b.n	800282c <HAL_RCC_ClockConfig+0xc>
 800288e:	6813      	ldr	r3, [r2, #0]
 8002890:	f023 030f 	bic.w	r3, r3, #15
 8002894:	430b      	orrs	r3, r1
 8002896:	6013      	str	r3, [r2, #0]
 8002898:	6813      	ldr	r3, [r2, #0]
 800289a:	f003 030f 	and.w	r3, r3, #15
 800289e:	428b      	cmp	r3, r1
 80028a0:	d1c3      	bne.n	800282a <HAL_RCC_ClockConfig+0xa>
 80028a2:	e7cb      	b.n	800283c <HAL_RCC_ClockConfig+0x1c>
 80028a4:	f012 0f04 	tst.w	r2, #4
 80028a8:	4b29      	ldr	r3, [pc, #164]	; (8002950 <HAL_RCC_ClockConfig+0x130>)
 80028aa:	d003      	beq.n	80028b4 <HAL_RCC_ClockConfig+0x94>
 80028ac:	6899      	ldr	r1, [r3, #8]
 80028ae:	f441 51e0 	orr.w	r1, r1, #7168	; 0x1c00
 80028b2:	6099      	str	r1, [r3, #8]
 80028b4:	0716      	lsls	r6, r2, #28
 80028b6:	d503      	bpl.n	80028c0 <HAL_RCC_ClockConfig+0xa0>
 80028b8:	6899      	ldr	r1, [r3, #8]
 80028ba:	f441 4160 	orr.w	r1, r1, #57344	; 0xe000
 80028be:	6099      	str	r1, [r3, #8]
 80028c0:	4923      	ldr	r1, [pc, #140]	; (8002950 <HAL_RCC_ClockConfig+0x130>)
 80028c2:	68a0      	ldr	r0, [r4, #8]
 80028c4:	688b      	ldr	r3, [r1, #8]
 80028c6:	f023 03f0 	bic.w	r3, r3, #240	; 0xf0
 80028ca:	4303      	orrs	r3, r0
 80028cc:	608b      	str	r3, [r1, #8]
 80028ce:	e7b8      	b.n	8002842 <HAL_RCC_ClockConfig+0x22>
 80028d0:	6861      	ldr	r1, [r4, #4]
 80028d2:	4b1f      	ldr	r3, [pc, #124]	; (8002950 <HAL_RCC_ClockConfig+0x130>)
 80028d4:	2901      	cmp	r1, #1
 80028d6:	681a      	ldr	r2, [r3, #0]
 80028d8:	d11b      	bne.n	8002912 <HAL_RCC_ClockConfig+0xf2>
 80028da:	f412 3f00 	tst.w	r2, #131072	; 0x20000
 80028de:	d0a4      	beq.n	800282a <HAL_RCC_ClockConfig+0xa>
 80028e0:	689a      	ldr	r2, [r3, #8]
 80028e2:	f241 3888 	movw	r8, #5000	; 0x1388
 80028e6:	4f1a      	ldr	r7, [pc, #104]	; (8002950 <HAL_RCC_ClockConfig+0x130>)
 80028e8:	f022 0203 	bic.w	r2, r2, #3
 80028ec:	430a      	orrs	r2, r1
 80028ee:	609a      	str	r2, [r3, #8]
 80028f0:	f7fe fd7a 	bl	80013e8 <HAL_GetTick>
 80028f4:	4606      	mov	r6, r0
 80028f6:	68bb      	ldr	r3, [r7, #8]
 80028f8:	6862      	ldr	r2, [r4, #4]
 80028fa:	f003 030c 	and.w	r3, r3, #12
 80028fe:	ebb3 0f82 	cmp.w	r3, r2, lsl #2
 8002902:	d0a0      	beq.n	8002846 <HAL_RCC_ClockConfig+0x26>
 8002904:	f7fe fd70 	bl	80013e8 <HAL_GetTick>
 8002908:	1b80      	subs	r0, r0, r6
 800290a:	4540      	cmp	r0, r8
 800290c:	d9f3      	bls.n	80028f6 <HAL_RCC_ClockConfig+0xd6>
 800290e:	2003      	movs	r0, #3
 8002910:	e78c      	b.n	800282c <HAL_RCC_ClockConfig+0xc>
 8002912:	2902      	cmp	r1, #2
 8002914:	d102      	bne.n	800291c <HAL_RCC_ClockConfig+0xfc>
 8002916:	f012 7f00 	tst.w	r2, #33554432	; 0x2000000
 800291a:	e7e0      	b.n	80028de <HAL_RCC_ClockConfig+0xbe>
 800291c:	f012 0f02 	tst.w	r2, #2
 8002920:	e7dd      	b.n	80028de <HAL_RCC_ClockConfig+0xbe>
 8002922:	6813      	ldr	r3, [r2, #0]
 8002924:	f023 030f 	bic.w	r3, r3, #15
 8002928:	432b      	orrs	r3, r5
 800292a:	6013      	str	r3, [r2, #0]
 800292c:	6813      	ldr	r3, [r2, #0]
 800292e:	f003 030f 	and.w	r3, r3, #15
 8002932:	42ab      	cmp	r3, r5
 8002934:	f47f af79 	bne.w	800282a <HAL_RCC_ClockConfig+0xa>
 8002938:	e78b      	b.n	8002852 <HAL_RCC_ClockConfig+0x32>
 800293a:	4905      	ldr	r1, [pc, #20]	; (8002950 <HAL_RCC_ClockConfig+0x130>)
 800293c:	68e0      	ldr	r0, [r4, #12]
 800293e:	688b      	ldr	r3, [r1, #8]
 8002940:	f423 53e0 	bic.w	r3, r3, #7168	; 0x1c00
 8002944:	4303      	orrs	r3, r0
 8002946:	608b      	str	r3, [r1, #8]
 8002948:	e786      	b.n	8002858 <HAL_RCC_ClockConfig+0x38>
 800294a:	bf00      	nop
 800294c:	40023c00 	.word	0x40023c00
 8002950:	40023800 	.word	0x40023800
 8002954:	0800751a 	.word	0x0800751a
 8002958:	20000004 	.word	0x20000004
 800295c:	2000000c 	.word	0x2000000c

08002960 <HAL_RCC_GetPCLK1Freq>:
 8002960:	4b04      	ldr	r3, [pc, #16]	; (8002974 <HAL_RCC_GetPCLK1Freq+0x14>)
 8002962:	4a05      	ldr	r2, [pc, #20]	; (8002978 <HAL_RCC_GetPCLK1Freq+0x18>)
 8002964:	689b      	ldr	r3, [r3, #8]
 8002966:	f3c3 2382 	ubfx	r3, r3, #10, #3
 800296a:	5cd3      	ldrb	r3, [r2, r3]
 800296c:	4a03      	ldr	r2, [pc, #12]	; (800297c <HAL_RCC_GetPCLK1Freq+0x1c>)
 800296e:	6810      	ldr	r0, [r2, #0]
 8002970:	40d8      	lsrs	r0, r3
 8002972:	4770      	bx	lr
 8002974:	40023800 	.word	0x40023800
 8002978:	0800752a 	.word	0x0800752a
 800297c:	20000004 	.word	0x20000004

08002980 <HAL_RCC_GetPCLK2Freq>:
 8002980:	4b04      	ldr	r3, [pc, #16]	; (8002994 <HAL_RCC_GetPCLK2Freq+0x14>)
 8002982:	4a05      	ldr	r2, [pc, #20]	; (8002998 <HAL_RCC_GetPCLK2Freq+0x18>)
 8002984:	689b      	ldr	r3, [r3, #8]
 8002986:	f3c3 3342 	ubfx	r3, r3, #13, #3
 800298a:	5cd3      	ldrb	r3, [r2, r3]
 800298c:	4a03      	ldr	r2, [pc, #12]	; (800299c <HAL_RCC_GetPCLK2Freq+0x1c>)
 800298e:	6810      	ldr	r0, [r2, #0]
 8002990:	40d8      	lsrs	r0, r3
 8002992:	4770      	bx	lr
 8002994:	40023800 	.word	0x40023800
 8002998:	0800752a 	.word	0x0800752a
 800299c:	20000004 	.word	0x20000004

080029a0 <HAL_RCC_GetClockConfig>:
 80029a0:	230f      	movs	r3, #15
 80029a2:	6003      	str	r3, [r0, #0]
 80029a4:	4b0b      	ldr	r3, [pc, #44]	; (80029d4 <HAL_RCC_GetClockConfig+0x34>)
 80029a6:	689a      	ldr	r2, [r3, #8]
 80029a8:	f002 0203 	and.w	r2, r2, #3
 80029ac:	6042      	str	r2, [r0, #4]
 80029ae:	689a      	ldr	r2, [r3, #8]
 80029b0:	f002 02f0 	and.w	r2, r2, #240	; 0xf0
 80029b4:	6082      	str	r2, [r0, #8]
 80029b6:	689a      	ldr	r2, [r3, #8]
 80029b8:	f402 52e0 	and.w	r2, r2, #7168	; 0x1c00
 80029bc:	60c2      	str	r2, [r0, #12]
 80029be:	689b      	ldr	r3, [r3, #8]
 80029c0:	08db      	lsrs	r3, r3, #3
 80029c2:	f403 53e0 	and.w	r3, r3, #7168	; 0x1c00
 80029c6:	6103      	str	r3, [r0, #16]
 80029c8:	4b03      	ldr	r3, [pc, #12]	; (80029d8 <HAL_RCC_GetClockConfig+0x38>)
 80029ca:	681b      	ldr	r3, [r3, #0]
 80029cc:	f003 030f 	and.w	r3, r3, #15
 80029d0:	600b      	str	r3, [r1, #0]
 80029d2:	4770      	bx	lr
 80029d4:	40023800 	.word	0x40023800
 80029d8:	40023c00 	.word	0x40023c00

080029dc <HAL_RCC_CSSCallback>:
 80029dc:	4770      	bx	lr
	...

080029e0 <HAL_RCC_NMI_IRQHandler>:
 80029e0:	b508      	push	{r3, lr}
 80029e2:	4b05      	ldr	r3, [pc, #20]	; (80029f8 <HAL_RCC_NMI_IRQHandler+0x18>)
 80029e4:	68db      	ldr	r3, [r3, #12]
 80029e6:	061b      	lsls	r3, r3, #24
 80029e8:	d504      	bpl.n	80029f4 <HAL_RCC_NMI_IRQHandler+0x14>
 80029ea:	f7ff fff7 	bl	80029dc <HAL_RCC_CSSCallback>
 80029ee:	4b03      	ldr	r3, [pc, #12]	; (80029fc <HAL_RCC_NMI_IRQHandler+0x1c>)
 80029f0:	2280      	movs	r2, #128	; 0x80
 80029f2:	701a      	strb	r2, [r3, #0]
 80029f4:	bd08      	pop	{r3, pc}
 80029f6:	bf00      	nop
 80029f8:	40023800 	.word	0x40023800
 80029fc:	4002380e 	.word	0x4002380e

08002a00 <HAL_RCCEx_PeriphCLKConfig>:
 8002a00:	6803      	ldr	r3, [r0, #0]
 8002a02:	e92d 43f7 	stmdb	sp!, {r0, r1, r2, r4, r5, r6, r7, r8, r9, lr}
 8002a06:	f013 0701 	ands.w	r7, r3, #1
 8002a0a:	4604      	mov	r4, r0
 8002a0c:	d00b      	beq.n	8002a26 <HAL_RCCEx_PeriphCLKConfig+0x26>
 8002a0e:	4ab9      	ldr	r2, [pc, #740]	; (8002cf4 <HAL_RCCEx_PeriphCLKConfig+0x2f4>)
 8002a10:	6891      	ldr	r1, [r2, #8]
 8002a12:	f421 0100 	bic.w	r1, r1, #8388608	; 0x800000
 8002a16:	6091      	str	r1, [r2, #8]
 8002a18:	6ac7      	ldr	r7, [r0, #44]	; 0x2c
 8002a1a:	6891      	ldr	r1, [r2, #8]
 8002a1c:	4339      	orrs	r1, r7
 8002a1e:	fab7 f787 	clz	r7, r7
 8002a22:	097f      	lsrs	r7, r7, #5
 8002a24:	6091      	str	r1, [r2, #8]
 8002a26:	f413 2500 	ands.w	r5, r3, #524288	; 0x80000
 8002a2a:	d012      	beq.n	8002a52 <HAL_RCCEx_PeriphCLKConfig+0x52>
 8002a2c:	49b1      	ldr	r1, [pc, #708]	; (8002cf4 <HAL_RCCEx_PeriphCLKConfig+0x2f4>)
 8002a2e:	6b65      	ldr	r5, [r4, #52]	; 0x34
 8002a30:	f8d1 208c 	ldr.w	r2, [r1, #140]	; 0x8c
 8002a34:	f5b5 1f80 	cmp.w	r5, #1048576	; 0x100000
 8002a38:	f422 1240 	bic.w	r2, r2, #3145728	; 0x300000
 8002a3c:	bf08      	it	eq
 8002a3e:	2701      	moveq	r7, #1
 8002a40:	ea42 0205 	orr.w	r2, r2, r5
 8002a44:	bf16      	itet	ne
 8002a46:	fab5 f585 	clzne	r5, r5
 8002a4a:	2500      	moveq	r5, #0
 8002a4c:	096d      	lsrne	r5, r5, #5
 8002a4e:	f8c1 208c 	str.w	r2, [r1, #140]	; 0x8c
 8002a52:	02d9      	lsls	r1, r3, #11
 8002a54:	d510      	bpl.n	8002a78 <HAL_RCCEx_PeriphCLKConfig+0x78>
 8002a56:	48a7      	ldr	r0, [pc, #668]	; (8002cf4 <HAL_RCCEx_PeriphCLKConfig+0x2f4>)
 8002a58:	6ba1      	ldr	r1, [r4, #56]	; 0x38
 8002a5a:	f8d0 208c 	ldr.w	r2, [r0, #140]	; 0x8c
 8002a5e:	f5b1 0f80 	cmp.w	r1, #4194304	; 0x400000
 8002a62:	f422 0240 	bic.w	r2, r2, #12582912	; 0xc00000
 8002a66:	ea42 0201 	orr.w	r2, r2, r1
 8002a6a:	f8c0 208c 	str.w	r2, [r0, #140]	; 0x8c
 8002a6e:	f000 814b 	beq.w	8002d08 <HAL_RCCEx_PeriphCLKConfig+0x308>
 8002a72:	2900      	cmp	r1, #0
 8002a74:	bf08      	it	eq
 8002a76:	2501      	moveq	r5, #1
 8002a78:	069a      	lsls	r2, r3, #26
 8002a7a:	d531      	bpl.n	8002ae0 <HAL_RCCEx_PeriphCLKConfig+0xe0>
 8002a7c:	4b9d      	ldr	r3, [pc, #628]	; (8002cf4 <HAL_RCCEx_PeriphCLKConfig+0x2f4>)
 8002a7e:	4e9e      	ldr	r6, [pc, #632]	; (8002cf8 <HAL_RCCEx_PeriphCLKConfig+0x2f8>)
 8002a80:	6c1a      	ldr	r2, [r3, #64]	; 0x40
 8002a82:	f042 5280 	orr.w	r2, r2, #268435456	; 0x10000000
 8002a86:	641a      	str	r2, [r3, #64]	; 0x40
 8002a88:	6c1b      	ldr	r3, [r3, #64]	; 0x40
 8002a8a:	f003 5380 	and.w	r3, r3, #268435456	; 0x10000000
 8002a8e:	9301      	str	r3, [sp, #4]
 8002a90:	9b01      	ldr	r3, [sp, #4]
 8002a92:	6833      	ldr	r3, [r6, #0]
 8002a94:	f443 7380 	orr.w	r3, r3, #256	; 0x100
 8002a98:	6033      	str	r3, [r6, #0]
 8002a9a:	f7fe fca5 	bl	80013e8 <HAL_GetTick>
 8002a9e:	4680      	mov	r8, r0
 8002aa0:	6833      	ldr	r3, [r6, #0]
 8002aa2:	05db      	lsls	r3, r3, #23
 8002aa4:	f140 8132 	bpl.w	8002d0c <HAL_RCCEx_PeriphCLKConfig+0x30c>
 8002aa8:	4e92      	ldr	r6, [pc, #584]	; (8002cf4 <HAL_RCCEx_PeriphCLKConfig+0x2f4>)
 8002aaa:	6f33      	ldr	r3, [r6, #112]	; 0x70
 8002aac:	f413 7340 	ands.w	r3, r3, #768	; 0x300
 8002ab0:	f040 8137 	bne.w	8002d22 <HAL_RCCEx_PeriphCLKConfig+0x322>
 8002ab4:	6aa3      	ldr	r3, [r4, #40]	; 0x28
 8002ab6:	f403 7240 	and.w	r2, r3, #768	; 0x300
 8002aba:	f5b2 7f40 	cmp.w	r2, #768	; 0x300
 8002abe:	4a8d      	ldr	r2, [pc, #564]	; (8002cf4 <HAL_RCCEx_PeriphCLKConfig+0x2f4>)
 8002ac0:	f040 8155 	bne.w	8002d6e <HAL_RCCEx_PeriphCLKConfig+0x36e>
 8002ac4:	6891      	ldr	r1, [r2, #8]
 8002ac6:	f023 4070 	bic.w	r0, r3, #4026531840	; 0xf0000000
 8002aca:	f421 11f8 	bic.w	r1, r1, #2031616	; 0x1f0000
 8002ace:	f420 7040 	bic.w	r0, r0, #768	; 0x300
 8002ad2:	4301      	orrs	r1, r0
 8002ad4:	6091      	str	r1, [r2, #8]
 8002ad6:	f3c3 030b 	ubfx	r3, r3, #0, #12
 8002ada:	6f11      	ldr	r1, [r2, #112]	; 0x70
 8002adc:	430b      	orrs	r3, r1
 8002ade:	6713      	str	r3, [r2, #112]	; 0x70
 8002ae0:	6823      	ldr	r3, [r4, #0]
 8002ae2:	06da      	lsls	r2, r3, #27
 8002ae4:	d50c      	bpl.n	8002b00 <HAL_RCCEx_PeriphCLKConfig+0x100>
 8002ae6:	4a83      	ldr	r2, [pc, #524]	; (8002cf4 <HAL_RCCEx_PeriphCLKConfig+0x2f4>)
 8002ae8:	f8d2 108c 	ldr.w	r1, [r2, #140]	; 0x8c
 8002aec:	f021 7180 	bic.w	r1, r1, #16777216	; 0x1000000
 8002af0:	f8c2 108c 	str.w	r1, [r2, #140]	; 0x8c
 8002af4:	f8d2 108c 	ldr.w	r1, [r2, #140]	; 0x8c
 8002af8:	6b20      	ldr	r0, [r4, #48]	; 0x30
 8002afa:	4301      	orrs	r1, r0
 8002afc:	f8c2 108c 	str.w	r1, [r2, #140]	; 0x8c
 8002b00:	045e      	lsls	r6, r3, #17
 8002b02:	d508      	bpl.n	8002b16 <HAL_RCCEx_PeriphCLKConfig+0x116>
 8002b04:	497b      	ldr	r1, [pc, #492]	; (8002cf4 <HAL_RCCEx_PeriphCLKConfig+0x2f4>)
 8002b06:	6de0      	ldr	r0, [r4, #92]	; 0x5c
 8002b08:	f8d1 2090 	ldr.w	r2, [r1, #144]	; 0x90
 8002b0c:	f422 3240 	bic.w	r2, r2, #196608	; 0x30000
 8002b10:	4302      	orrs	r2, r0
 8002b12:	f8c1 2090 	str.w	r2, [r1, #144]	; 0x90
 8002b16:	0418      	lsls	r0, r3, #16
 8002b18:	d508      	bpl.n	8002b2c <HAL_RCCEx_PeriphCLKConfig+0x12c>
 8002b1a:	4976      	ldr	r1, [pc, #472]	; (8002cf4 <HAL_RCCEx_PeriphCLKConfig+0x2f4>)
 8002b1c:	6e20      	ldr	r0, [r4, #96]	; 0x60
 8002b1e:	f8d1 2090 	ldr.w	r2, [r1, #144]	; 0x90
 8002b22:	f422 2240 	bic.w	r2, r2, #786432	; 0xc0000
 8002b26:	4302      	orrs	r2, r0
 8002b28:	f8c1 2090 	str.w	r2, [r1, #144]	; 0x90
 8002b2c:	03d9      	lsls	r1, r3, #15
 8002b2e:	d508      	bpl.n	8002b42 <HAL_RCCEx_PeriphCLKConfig+0x142>
 8002b30:	4970      	ldr	r1, [pc, #448]	; (8002cf4 <HAL_RCCEx_PeriphCLKConfig+0x2f4>)
 8002b32:	6e60      	ldr	r0, [r4, #100]	; 0x64
 8002b34:	f8d1 2090 	ldr.w	r2, [r1, #144]	; 0x90
 8002b38:	f422 1240 	bic.w	r2, r2, #3145728	; 0x300000
 8002b3c:	4302      	orrs	r2, r0
 8002b3e:	f8c1 2090 	str.w	r2, [r1, #144]	; 0x90
 8002b42:	065a      	lsls	r2, r3, #25
 8002b44:	d508      	bpl.n	8002b58 <HAL_RCCEx_PeriphCLKConfig+0x158>
 8002b46:	496b      	ldr	r1, [pc, #428]	; (8002cf4 <HAL_RCCEx_PeriphCLKConfig+0x2f4>)
 8002b48:	6be0      	ldr	r0, [r4, #60]	; 0x3c
 8002b4a:	f8d1 2090 	ldr.w	r2, [r1, #144]	; 0x90
 8002b4e:	f022 0203 	bic.w	r2, r2, #3
 8002b52:	4302      	orrs	r2, r0
 8002b54:	f8c1 2090 	str.w	r2, [r1, #144]	; 0x90
 8002b58:	061e      	lsls	r6, r3, #24
 8002b5a:	d508      	bpl.n	8002b6e <HAL_RCCEx_PeriphCLKConfig+0x16e>
 8002b5c:	4965      	ldr	r1, [pc, #404]	; (8002cf4 <HAL_RCCEx_PeriphCLKConfig+0x2f4>)
 8002b5e:	6c20      	ldr	r0, [r4, #64]	; 0x40
 8002b60:	f8d1 2090 	ldr.w	r2, [r1, #144]	; 0x90
 8002b64:	f022 020c 	bic.w	r2, r2, #12
 8002b68:	4302      	orrs	r2, r0
 8002b6a:	f8c1 2090 	str.w	r2, [r1, #144]	; 0x90
 8002b6e:	05d8      	lsls	r0, r3, #23
 8002b70:	d508      	bpl.n	8002b84 <HAL_RCCEx_PeriphCLKConfig+0x184>
 8002b72:	4960      	ldr	r1, [pc, #384]	; (8002cf4 <HAL_RCCEx_PeriphCLKConfig+0x2f4>)
 8002b74:	6c60      	ldr	r0, [r4, #68]	; 0x44
 8002b76:	f8d1 2090 	ldr.w	r2, [r1, #144]	; 0x90
 8002b7a:	f022 0230 	bic.w	r2, r2, #48	; 0x30
 8002b7e:	4302      	orrs	r2, r0
 8002b80:	f8c1 2090 	str.w	r2, [r1, #144]	; 0x90
 8002b84:	0599      	lsls	r1, r3, #22
 8002b86:	d508      	bpl.n	8002b9a <HAL_RCCEx_PeriphCLKConfig+0x19a>
 8002b88:	495a      	ldr	r1, [pc, #360]	; (8002cf4 <HAL_RCCEx_PeriphCLKConfig+0x2f4>)
 8002b8a:	6ca0      	ldr	r0, [r4, #72]	; 0x48
 8002b8c:	f8d1 2090 	ldr.w	r2, [r1, #144]	; 0x90
 8002b90:	f022 02c0 	bic.w	r2, r2, #192	; 0xc0
 8002b94:	4302      	orrs	r2, r0
 8002b96:	f8c1 2090 	str.w	r2, [r1, #144]	; 0x90
 8002b9a:	055a      	lsls	r2, r3, #21
 8002b9c:	d508      	bpl.n	8002bb0 <HAL_RCCEx_PeriphCLKConfig+0x1b0>
 8002b9e:	4955      	ldr	r1, [pc, #340]	; (8002cf4 <HAL_RCCEx_PeriphCLKConfig+0x2f4>)
 8002ba0:	6ce0      	ldr	r0, [r4, #76]	; 0x4c
 8002ba2:	f8d1 2090 	ldr.w	r2, [r1, #144]	; 0x90
 8002ba6:	f422 7240 	bic.w	r2, r2, #768	; 0x300
 8002baa:	4302      	orrs	r2, r0
 8002bac:	f8c1 2090 	str.w	r2, [r1, #144]	; 0x90
 8002bb0:	051e      	lsls	r6, r3, #20
 8002bb2:	d508      	bpl.n	8002bc6 <HAL_RCCEx_PeriphCLKConfig+0x1c6>
 8002bb4:	494f      	ldr	r1, [pc, #316]	; (8002cf4 <HAL_RCCEx_PeriphCLKConfig+0x2f4>)
 8002bb6:	6d20      	ldr	r0, [r4, #80]	; 0x50
 8002bb8:	f8d1 2090 	ldr.w	r2, [r1, #144]	; 0x90
 8002bbc:	f422 6240 	bic.w	r2, r2, #3072	; 0xc00
 8002bc0:	4302      	orrs	r2, r0
 8002bc2:	f8c1 2090 	str.w	r2, [r1, #144]	; 0x90
 8002bc6:	04d8      	lsls	r0, r3, #19
 8002bc8:	d508      	bpl.n	8002bdc <HAL_RCCEx_PeriphCLKConfig+0x1dc>
 8002bca:	494a      	ldr	r1, [pc, #296]	; (8002cf4 <HAL_RCCEx_PeriphCLKConfig+0x2f4>)
 8002bcc:	6d60      	ldr	r0, [r4, #84]	; 0x54
 8002bce:	f8d1 2090 	ldr.w	r2, [r1, #144]	; 0x90
 8002bd2:	f422 5240 	bic.w	r2, r2, #12288	; 0x3000
 8002bd6:	4302      	orrs	r2, r0
 8002bd8:	f8c1 2090 	str.w	r2, [r1, #144]	; 0x90
 8002bdc:	0499      	lsls	r1, r3, #18
 8002bde:	d508      	bpl.n	8002bf2 <HAL_RCCEx_PeriphCLKConfig+0x1f2>
 8002be0:	4944      	ldr	r1, [pc, #272]	; (8002cf4 <HAL_RCCEx_PeriphCLKConfig+0x2f4>)
 8002be2:	6da0      	ldr	r0, [r4, #88]	; 0x58
 8002be4:	f8d1 2090 	ldr.w	r2, [r1, #144]	; 0x90
 8002be8:	f422 4240 	bic.w	r2, r2, #49152	; 0xc000
 8002bec:	4302      	orrs	r2, r0
 8002bee:	f8c1 2090 	str.w	r2, [r1, #144]	; 0x90
 8002bf2:	029a      	lsls	r2, r3, #10
 8002bf4:	d50c      	bpl.n	8002c10 <HAL_RCCEx_PeriphCLKConfig+0x210>
 8002bf6:	483f      	ldr	r0, [pc, #252]	; (8002cf4 <HAL_RCCEx_PeriphCLKConfig+0x2f4>)
 8002bf8:	6f61      	ldr	r1, [r4, #116]	; 0x74
 8002bfa:	f8d0 2090 	ldr.w	r2, [r0, #144]	; 0x90
 8002bfe:	f1b1 6f00 	cmp.w	r1, #134217728	; 0x8000000
 8002c02:	f022 6200 	bic.w	r2, r2, #134217728	; 0x8000000
 8002c06:	bf08      	it	eq
 8002c08:	2501      	moveq	r5, #1
 8002c0a:	430a      	orrs	r2, r1
 8002c0c:	f8c0 2090 	str.w	r2, [r0, #144]	; 0x90
 8002c10:	035e      	lsls	r6, r3, #13
 8002c12:	d508      	bpl.n	8002c26 <HAL_RCCEx_PeriphCLKConfig+0x226>
 8002c14:	4937      	ldr	r1, [pc, #220]	; (8002cf4 <HAL_RCCEx_PeriphCLKConfig+0x2f4>)
 8002c16:	6ee0      	ldr	r0, [r4, #108]	; 0x6c
 8002c18:	f8d1 2090 	ldr.w	r2, [r1, #144]	; 0x90
 8002c1c:	f022 7240 	bic.w	r2, r2, #50331648	; 0x3000000
 8002c20:	4302      	orrs	r2, r0
 8002c22:	f8c1 2090 	str.w	r2, [r1, #144]	; 0x90
 8002c26:	0218      	lsls	r0, r3, #8
 8002c28:	d508      	bpl.n	8002c3c <HAL_RCCEx_PeriphCLKConfig+0x23c>
 8002c2a:	4932      	ldr	r1, [pc, #200]	; (8002cf4 <HAL_RCCEx_PeriphCLKConfig+0x2f4>)
 8002c2c:	6fa0      	ldr	r0, [r4, #120]	; 0x78
 8002c2e:	f8d1 2090 	ldr.w	r2, [r1, #144]	; 0x90
 8002c32:	f022 5280 	bic.w	r2, r2, #268435456	; 0x10000000
 8002c36:	4302      	orrs	r2, r0
 8002c38:	f8c1 2090 	str.w	r2, [r1, #144]	; 0x90
 8002c3c:	0159      	lsls	r1, r3, #5
 8002c3e:	d508      	bpl.n	8002c52 <HAL_RCCEx_PeriphCLKConfig+0x252>
 8002c40:	492c      	ldr	r1, [pc, #176]	; (8002cf4 <HAL_RCCEx_PeriphCLKConfig+0x2f4>)
 8002c42:	6fe0      	ldr	r0, [r4, #124]	; 0x7c
 8002c44:	f8d1 2090 	ldr.w	r2, [r1, #144]	; 0x90
 8002c48:	f022 5200 	bic.w	r2, r2, #536870912	; 0x20000000
 8002c4c:	4302      	orrs	r2, r0
 8002c4e:	f8c1 2090 	str.w	r2, [r1, #144]	; 0x90
 8002c52:	2f00      	cmp	r7, #0
 8002c54:	f040 808f 	bne.w	8002d76 <HAL_RCCEx_PeriphCLKConfig+0x376>
 8002c58:	019a      	lsls	r2, r3, #6
 8002c5a:	f100 808c 	bmi.w	8002d76 <HAL_RCCEx_PeriphCLKConfig+0x376>
 8002c5e:	2d01      	cmp	r5, #1
 8002c60:	d150      	bne.n	8002d04 <HAL_RCCEx_PeriphCLKConfig+0x304>
 8002c62:	4d24      	ldr	r5, [pc, #144]	; (8002cf4 <HAL_RCCEx_PeriphCLKConfig+0x2f4>)
 8002c64:	682b      	ldr	r3, [r5, #0]
 8002c66:	462e      	mov	r6, r5
 8002c68:	f023 5380 	bic.w	r3, r3, #268435456	; 0x10000000
 8002c6c:	602b      	str	r3, [r5, #0]
 8002c6e:	f7fe fbbb 	bl	80013e8 <HAL_GetTick>
 8002c72:	4607      	mov	r7, r0
 8002c74:	682b      	ldr	r3, [r5, #0]
 8002c76:	009b      	lsls	r3, r3, #2
 8002c78:	f100 80e0 	bmi.w	8002e3c <HAL_RCCEx_PeriphCLKConfig+0x43c>
 8002c7c:	6822      	ldr	r2, [r4, #0]
 8002c7e:	0310      	lsls	r0, r2, #12
 8002c80:	d501      	bpl.n	8002c86 <HAL_RCCEx_PeriphCLKConfig+0x286>
 8002c82:	6b63      	ldr	r3, [r4, #52]	; 0x34
 8002c84:	b11b      	cbz	r3, 8002c8e <HAL_RCCEx_PeriphCLKConfig+0x28e>
 8002c86:	02d1      	lsls	r1, r2, #11
 8002c88:	d517      	bpl.n	8002cba <HAL_RCCEx_PeriphCLKConfig+0x2ba>
 8002c8a:	6ba3      	ldr	r3, [r4, #56]	; 0x38
 8002c8c:	b9ab      	cbnz	r3, 8002cba <HAL_RCCEx_PeriphCLKConfig+0x2ba>
 8002c8e:	f8d6 1088 	ldr.w	r1, [r6, #136]	; 0x88
 8002c92:	e9d4 0304 	ldrd	r0, r3, [r4, #16]
 8002c96:	f401 3140 	and.w	r1, r1, #196608	; 0x30000
 8002c9a:	061b      	lsls	r3, r3, #24
 8002c9c:	ea43 1380 	orr.w	r3, r3, r0, lsl #6
 8002ca0:	430b      	orrs	r3, r1
 8002ca2:	f8c6 3088 	str.w	r3, [r6, #136]	; 0x88
 8002ca6:	f8d6 308c 	ldr.w	r3, [r6, #140]	; 0x8c
 8002caa:	6a21      	ldr	r1, [r4, #32]
 8002cac:	f423 53f8 	bic.w	r3, r3, #7936	; 0x1f00
 8002cb0:	3901      	subs	r1, #1
 8002cb2:	ea43 2301 	orr.w	r3, r3, r1, lsl #8
 8002cb6:	f8c6 308c 	str.w	r3, [r6, #140]	; 0x8c
 8002cba:	0292      	lsls	r2, r2, #10
 8002cbc:	d510      	bpl.n	8002ce0 <HAL_RCCEx_PeriphCLKConfig+0x2e0>
 8002cbe:	6f63      	ldr	r3, [r4, #116]	; 0x74
 8002cc0:	f1b3 6f00 	cmp.w	r3, #134217728	; 0x8000000
 8002cc4:	d10c      	bne.n	8002ce0 <HAL_RCCEx_PeriphCLKConfig+0x2e0>
 8002cc6:	490b      	ldr	r1, [pc, #44]	; (8002cf4 <HAL_RCCEx_PeriphCLKConfig+0x2f4>)
 8002cc8:	69a3      	ldr	r3, [r4, #24]
 8002cca:	f8d1 2088 	ldr.w	r2, [r1, #136]	; 0x88
 8002cce:	6920      	ldr	r0, [r4, #16]
 8002cd0:	041b      	lsls	r3, r3, #16
 8002cd2:	f002 6270 	and.w	r2, r2, #251658240	; 0xf000000
 8002cd6:	ea43 1380 	orr.w	r3, r3, r0, lsl #6
 8002cda:	4313      	orrs	r3, r2
 8002cdc:	f8c1 3088 	str.w	r3, [r1, #136]	; 0x88
 8002ce0:	4c04      	ldr	r4, [pc, #16]	; (8002cf4 <HAL_RCCEx_PeriphCLKConfig+0x2f4>)
 8002ce2:	6823      	ldr	r3, [r4, #0]
 8002ce4:	f043 5380 	orr.w	r3, r3, #268435456	; 0x10000000
 8002ce8:	6023      	str	r3, [r4, #0]
 8002cea:	f7fe fb7d 	bl	80013e8 <HAL_GetTick>
 8002cee:	4605      	mov	r5, r0
 8002cf0:	e004      	b.n	8002cfc <HAL_RCCEx_PeriphCLKConfig+0x2fc>
 8002cf2:	bf00      	nop
 8002cf4:	40023800 	.word	0x40023800
 8002cf8:	40007000 	.word	0x40007000
 8002cfc:	6823      	ldr	r3, [r4, #0]
 8002cfe:	009b      	lsls	r3, r3, #2
 8002d00:	f140 80a3 	bpl.w	8002e4a <HAL_RCCEx_PeriphCLKConfig+0x44a>
 8002d04:	2000      	movs	r0, #0
 8002d06:	e009      	b.n	8002d1c <HAL_RCCEx_PeriphCLKConfig+0x31c>
 8002d08:	2701      	movs	r7, #1
 8002d0a:	e6b5      	b.n	8002a78 <HAL_RCCEx_PeriphCLKConfig+0x78>
 8002d0c:	f7fe fb6c 	bl	80013e8 <HAL_GetTick>
 8002d10:	eba0 0008 	sub.w	r0, r0, r8
 8002d14:	2864      	cmp	r0, #100	; 0x64
 8002d16:	f67f aec3 	bls.w	8002aa0 <HAL_RCCEx_PeriphCLKConfig+0xa0>
 8002d1a:	2003      	movs	r0, #3
 8002d1c:	b003      	add	sp, #12
 8002d1e:	e8bd 83f0 	ldmia.w	sp!, {r4, r5, r6, r7, r8, r9, pc}
 8002d22:	6aa2      	ldr	r2, [r4, #40]	; 0x28
 8002d24:	f402 7240 	and.w	r2, r2, #768	; 0x300
 8002d28:	4293      	cmp	r3, r2
 8002d2a:	f43f aec3 	beq.w	8002ab4 <HAL_RCCEx_PeriphCLKConfig+0xb4>
 8002d2e:	6f33      	ldr	r3, [r6, #112]	; 0x70
 8002d30:	6f32      	ldr	r2, [r6, #112]	; 0x70
 8002d32:	f423 7340 	bic.w	r3, r3, #768	; 0x300
 8002d36:	f442 3280 	orr.w	r2, r2, #65536	; 0x10000
 8002d3a:	6732      	str	r2, [r6, #112]	; 0x70
 8002d3c:	6f32      	ldr	r2, [r6, #112]	; 0x70
 8002d3e:	f422 3280 	bic.w	r2, r2, #65536	; 0x10000
 8002d42:	6732      	str	r2, [r6, #112]	; 0x70
 8002d44:	6733      	str	r3, [r6, #112]	; 0x70
 8002d46:	6f33      	ldr	r3, [r6, #112]	; 0x70
 8002d48:	07d8      	lsls	r0, r3, #31
 8002d4a:	f57f aeb3 	bpl.w	8002ab4 <HAL_RCCEx_PeriphCLKConfig+0xb4>
 8002d4e:	f7fe fb4b 	bl	80013e8 <HAL_GetTick>
 8002d52:	f241 3988 	movw	r9, #5000	; 0x1388
 8002d56:	4680      	mov	r8, r0
 8002d58:	6f33      	ldr	r3, [r6, #112]	; 0x70
 8002d5a:	0799      	lsls	r1, r3, #30
 8002d5c:	f53f aeaa 	bmi.w	8002ab4 <HAL_RCCEx_PeriphCLKConfig+0xb4>
 8002d60:	f7fe fb42 	bl	80013e8 <HAL_GetTick>
 8002d64:	eba0 0008 	sub.w	r0, r0, r8
 8002d68:	4548      	cmp	r0, r9
 8002d6a:	d9f5      	bls.n	8002d58 <HAL_RCCEx_PeriphCLKConfig+0x358>
 8002d6c:	e7d5      	b.n	8002d1a <HAL_RCCEx_PeriphCLKConfig+0x31a>
 8002d6e:	6891      	ldr	r1, [r2, #8]
 8002d70:	f421 11f8 	bic.w	r1, r1, #2031616	; 0x1f0000
 8002d74:	e6ae      	b.n	8002ad4 <HAL_RCCEx_PeriphCLKConfig+0xd4>
 8002d76:	4e38      	ldr	r6, [pc, #224]	; (8002e58 <HAL_RCCEx_PeriphCLKConfig+0x458>)
 8002d78:	6833      	ldr	r3, [r6, #0]
 8002d7a:	f023 6380 	bic.w	r3, r3, #67108864	; 0x4000000
 8002d7e:	6033      	str	r3, [r6, #0]
 8002d80:	f7fe fb32 	bl	80013e8 <HAL_GetTick>
 8002d84:	4607      	mov	r7, r0
 8002d86:	6833      	ldr	r3, [r6, #0]
 8002d88:	011b      	lsls	r3, r3, #4
 8002d8a:	d451      	bmi.n	8002e30 <HAL_RCCEx_PeriphCLKConfig+0x430>
 8002d8c:	6822      	ldr	r2, [r4, #0]
 8002d8e:	07d7      	lsls	r7, r2, #31
 8002d90:	d50d      	bpl.n	8002dae <HAL_RCCEx_PeriphCLKConfig+0x3ae>
 8002d92:	6ae3      	ldr	r3, [r4, #44]	; 0x2c
 8002d94:	b95b      	cbnz	r3, 8002dae <HAL_RCCEx_PeriphCLKConfig+0x3ae>
 8002d96:	f8d6 1084 	ldr.w	r1, [r6, #132]	; 0x84
 8002d9a:	e9d4 0301 	ldrd	r0, r3, [r4, #4]
 8002d9e:	f001 6170 	and.w	r1, r1, #251658240	; 0xf000000
 8002da2:	071b      	lsls	r3, r3, #28
 8002da4:	ea43 1380 	orr.w	r3, r3, r0, lsl #6
 8002da8:	430b      	orrs	r3, r1
 8002daa:	f8c6 3084 	str.w	r3, [r6, #132]	; 0x84
 8002dae:	0316      	lsls	r6, r2, #12
 8002db0:	d503      	bpl.n	8002dba <HAL_RCCEx_PeriphCLKConfig+0x3ba>
 8002db2:	6b63      	ldr	r3, [r4, #52]	; 0x34
 8002db4:	f5b3 1f80 	cmp.w	r3, #1048576	; 0x100000
 8002db8:	d005      	beq.n	8002dc6 <HAL_RCCEx_PeriphCLKConfig+0x3c6>
 8002dba:	02d0      	lsls	r0, r2, #11
 8002dbc:	d519      	bpl.n	8002df2 <HAL_RCCEx_PeriphCLKConfig+0x3f2>
 8002dbe:	6ba3      	ldr	r3, [r4, #56]	; 0x38
 8002dc0:	f5b3 0f80 	cmp.w	r3, #4194304	; 0x400000
 8002dc4:	d115      	bne.n	8002df2 <HAL_RCCEx_PeriphCLKConfig+0x3f2>
 8002dc6:	4924      	ldr	r1, [pc, #144]	; (8002e58 <HAL_RCCEx_PeriphCLKConfig+0x458>)
 8002dc8:	68e3      	ldr	r3, [r4, #12]
 8002dca:	f8d1 0084 	ldr.w	r0, [r1, #132]	; 0x84
 8002dce:	6866      	ldr	r6, [r4, #4]
 8002dd0:	061b      	lsls	r3, r3, #24
 8002dd2:	f000 40e0 	and.w	r0, r0, #1879048192	; 0x70000000
 8002dd6:	ea43 1386 	orr.w	r3, r3, r6, lsl #6
 8002dda:	4303      	orrs	r3, r0
 8002ddc:	f8c1 3084 	str.w	r3, [r1, #132]	; 0x84
 8002de0:	f8d1 008c 	ldr.w	r0, [r1, #140]	; 0x8c
 8002de4:	69e3      	ldr	r3, [r4, #28]
 8002de6:	f020 001f 	bic.w	r0, r0, #31
 8002dea:	3b01      	subs	r3, #1
 8002dec:	4303      	orrs	r3, r0
 8002dee:	f8c1 308c 	str.w	r3, [r1, #140]	; 0x8c
 8002df2:	0191      	lsls	r1, r2, #6
 8002df4:	d50a      	bpl.n	8002e0c <HAL_RCCEx_PeriphCLKConfig+0x40c>
 8002df6:	68e3      	ldr	r3, [r4, #12]
 8002df8:	6862      	ldr	r2, [r4, #4]
 8002dfa:	061b      	lsls	r3, r3, #24
 8002dfc:	ea43 1382 	orr.w	r3, r3, r2, lsl #6
 8002e00:	68a2      	ldr	r2, [r4, #8]
 8002e02:	ea43 7302 	orr.w	r3, r3, r2, lsl #28
 8002e06:	4a14      	ldr	r2, [pc, #80]	; (8002e58 <HAL_RCCEx_PeriphCLKConfig+0x458>)
 8002e08:	f8c2 3084 	str.w	r3, [r2, #132]	; 0x84
 8002e0c:	4e12      	ldr	r6, [pc, #72]	; (8002e58 <HAL_RCCEx_PeriphCLKConfig+0x458>)
 8002e0e:	6833      	ldr	r3, [r6, #0]
 8002e10:	f043 6380 	orr.w	r3, r3, #67108864	; 0x4000000
 8002e14:	6033      	str	r3, [r6, #0]
 8002e16:	f7fe fae7 	bl	80013e8 <HAL_GetTick>
 8002e1a:	4607      	mov	r7, r0
 8002e1c:	6833      	ldr	r3, [r6, #0]
 8002e1e:	011a      	lsls	r2, r3, #4
 8002e20:	f53f af1d 	bmi.w	8002c5e <HAL_RCCEx_PeriphCLKConfig+0x25e>
 8002e24:	f7fe fae0 	bl	80013e8 <HAL_GetTick>
 8002e28:	1bc0      	subs	r0, r0, r7
 8002e2a:	2864      	cmp	r0, #100	; 0x64
 8002e2c:	d9f6      	bls.n	8002e1c <HAL_RCCEx_PeriphCLKConfig+0x41c>
 8002e2e:	e774      	b.n	8002d1a <HAL_RCCEx_PeriphCLKConfig+0x31a>
 8002e30:	f7fe fada 	bl	80013e8 <HAL_GetTick>
 8002e34:	1bc0      	subs	r0, r0, r7
 8002e36:	2864      	cmp	r0, #100	; 0x64
 8002e38:	d9a5      	bls.n	8002d86 <HAL_RCCEx_PeriphCLKConfig+0x386>
 8002e3a:	e76e      	b.n	8002d1a <HAL_RCCEx_PeriphCLKConfig+0x31a>
 8002e3c:	f7fe fad4 	bl	80013e8 <HAL_GetTick>
 8002e40:	1bc0      	subs	r0, r0, r7
 8002e42:	2864      	cmp	r0, #100	; 0x64
 8002e44:	f67f af16 	bls.w	8002c74 <HAL_RCCEx_PeriphCLKConfig+0x274>
 8002e48:	e767      	b.n	8002d1a <HAL_RCCEx_PeriphCLKConfig+0x31a>
 8002e4a:	f7fe facd 	bl	80013e8 <HAL_GetTick>
 8002e4e:	1b40      	subs	r0, r0, r5
 8002e50:	2864      	cmp	r0, #100	; 0x64
 8002e52:	f67f af53 	bls.w	8002cfc <HAL_RCCEx_PeriphCLKConfig+0x2fc>
 8002e56:	e760      	b.n	8002d1a <HAL_RCCEx_PeriphCLKConfig+0x31a>
 8002e58:	40023800 	.word	0x40023800

08002e5c <HAL_TIM_Base_MspInit>:
 8002e5c:	4770      	bx	lr
	...

08002e60 <HAL_TIM_Base_Start_IT>:
 8002e60:	f890 303d 	ldrb.w	r3, [r0, #61]	; 0x3d
 8002e64:	2b01      	cmp	r3, #1
 8002e66:	d133      	bne.n	8002ed0 <HAL_TIM_Base_Start_IT+0x70>
 8002e68:	2302      	movs	r3, #2
 8002e6a:	f880 303d 	strb.w	r3, [r0, #61]	; 0x3d
 8002e6e:	6803      	ldr	r3, [r0, #0]
 8002e70:	68da      	ldr	r2, [r3, #12]
 8002e72:	f042 0201 	orr.w	r2, r2, #1
 8002e76:	60da      	str	r2, [r3, #12]
 8002e78:	4a16      	ldr	r2, [pc, #88]	; (8002ed4 <HAL_TIM_Base_Start_IT+0x74>)
 8002e7a:	4293      	cmp	r3, r2
 8002e7c:	d01a      	beq.n	8002eb4 <HAL_TIM_Base_Start_IT+0x54>
 8002e7e:	f1b3 4f80 	cmp.w	r3, #1073741824	; 0x40000000
 8002e82:	d017      	beq.n	8002eb4 <HAL_TIM_Base_Start_IT+0x54>
 8002e84:	f5a2 427c 	sub.w	r2, r2, #64512	; 0xfc00
 8002e88:	4293      	cmp	r3, r2
 8002e8a:	d013      	beq.n	8002eb4 <HAL_TIM_Base_Start_IT+0x54>
 8002e8c:	f502 6280 	add.w	r2, r2, #1024	; 0x400
 8002e90:	4293      	cmp	r3, r2
 8002e92:	d00f      	beq.n	8002eb4 <HAL_TIM_Base_Start_IT+0x54>
 8002e94:	f502 6280 	add.w	r2, r2, #1024	; 0x400
 8002e98:	4293      	cmp	r3, r2
 8002e9a:	d00b      	beq.n	8002eb4 <HAL_TIM_Base_Start_IT+0x54>
 8002e9c:	f502 4278 	add.w	r2, r2, #63488	; 0xf800
 8002ea0:	4293      	cmp	r3, r2
 8002ea2:	d007      	beq.n	8002eb4 <HAL_TIM_Base_Start_IT+0x54>
 8002ea4:	f502 5270 	add.w	r2, r2, #15360	; 0x3c00
 8002ea8:	4293      	cmp	r3, r2
 8002eaa:	d003      	beq.n	8002eb4 <HAL_TIM_Base_Start_IT+0x54>
 8002eac:	f5a2 3294 	sub.w	r2, r2, #75776	; 0x12800
 8002eb0:	4293      	cmp	r3, r2
 8002eb2:	d107      	bne.n	8002ec4 <HAL_TIM_Base_Start_IT+0x64>
 8002eb4:	6899      	ldr	r1, [r3, #8]
 8002eb6:	4a08      	ldr	r2, [pc, #32]	; (8002ed8 <HAL_TIM_Base_Start_IT+0x78>)
 8002eb8:	400a      	ands	r2, r1
 8002eba:	2a06      	cmp	r2, #6
 8002ebc:	d006      	beq.n	8002ecc <HAL_TIM_Base_Start_IT+0x6c>
 8002ebe:	f5b2 3f80 	cmp.w	r2, #65536	; 0x10000
 8002ec2:	d003      	beq.n	8002ecc <HAL_TIM_Base_Start_IT+0x6c>
 8002ec4:	681a      	ldr	r2, [r3, #0]
 8002ec6:	f042 0201 	orr.w	r2, r2, #1
 8002eca:	601a      	str	r2, [r3, #0]
 8002ecc:	2000      	movs	r0, #0
 8002ece:	4770      	bx	lr
 8002ed0:	2001      	movs	r0, #1
 8002ed2:	4770      	bx	lr
 8002ed4:	40010000 	.word	0x40010000
 8002ed8:	00010007 	.word	0x00010007

08002edc <HAL_TIM_OC_DelayElapsedCallback>:
 8002edc:	4770      	bx	lr

08002ede <HAL_TIM_IC_CaptureCallback>:
 8002ede:	4770      	bx	lr

08002ee0 <HAL_TIM_PWM_PulseFinishedCallback>:
 8002ee0:	4770      	bx	lr

08002ee2 <HAL_TIM_TriggerCallback>:
 8002ee2:	4770      	bx	lr

08002ee4 <HAL_TIM_IRQHandler>:
 8002ee4:	6803      	ldr	r3, [r0, #0]
 8002ee6:	691a      	ldr	r2, [r3, #16]
 8002ee8:	0791      	lsls	r1, r2, #30
 8002eea:	b510      	push	{r4, lr}
 8002eec:	4604      	mov	r4, r0
 8002eee:	d50f      	bpl.n	8002f10 <HAL_TIM_IRQHandler+0x2c>
 8002ef0:	68da      	ldr	r2, [r3, #12]
 8002ef2:	0792      	lsls	r2, r2, #30
 8002ef4:	d50c      	bpl.n	8002f10 <HAL_TIM_IRQHandler+0x2c>
 8002ef6:	f06f 0202 	mvn.w	r2, #2
 8002efa:	611a      	str	r2, [r3, #16]
 8002efc:	2201      	movs	r2, #1
 8002efe:	7702      	strb	r2, [r0, #28]
 8002f00:	699b      	ldr	r3, [r3, #24]
 8002f02:	0799      	lsls	r1, r3, #30
 8002f04:	f000 8085 	beq.w	8003012 <HAL_TIM_IRQHandler+0x12e>
 8002f08:	f7ff ffe9 	bl	8002ede <HAL_TIM_IC_CaptureCallback>
 8002f0c:	2300      	movs	r3, #0
 8002f0e:	7723      	strb	r3, [r4, #28]
 8002f10:	6823      	ldr	r3, [r4, #0]
 8002f12:	691a      	ldr	r2, [r3, #16]
 8002f14:	0752      	lsls	r2, r2, #29
 8002f16:	d510      	bpl.n	8002f3a <HAL_TIM_IRQHandler+0x56>
 8002f18:	68da      	ldr	r2, [r3, #12]
 8002f1a:	0750      	lsls	r0, r2, #29
 8002f1c:	d50d      	bpl.n	8002f3a <HAL_TIM_IRQHandler+0x56>
 8002f1e:	f06f 0204 	mvn.w	r2, #4
 8002f22:	4620      	mov	r0, r4
 8002f24:	611a      	str	r2, [r3, #16]
 8002f26:	2202      	movs	r2, #2
 8002f28:	7722      	strb	r2, [r4, #28]
 8002f2a:	699b      	ldr	r3, [r3, #24]
 8002f2c:	f413 7f40 	tst.w	r3, #768	; 0x300
 8002f30:	d075      	beq.n	800301e <HAL_TIM_IRQHandler+0x13a>
 8002f32:	f7ff ffd4 	bl	8002ede <HAL_TIM_IC_CaptureCallback>
 8002f36:	2300      	movs	r3, #0
 8002f38:	7723      	strb	r3, [r4, #28]
 8002f3a:	6823      	ldr	r3, [r4, #0]
 8002f3c:	691a      	ldr	r2, [r3, #16]
 8002f3e:	0711      	lsls	r1, r2, #28
 8002f40:	d50f      	bpl.n	8002f62 <HAL_TIM_IRQHandler+0x7e>
 8002f42:	68da      	ldr	r2, [r3, #12]
 8002f44:	0712      	lsls	r2, r2, #28
 8002f46:	d50c      	bpl.n	8002f62 <HAL_TIM_IRQHandler+0x7e>
 8002f48:	f06f 0208 	mvn.w	r2, #8
 8002f4c:	4620      	mov	r0, r4
 8002f4e:	611a      	str	r2, [r3, #16]
 8002f50:	2204      	movs	r2, #4
 8002f52:	7722      	strb	r2, [r4, #28]
 8002f54:	69db      	ldr	r3, [r3, #28]
 8002f56:	079b      	lsls	r3, r3, #30
 8002f58:	d067      	beq.n	800302a <HAL_TIM_IRQHandler+0x146>
 8002f5a:	f7ff ffc0 	bl	8002ede <HAL_TIM_IC_CaptureCallback>
 8002f5e:	2300      	movs	r3, #0
 8002f60:	7723      	strb	r3, [r4, #28]
 8002f62:	6823      	ldr	r3, [r4, #0]
 8002f64:	691a      	ldr	r2, [r3, #16]
 8002f66:	06d0      	lsls	r0, r2, #27
 8002f68:	d510      	bpl.n	8002f8c <HAL_TIM_IRQHandler+0xa8>
 8002f6a:	68da      	ldr	r2, [r3, #12]
 8002f6c:	06d1      	lsls	r1, r2, #27
 8002f6e:	d50d      	bpl.n	8002f8c <HAL_TIM_IRQHandler+0xa8>
 8002f70:	f06f 0210 	mvn.w	r2, #16
 8002f74:	4620      	mov	r0, r4
 8002f76:	611a      	str	r2, [r3, #16]
 8002f78:	2208      	movs	r2, #8
 8002f7a:	7722      	strb	r2, [r4, #28]
 8002f7c:	69db      	ldr	r3, [r3, #28]
 8002f7e:	f413 7f40 	tst.w	r3, #768	; 0x300
 8002f82:	d058      	beq.n	8003036 <HAL_TIM_IRQHandler+0x152>
 8002f84:	f7ff ffab 	bl	8002ede <HAL_TIM_IC_CaptureCallback>
 8002f88:	2300      	movs	r3, #0
 8002f8a:	7723      	strb	r3, [r4, #28]
 8002f8c:	6823      	ldr	r3, [r4, #0]
 8002f8e:	691a      	ldr	r2, [r3, #16]
 8002f90:	07d2      	lsls	r2, r2, #31
 8002f92:	d508      	bpl.n	8002fa6 <HAL_TIM_IRQHandler+0xc2>
 8002f94:	68da      	ldr	r2, [r3, #12]
 8002f96:	07d0      	lsls	r0, r2, #31
 8002f98:	d505      	bpl.n	8002fa6 <HAL_TIM_IRQHandler+0xc2>
 8002f9a:	f06f 0201 	mvn.w	r2, #1
 8002f9e:	4620      	mov	r0, r4
 8002fa0:	611a      	str	r2, [r3, #16]
 8002fa2:	f7fd fdb9 	bl	8000b18 <HAL_TIM_PeriodElapsedCallback>
 8002fa6:	6823      	ldr	r3, [r4, #0]
 8002fa8:	691a      	ldr	r2, [r3, #16]
 8002faa:	0611      	lsls	r1, r2, #24
 8002fac:	d508      	bpl.n	8002fc0 <HAL_TIM_IRQHandler+0xdc>
 8002fae:	68da      	ldr	r2, [r3, #12]
 8002fb0:	0612      	lsls	r2, r2, #24
 8002fb2:	d505      	bpl.n	8002fc0 <HAL_TIM_IRQHandler+0xdc>
 8002fb4:	f06f 0280 	mvn.w	r2, #128	; 0x80
 8002fb8:	4620      	mov	r0, r4
 8002fba:	611a      	str	r2, [r3, #16]
 8002fbc:	f000 f8d9 	bl	8003172 <HAL_TIMEx_BreakCallback>
 8002fc0:	6823      	ldr	r3, [r4, #0]
 8002fc2:	691a      	ldr	r2, [r3, #16]
 8002fc4:	05d0      	lsls	r0, r2, #23
 8002fc6:	d508      	bpl.n	8002fda <HAL_TIM_IRQHandler+0xf6>
 8002fc8:	68da      	ldr	r2, [r3, #12]
 8002fca:	0611      	lsls	r1, r2, #24
 8002fcc:	d505      	bpl.n	8002fda <HAL_TIM_IRQHandler+0xf6>
 8002fce:	f46f 7280 	mvn.w	r2, #256	; 0x100
 8002fd2:	4620      	mov	r0, r4
 8002fd4:	611a      	str	r2, [r3, #16]
 8002fd6:	f000 f8cd 	bl	8003174 <HAL_TIMEx_Break2Callback>
 8002fda:	6823      	ldr	r3, [r4, #0]
 8002fdc:	691a      	ldr	r2, [r3, #16]
 8002fde:	0652      	lsls	r2, r2, #25
 8002fe0:	d508      	bpl.n	8002ff4 <HAL_TIM_IRQHandler+0x110>
 8002fe2:	68da      	ldr	r2, [r3, #12]
 8002fe4:	0650      	lsls	r0, r2, #25
 8002fe6:	d505      	bpl.n	8002ff4 <HAL_TIM_IRQHandler+0x110>
 8002fe8:	f06f 0240 	mvn.w	r2, #64	; 0x40
 8002fec:	4620      	mov	r0, r4
 8002fee:	611a      	str	r2, [r3, #16]
 8002ff0:	f7ff ff77 	bl	8002ee2 <HAL_TIM_TriggerCallback>
 8002ff4:	6823      	ldr	r3, [r4, #0]
 8002ff6:	691a      	ldr	r2, [r3, #16]
 8002ff8:	0691      	lsls	r1, r2, #26
 8002ffa:	d522      	bpl.n	8003042 <HAL_TIM_IRQHandler+0x15e>
 8002ffc:	68da      	ldr	r2, [r3, #12]
 8002ffe:	0692      	lsls	r2, r2, #26
 8003000:	d51f      	bpl.n	8003042 <HAL_TIM_IRQHandler+0x15e>
 8003002:	f06f 0220 	mvn.w	r2, #32
 8003006:	4620      	mov	r0, r4
 8003008:	611a      	str	r2, [r3, #16]
 800300a:	e8bd 4010 	ldmia.w	sp!, {r4, lr}
 800300e:	f000 b8af 	b.w	8003170 <HAL_TIMEx_CommutCallback>
 8003012:	f7ff ff63 	bl	8002edc <HAL_TIM_OC_DelayElapsedCallback>
 8003016:	4620      	mov	r0, r4
 8003018:	f7ff ff62 	bl	8002ee0 <HAL_TIM_PWM_PulseFinishedCallback>
 800301c:	e776      	b.n	8002f0c <HAL_TIM_IRQHandler+0x28>
 800301e:	f7ff ff5d 	bl	8002edc <HAL_TIM_OC_DelayElapsedCallback>
 8003022:	4620      	mov	r0, r4
 8003024:	f7ff ff5c 	bl	8002ee0 <HAL_TIM_PWM_PulseFinishedCallback>
 8003028:	e785      	b.n	8002f36 <HAL_TIM_IRQHandler+0x52>
 800302a:	f7ff ff57 	bl	8002edc <HAL_TIM_OC_DelayElapsedCallback>
 800302e:	4620      	mov	r0, r4
 8003030:	f7ff ff56 	bl	8002ee0 <HAL_TIM_PWM_PulseFinishedCallback>
 8003034:	e793      	b.n	8002f5e <HAL_TIM_IRQHandler+0x7a>
 8003036:	f7ff ff51 	bl	8002edc <HAL_TIM_OC_DelayElapsedCallback>
 800303a:	4620      	mov	r0, r4
 800303c:	f7ff ff50 	bl	8002ee0 <HAL_TIM_PWM_PulseFinishedCallback>
 8003040:	e7a2      	b.n	8002f88 <HAL_TIM_IRQHandler+0xa4>
 8003042:	bd10      	pop	{r4, pc}

08003044 <TIM_Base_SetConfig>:
 8003044:	4a30      	ldr	r2, [pc, #192]	; (8003108 <TIM_Base_SetConfig+0xc4>)
 8003046:	6803      	ldr	r3, [r0, #0]
 8003048:	4290      	cmp	r0, r2
 800304a:	d012      	beq.n	8003072 <TIM_Base_SetConfig+0x2e>
 800304c:	f1b0 4f80 	cmp.w	r0, #1073741824	; 0x40000000
 8003050:	d00f      	beq.n	8003072 <TIM_Base_SetConfig+0x2e>
 8003052:	f5a2 427c 	sub.w	r2, r2, #64512	; 0xfc00
 8003056:	4290      	cmp	r0, r2
 8003058:	d00b      	beq.n	8003072 <TIM_Base_SetConfig+0x2e>
 800305a:	f502 6280 	add.w	r2, r2, #1024	; 0x400
 800305e:	4290      	cmp	r0, r2
 8003060:	d007      	beq.n	8003072 <TIM_Base_SetConfig+0x2e>
 8003062:	f502 6280 	add.w	r2, r2, #1024	; 0x400
 8003066:	4290      	cmp	r0, r2
 8003068:	d003      	beq.n	8003072 <TIM_Base_SetConfig+0x2e>
 800306a:	f502 4278 	add.w	r2, r2, #63488	; 0xf800
 800306e:	4290      	cmp	r0, r2
 8003070:	d119      	bne.n	80030a6 <TIM_Base_SetConfig+0x62>
 8003072:	684a      	ldr	r2, [r1, #4]
 8003074:	f023 0370 	bic.w	r3, r3, #112	; 0x70
 8003078:	4313      	orrs	r3, r2
 800307a:	4a23      	ldr	r2, [pc, #140]	; (8003108 <TIM_Base_SetConfig+0xc4>)
 800307c:	4290      	cmp	r0, r2
 800307e:	d029      	beq.n	80030d4 <TIM_Base_SetConfig+0x90>
 8003080:	f1b0 4f80 	cmp.w	r0, #1073741824	; 0x40000000
 8003084:	d026      	beq.n	80030d4 <TIM_Base_SetConfig+0x90>
 8003086:	f5a2 427c 	sub.w	r2, r2, #64512	; 0xfc00
 800308a:	4290      	cmp	r0, r2
 800308c:	d022      	beq.n	80030d4 <TIM_Base_SetConfig+0x90>
 800308e:	f502 6280 	add.w	r2, r2, #1024	; 0x400
 8003092:	4290      	cmp	r0, r2
 8003094:	d01e      	beq.n	80030d4 <TIM_Base_SetConfig+0x90>
 8003096:	f502 6280 	add.w	r2, r2, #1024	; 0x400
 800309a:	4290      	cmp	r0, r2
 800309c:	d01a      	beq.n	80030d4 <TIM_Base_SetConfig+0x90>
 800309e:	f502 4278 	add.w	r2, r2, #63488	; 0xf800
 80030a2:	4290      	cmp	r0, r2
 80030a4:	d016      	beq.n	80030d4 <TIM_Base_SetConfig+0x90>
 80030a6:	4a19      	ldr	r2, [pc, #100]	; (800310c <TIM_Base_SetConfig+0xc8>)
 80030a8:	4290      	cmp	r0, r2
 80030aa:	d013      	beq.n	80030d4 <TIM_Base_SetConfig+0x90>
 80030ac:	f502 6280 	add.w	r2, r2, #1024	; 0x400
 80030b0:	4290      	cmp	r0, r2
 80030b2:	d00f      	beq.n	80030d4 <TIM_Base_SetConfig+0x90>
 80030b4:	f502 6280 	add.w	r2, r2, #1024	; 0x400
 80030b8:	4290      	cmp	r0, r2
 80030ba:	d00b      	beq.n	80030d4 <TIM_Base_SetConfig+0x90>
 80030bc:	f5a2 3298 	sub.w	r2, r2, #77824	; 0x13000
 80030c0:	4290      	cmp	r0, r2
 80030c2:	d007      	beq.n	80030d4 <TIM_Base_SetConfig+0x90>
 80030c4:	f502 6280 	add.w	r2, r2, #1024	; 0x400
 80030c8:	4290      	cmp	r0, r2
 80030ca:	d003      	beq.n	80030d4 <TIM_Base_SetConfig+0x90>
 80030cc:	f502 6280 	add.w	r2, r2, #1024	; 0x400
 80030d0:	4290      	cmp	r0, r2
 80030d2:	d103      	bne.n	80030dc <TIM_Base_SetConfig+0x98>
 80030d4:	f423 7340 	bic.w	r3, r3, #768	; 0x300
 80030d8:	68ca      	ldr	r2, [r1, #12]
 80030da:	4313      	orrs	r3, r2
 80030dc:	694a      	ldr	r2, [r1, #20]
 80030de:	f023 0380 	bic.w	r3, r3, #128	; 0x80
 80030e2:	4313      	orrs	r3, r2
 80030e4:	6003      	str	r3, [r0, #0]
 80030e6:	688b      	ldr	r3, [r1, #8]
 80030e8:	62c3      	str	r3, [r0, #44]	; 0x2c
 80030ea:	680b      	ldr	r3, [r1, #0]
 80030ec:	6283      	str	r3, [r0, #40]	; 0x28
 80030ee:	4b06      	ldr	r3, [pc, #24]	; (8003108 <TIM_Base_SetConfig+0xc4>)
 80030f0:	4298      	cmp	r0, r3
 80030f2:	d003      	beq.n	80030fc <TIM_Base_SetConfig+0xb8>
 80030f4:	f503 6380 	add.w	r3, r3, #1024	; 0x400
 80030f8:	4298      	cmp	r0, r3
 80030fa:	d101      	bne.n	8003100 <TIM_Base_SetConfig+0xbc>
 80030fc:	690b      	ldr	r3, [r1, #16]
 80030fe:	6303      	str	r3, [r0, #48]	; 0x30
 8003100:	2301      	movs	r3, #1
 8003102:	6143      	str	r3, [r0, #20]
 8003104:	4770      	bx	lr
 8003106:	bf00      	nop
 8003108:	40010000 	.word	0x40010000
 800310c:	40014000 	.word	0x40014000

08003110 <HAL_TIM_Base_Init>:
 8003110:	b510      	push	{r4, lr}
 8003112:	4604      	mov	r4, r0
 8003114:	b350      	cbz	r0, 800316c <HAL_TIM_Base_Init+0x5c>
 8003116:	f890 303d 	ldrb.w	r3, [r0, #61]	; 0x3d
 800311a:	f003 02ff 	and.w	r2, r3, #255	; 0xff
 800311e:	b91b      	cbnz	r3, 8003128 <HAL_TIM_Base_Init+0x18>
 8003120:	f880 203c 	strb.w	r2, [r0, #60]	; 0x3c
 8003124:	f7ff fe9a 	bl	8002e5c <HAL_TIM_Base_MspInit>
 8003128:	2302      	movs	r3, #2
 800312a:	6820      	ldr	r0, [r4, #0]
 800312c:	1d21      	adds	r1, r4, #4
 800312e:	f884 303d 	strb.w	r3, [r4, #61]	; 0x3d
 8003132:	f7ff ff87 	bl	8003044 <TIM_Base_SetConfig>
 8003136:	2301      	movs	r3, #1
 8003138:	2000      	movs	r0, #0
 800313a:	f884 3048 	strb.w	r3, [r4, #72]	; 0x48
 800313e:	f884 303e 	strb.w	r3, [r4, #62]	; 0x3e
 8003142:	f884 303f 	strb.w	r3, [r4, #63]	; 0x3f
 8003146:	f884 3040 	strb.w	r3, [r4, #64]	; 0x40
 800314a:	f884 3041 	strb.w	r3, [r4, #65]	; 0x41
 800314e:	f884 3042 	strb.w	r3, [r4, #66]	; 0x42
 8003152:	f884 3043 	strb.w	r3, [r4, #67]	; 0x43
 8003156:	f884 3044 	strb.w	r3, [r4, #68]	; 0x44
 800315a:	f884 3045 	strb.w	r3, [r4, #69]	; 0x45
 800315e:	f884 3046 	strb.w	r3, [r4, #70]	; 0x46
 8003162:	f884 3047 	strb.w	r3, [r4, #71]	; 0x47
 8003166:	f884 303d 	strb.w	r3, [r4, #61]	; 0x3d
 800316a:	bd10      	pop	{r4, pc}
 800316c:	2001      	movs	r0, #1
 800316e:	e7fc      	b.n	800316a <HAL_TIM_Base_Init+0x5a>

08003170 <HAL_TIMEx_CommutCallback>:
 8003170:	4770      	bx	lr

08003172 <HAL_TIMEx_BreakCallback>:
 8003172:	4770      	bx	lr

08003174 <HAL_TIMEx_Break2Callback>:
 8003174:	4770      	bx	lr

08003176 <UART_EndRxTransfer>:
 8003176:	6802      	ldr	r2, [r0, #0]
 8003178:	e852 3f00 	ldrex	r3, [r2]
 800317c:	f423 7390 	bic.w	r3, r3, #288	; 0x120
 8003180:	e842 3100 	strex	r1, r3, [r2]
 8003184:	6802      	ldr	r2, [r0, #0]
 8003186:	2900      	cmp	r1, #0
 8003188:	d1f5      	bne.n	8003176 <UART_EndRxTransfer>
 800318a:	f102 0308 	add.w	r3, r2, #8
 800318e:	e853 3f00 	ldrex	r3, [r3]
 8003192:	f023 0301 	bic.w	r3, r3, #1
 8003196:	f102 0c08 	add.w	ip, r2, #8
 800319a:	e84c 3100 	strex	r1, r3, [ip]
 800319e:	2900      	cmp	r1, #0
 80031a0:	d1f3      	bne.n	800318a <UART_EndRxTransfer+0x14>
 80031a2:	6e03      	ldr	r3, [r0, #96]	; 0x60
 80031a4:	2b01      	cmp	r3, #1
 80031a6:	d107      	bne.n	80031b8 <UART_EndRxTransfer+0x42>
 80031a8:	e852 3f00 	ldrex	r3, [r2]
 80031ac:	f023 0310 	bic.w	r3, r3, #16
 80031b0:	e842 3100 	strex	r1, r3, [r2]
 80031b4:	2900      	cmp	r1, #0
 80031b6:	d1f7      	bne.n	80031a8 <UART_EndRxTransfer+0x32>
 80031b8:	2320      	movs	r3, #32
 80031ba:	f8c0 3080 	str.w	r3, [r0, #128]	; 0x80
 80031be:	2300      	movs	r3, #0
 80031c0:	6603      	str	r3, [r0, #96]	; 0x60
 80031c2:	6683      	str	r3, [r0, #104]	; 0x68
 80031c4:	4770      	bx	lr

080031c6 <HAL_UART_TxCpltCallback>:
 80031c6:	4770      	bx	lr

080031c8 <HAL_UART_ErrorCallback>:
 80031c8:	4770      	bx	lr

080031ca <UART_DMAAbortOnError>:
 80031ca:	b508      	push	{r3, lr}
 80031cc:	6b80      	ldr	r0, [r0, #56]	; 0x38
 80031ce:	2300      	movs	r3, #0
 80031d0:	f8a0 305a 	strh.w	r3, [r0, #90]	; 0x5a
 80031d4:	f8a0 3052 	strh.w	r3, [r0, #82]	; 0x52
 80031d8:	f7ff fff6 	bl	80031c8 <HAL_UART_ErrorCallback>
 80031dc:	bd08      	pop	{r3, pc}

080031de <HAL_UARTEx_RxEventCallback>:
 80031de:	4770      	bx	lr

080031e0 <HAL_UART_IRQHandler>:
 80031e0:	6803      	ldr	r3, [r0, #0]
 80031e2:	b570      	push	{r4, r5, r6, lr}
 80031e4:	69da      	ldr	r2, [r3, #28]
 80031e6:	f640 060f 	movw	r6, #2063	; 0x80f
 80031ea:	6819      	ldr	r1, [r3, #0]
 80031ec:	4604      	mov	r4, r0
 80031ee:	4232      	tst	r2, r6
 80031f0:	689d      	ldr	r5, [r3, #8]
 80031f2:	d10b      	bne.n	800320c <HAL_UART_IRQHandler+0x2c>
 80031f4:	0696      	lsls	r6, r2, #26
 80031f6:	f140 8088 	bpl.w	800330a <HAL_UART_IRQHandler+0x12a>
 80031fa:	068d      	lsls	r5, r1, #26
 80031fc:	f140 8085 	bpl.w	800330a <HAL_UART_IRQHandler+0x12a>
 8003200:	6e83      	ldr	r3, [r0, #104]	; 0x68
 8003202:	2b00      	cmp	r3, #0
 8003204:	d07b      	beq.n	80032fe <HAL_UART_IRQHandler+0x11e>
 8003206:	e8bd 4070 	ldmia.w	sp!, {r4, r5, r6, lr}
 800320a:	4718      	bx	r3
 800320c:	f005 0001 	and.w	r0, r5, #1
 8003210:	4d93      	ldr	r5, [pc, #588]	; (8003460 <HAL_UART_IRQHandler+0x280>)
 8003212:	400d      	ands	r5, r1
 8003214:	4305      	orrs	r5, r0
 8003216:	d078      	beq.n	800330a <HAL_UART_IRQHandler+0x12a>
 8003218:	07d6      	lsls	r6, r2, #31
 800321a:	d509      	bpl.n	8003230 <HAL_UART_IRQHandler+0x50>
 800321c:	05cd      	lsls	r5, r1, #23
 800321e:	d507      	bpl.n	8003230 <HAL_UART_IRQHandler+0x50>
 8003220:	2501      	movs	r5, #1
 8003222:	621d      	str	r5, [r3, #32]
 8003224:	f8d4 5084 	ldr.w	r5, [r4, #132]	; 0x84
 8003228:	f045 0501 	orr.w	r5, r5, #1
 800322c:	f8c4 5084 	str.w	r5, [r4, #132]	; 0x84
 8003230:	0796      	lsls	r6, r2, #30
 8003232:	d508      	bpl.n	8003246 <HAL_UART_IRQHandler+0x66>
 8003234:	b138      	cbz	r0, 8003246 <HAL_UART_IRQHandler+0x66>
 8003236:	2502      	movs	r5, #2
 8003238:	621d      	str	r5, [r3, #32]
 800323a:	f8d4 5084 	ldr.w	r5, [r4, #132]	; 0x84
 800323e:	f045 0504 	orr.w	r5, r5, #4
 8003242:	f8c4 5084 	str.w	r5, [r4, #132]	; 0x84
 8003246:	0755      	lsls	r5, r2, #29
 8003248:	d508      	bpl.n	800325c <HAL_UART_IRQHandler+0x7c>
 800324a:	b138      	cbz	r0, 800325c <HAL_UART_IRQHandler+0x7c>
 800324c:	2504      	movs	r5, #4
 800324e:	621d      	str	r5, [r3, #32]
 8003250:	f8d4 5084 	ldr.w	r5, [r4, #132]	; 0x84
 8003254:	f045 0502 	orr.w	r5, r5, #2
 8003258:	f8c4 5084 	str.w	r5, [r4, #132]	; 0x84
 800325c:	0716      	lsls	r6, r2, #28
 800325e:	d50b      	bpl.n	8003278 <HAL_UART_IRQHandler+0x98>
 8003260:	f001 0520 	and.w	r5, r1, #32
 8003264:	4328      	orrs	r0, r5
 8003266:	d007      	beq.n	8003278 <HAL_UART_IRQHandler+0x98>
 8003268:	2008      	movs	r0, #8
 800326a:	6218      	str	r0, [r3, #32]
 800326c:	f8d4 0084 	ldr.w	r0, [r4, #132]	; 0x84
 8003270:	f040 0008 	orr.w	r0, r0, #8
 8003274:	f8c4 0084 	str.w	r0, [r4, #132]	; 0x84
 8003278:	0515      	lsls	r5, r2, #20
 800327a:	d50a      	bpl.n	8003292 <HAL_UART_IRQHandler+0xb2>
 800327c:	0148      	lsls	r0, r1, #5
 800327e:	d508      	bpl.n	8003292 <HAL_UART_IRQHandler+0xb2>
 8003280:	f44f 6000 	mov.w	r0, #2048	; 0x800
 8003284:	6218      	str	r0, [r3, #32]
 8003286:	f8d4 3084 	ldr.w	r3, [r4, #132]	; 0x84
 800328a:	f043 0320 	orr.w	r3, r3, #32
 800328e:	f8c4 3084 	str.w	r3, [r4, #132]	; 0x84
 8003292:	f8d4 3084 	ldr.w	r3, [r4, #132]	; 0x84
 8003296:	2b00      	cmp	r3, #0
 8003298:	d031      	beq.n	80032fe <HAL_UART_IRQHandler+0x11e>
 800329a:	0692      	lsls	r2, r2, #26
 800329c:	d505      	bpl.n	80032aa <HAL_UART_IRQHandler+0xca>
 800329e:	068b      	lsls	r3, r1, #26
 80032a0:	d503      	bpl.n	80032aa <HAL_UART_IRQHandler+0xca>
 80032a2:	6ea3      	ldr	r3, [r4, #104]	; 0x68
 80032a4:	b10b      	cbz	r3, 80032aa <HAL_UART_IRQHandler+0xca>
 80032a6:	4620      	mov	r0, r4
 80032a8:	4798      	blx	r3
 80032aa:	6823      	ldr	r3, [r4, #0]
 80032ac:	4620      	mov	r0, r4
 80032ae:	f8d4 5084 	ldr.w	r5, [r4, #132]	; 0x84
 80032b2:	689b      	ldr	r3, [r3, #8]
 80032b4:	f005 0528 	and.w	r5, r5, #40	; 0x28
 80032b8:	f003 0340 	and.w	r3, r3, #64	; 0x40
 80032bc:	431d      	orrs	r5, r3
 80032be:	d01f      	beq.n	8003300 <HAL_UART_IRQHandler+0x120>
 80032c0:	f7ff ff59 	bl	8003176 <UART_EndRxTransfer>
 80032c4:	6822      	ldr	r2, [r4, #0]
 80032c6:	6893      	ldr	r3, [r2, #8]
 80032c8:	065e      	lsls	r6, r3, #25
 80032ca:	d515      	bpl.n	80032f8 <HAL_UART_IRQHandler+0x118>
 80032cc:	f102 0308 	add.w	r3, r2, #8
 80032d0:	e853 3f00 	ldrex	r3, [r3]
 80032d4:	f023 0340 	bic.w	r3, r3, #64	; 0x40
 80032d8:	f102 0008 	add.w	r0, r2, #8
 80032dc:	e840 3100 	strex	r1, r3, [r0]
 80032e0:	2900      	cmp	r1, #0
 80032e2:	d1f3      	bne.n	80032cc <HAL_UART_IRQHandler+0xec>
 80032e4:	6f60      	ldr	r0, [r4, #116]	; 0x74
 80032e6:	b138      	cbz	r0, 80032f8 <HAL_UART_IRQHandler+0x118>
 80032e8:	4b5e      	ldr	r3, [pc, #376]	; (8003464 <HAL_UART_IRQHandler+0x284>)
 80032ea:	6503      	str	r3, [r0, #80]	; 0x50
 80032ec:	f7fe f994 	bl	8001618 <HAL_DMA_Abort_IT>
 80032f0:	b128      	cbz	r0, 80032fe <HAL_UART_IRQHandler+0x11e>
 80032f2:	6f60      	ldr	r0, [r4, #116]	; 0x74
 80032f4:	6d03      	ldr	r3, [r0, #80]	; 0x50
 80032f6:	e786      	b.n	8003206 <HAL_UART_IRQHandler+0x26>
 80032f8:	4620      	mov	r0, r4
 80032fa:	f7ff ff65 	bl	80031c8 <HAL_UART_ErrorCallback>
 80032fe:	bd70      	pop	{r4, r5, r6, pc}
 8003300:	f7ff ff62 	bl	80031c8 <HAL_UART_ErrorCallback>
 8003304:	f8c4 5084 	str.w	r5, [r4, #132]	; 0x84
 8003308:	e7f9      	b.n	80032fe <HAL_UART_IRQHandler+0x11e>
 800330a:	6e20      	ldr	r0, [r4, #96]	; 0x60
 800330c:	2801      	cmp	r0, #1
 800330e:	f040 8088 	bne.w	8003422 <HAL_UART_IRQHandler+0x242>
 8003312:	06d5      	lsls	r5, r2, #27
 8003314:	f140 8085 	bpl.w	8003422 <HAL_UART_IRQHandler+0x242>
 8003318:	06c8      	lsls	r0, r1, #27
 800331a:	f140 8082 	bpl.w	8003422 <HAL_UART_IRQHandler+0x242>
 800331e:	2210      	movs	r2, #16
 8003320:	621a      	str	r2, [r3, #32]
 8003322:	689a      	ldr	r2, [r3, #8]
 8003324:	0652      	lsls	r2, r2, #25
 8003326:	d54a      	bpl.n	80033be <HAL_UART_IRQHandler+0x1de>
 8003328:	6f61      	ldr	r1, [r4, #116]	; 0x74
 800332a:	680a      	ldr	r2, [r1, #0]
 800332c:	6852      	ldr	r2, [r2, #4]
 800332e:	b292      	uxth	r2, r2
 8003330:	2a00      	cmp	r2, #0
 8003332:	d0e4      	beq.n	80032fe <HAL_UART_IRQHandler+0x11e>
 8003334:	f8b4 0058 	ldrh.w	r0, [r4, #88]	; 0x58
 8003338:	4290      	cmp	r0, r2
 800333a:	d9e0      	bls.n	80032fe <HAL_UART_IRQHandler+0x11e>
 800333c:	f8a4 205a 	strh.w	r2, [r4, #90]	; 0x5a
 8003340:	69ca      	ldr	r2, [r1, #28]
 8003342:	f5b2 7f80 	cmp.w	r2, #256	; 0x100
 8003346:	d02e      	beq.n	80033a6 <HAL_UART_IRQHandler+0x1c6>
 8003348:	e853 2f00 	ldrex	r2, [r3]
 800334c:	f422 7280 	bic.w	r2, r2, #256	; 0x100
 8003350:	e843 2100 	strex	r1, r2, [r3]
 8003354:	2900      	cmp	r1, #0
 8003356:	d1f7      	bne.n	8003348 <HAL_UART_IRQHandler+0x168>
 8003358:	f103 0208 	add.w	r2, r3, #8
 800335c:	e852 2f00 	ldrex	r2, [r2]
 8003360:	f022 0201 	bic.w	r2, r2, #1
 8003364:	f103 0008 	add.w	r0, r3, #8
 8003368:	e840 2100 	strex	r1, r2, [r0]
 800336c:	2900      	cmp	r1, #0
 800336e:	d1f3      	bne.n	8003358 <HAL_UART_IRQHandler+0x178>
 8003370:	f103 0208 	add.w	r2, r3, #8
 8003374:	e852 2f00 	ldrex	r2, [r2]
 8003378:	f022 0240 	bic.w	r2, r2, #64	; 0x40
 800337c:	f103 0008 	add.w	r0, r3, #8
 8003380:	e840 2100 	strex	r1, r2, [r0]
 8003384:	2900      	cmp	r1, #0
 8003386:	d1f3      	bne.n	8003370 <HAL_UART_IRQHandler+0x190>
 8003388:	2220      	movs	r2, #32
 800338a:	f8c4 2080 	str.w	r2, [r4, #128]	; 0x80
 800338e:	6621      	str	r1, [r4, #96]	; 0x60
 8003390:	e853 2f00 	ldrex	r2, [r3]
 8003394:	f022 0210 	bic.w	r2, r2, #16
 8003398:	e843 2100 	strex	r1, r2, [r3]
 800339c:	2900      	cmp	r1, #0
 800339e:	d1f7      	bne.n	8003390 <HAL_UART_IRQHandler+0x1b0>
 80033a0:	6f60      	ldr	r0, [r4, #116]	; 0x74
 80033a2:	f7fe f8f5 	bl	8001590 <HAL_DMA_Abort>
 80033a6:	2302      	movs	r3, #2
 80033a8:	f8b4 1058 	ldrh.w	r1, [r4, #88]	; 0x58
 80033ac:	6663      	str	r3, [r4, #100]	; 0x64
 80033ae:	f8b4 305a 	ldrh.w	r3, [r4, #90]	; 0x5a
 80033b2:	1ac9      	subs	r1, r1, r3
 80033b4:	b289      	uxth	r1, r1
 80033b6:	4620      	mov	r0, r4
 80033b8:	f7ff ff11 	bl	80031de <HAL_UARTEx_RxEventCallback>
 80033bc:	e79f      	b.n	80032fe <HAL_UART_IRQHandler+0x11e>
 80033be:	f8b4 105a 	ldrh.w	r1, [r4, #90]	; 0x5a
 80033c2:	b28a      	uxth	r2, r1
 80033c4:	f8b4 105a 	ldrh.w	r1, [r4, #90]	; 0x5a
 80033c8:	b289      	uxth	r1, r1
 80033ca:	2900      	cmp	r1, #0
 80033cc:	d097      	beq.n	80032fe <HAL_UART_IRQHandler+0x11e>
 80033ce:	f8b4 1058 	ldrh.w	r1, [r4, #88]	; 0x58
 80033d2:	1a89      	subs	r1, r1, r2
 80033d4:	b289      	uxth	r1, r1
 80033d6:	2900      	cmp	r1, #0
 80033d8:	d091      	beq.n	80032fe <HAL_UART_IRQHandler+0x11e>
 80033da:	e853 2f00 	ldrex	r2, [r3]
 80033de:	f422 7290 	bic.w	r2, r2, #288	; 0x120
 80033e2:	e843 2000 	strex	r0, r2, [r3]
 80033e6:	2800      	cmp	r0, #0
 80033e8:	d1f7      	bne.n	80033da <HAL_UART_IRQHandler+0x1fa>
 80033ea:	f103 0208 	add.w	r2, r3, #8
 80033ee:	e852 2f00 	ldrex	r2, [r2]
 80033f2:	f022 0201 	bic.w	r2, r2, #1
 80033f6:	f103 0508 	add.w	r5, r3, #8
 80033fa:	e845 2000 	strex	r0, r2, [r5]
 80033fe:	2800      	cmp	r0, #0
 8003400:	d1f3      	bne.n	80033ea <HAL_UART_IRQHandler+0x20a>
 8003402:	2220      	movs	r2, #32
 8003404:	66a0      	str	r0, [r4, #104]	; 0x68
 8003406:	f8c4 2080 	str.w	r2, [r4, #128]	; 0x80
 800340a:	6620      	str	r0, [r4, #96]	; 0x60
 800340c:	e853 2f00 	ldrex	r2, [r3]
 8003410:	f022 0210 	bic.w	r2, r2, #16
 8003414:	e843 2000 	strex	r0, r2, [r3]
 8003418:	2800      	cmp	r0, #0
 800341a:	d1f7      	bne.n	800340c <HAL_UART_IRQHandler+0x22c>
 800341c:	2302      	movs	r3, #2
 800341e:	6663      	str	r3, [r4, #100]	; 0x64
 8003420:	e7c9      	b.n	80033b6 <HAL_UART_IRQHandler+0x1d6>
 8003422:	0616      	lsls	r6, r2, #24
 8003424:	d507      	bpl.n	8003436 <HAL_UART_IRQHandler+0x256>
 8003426:	060d      	lsls	r5, r1, #24
 8003428:	d505      	bpl.n	8003436 <HAL_UART_IRQHandler+0x256>
 800342a:	6ee3      	ldr	r3, [r4, #108]	; 0x6c
 800342c:	2b00      	cmp	r3, #0
 800342e:	f43f af66 	beq.w	80032fe <HAL_UART_IRQHandler+0x11e>
 8003432:	4620      	mov	r0, r4
 8003434:	e6e7      	b.n	8003206 <HAL_UART_IRQHandler+0x26>
 8003436:	0650      	lsls	r0, r2, #25
 8003438:	f57f af61 	bpl.w	80032fe <HAL_UART_IRQHandler+0x11e>
 800343c:	064a      	lsls	r2, r1, #25
 800343e:	f57f af5e 	bpl.w	80032fe <HAL_UART_IRQHandler+0x11e>
 8003442:	e853 2f00 	ldrex	r2, [r3]
 8003446:	f022 0240 	bic.w	r2, r2, #64	; 0x40
 800344a:	e843 2100 	strex	r1, r2, [r3]
 800344e:	2900      	cmp	r1, #0
 8003450:	d1f7      	bne.n	8003442 <HAL_UART_IRQHandler+0x262>
 8003452:	2320      	movs	r3, #32
 8003454:	4620      	mov	r0, r4
 8003456:	66e1      	str	r1, [r4, #108]	; 0x6c
 8003458:	67e3      	str	r3, [r4, #124]	; 0x7c
 800345a:	f7ff feb4 	bl	80031c6 <HAL_UART_TxCpltCallback>
 800345e:	e74e      	b.n	80032fe <HAL_UART_IRQHandler+0x11e>
 8003460:	04000120 	.word	0x04000120
 8003464:	080031cb 	.word	0x080031cb

08003468 <UART_SetConfig>:
 8003468:	b538      	push	{r3, r4, r5, lr}
 800346a:	4604      	mov	r4, r0
 800346c:	69c0      	ldr	r0, [r0, #28]
 800346e:	6921      	ldr	r1, [r4, #16]
 8003470:	68a2      	ldr	r2, [r4, #8]
 8003472:	6823      	ldr	r3, [r4, #0]
 8003474:	430a      	orrs	r2, r1
 8003476:	6961      	ldr	r1, [r4, #20]
 8003478:	681d      	ldr	r5, [r3, #0]
 800347a:	430a      	orrs	r2, r1
 800347c:	4990      	ldr	r1, [pc, #576]	; (80036c0 <UART_SetConfig+0x258>)
 800347e:	4302      	orrs	r2, r0
 8003480:	4029      	ands	r1, r5
 8003482:	6a25      	ldr	r5, [r4, #32]
 8003484:	430a      	orrs	r2, r1
 8003486:	68e1      	ldr	r1, [r4, #12]
 8003488:	601a      	str	r2, [r3, #0]
 800348a:	685a      	ldr	r2, [r3, #4]
 800348c:	f422 5240 	bic.w	r2, r2, #12288	; 0x3000
 8003490:	430a      	orrs	r2, r1
 8003492:	605a      	str	r2, [r3, #4]
 8003494:	69a2      	ldr	r2, [r4, #24]
 8003496:	6899      	ldr	r1, [r3, #8]
 8003498:	432a      	orrs	r2, r5
 800349a:	f421 6130 	bic.w	r1, r1, #2816	; 0xb00
 800349e:	430a      	orrs	r2, r1
 80034a0:	609a      	str	r2, [r3, #8]
 80034a2:	4a88      	ldr	r2, [pc, #544]	; (80036c4 <UART_SetConfig+0x25c>)
 80034a4:	4293      	cmp	r3, r2
 80034a6:	d11b      	bne.n	80034e0 <UART_SetConfig+0x78>
 80034a8:	4b87      	ldr	r3, [pc, #540]	; (80036c8 <UART_SetConfig+0x260>)
 80034aa:	f8d3 3090 	ldr.w	r3, [r3, #144]	; 0x90
 80034ae:	f003 0303 	and.w	r3, r3, #3
 80034b2:	3b01      	subs	r3, #1
 80034b4:	2b02      	cmp	r3, #2
 80034b6:	f200 80f0 	bhi.w	800369a <UART_SetConfig+0x232>
 80034ba:	4a84      	ldr	r2, [pc, #528]	; (80036cc <UART_SetConfig+0x264>)
 80034bc:	f5b0 4f00 	cmp.w	r0, #32768	; 0x8000
 80034c0:	5cd3      	ldrb	r3, [r2, r3]
 80034c2:	f040 80ae 	bne.w	8003622 <UART_SetConfig+0x1ba>
 80034c6:	2b08      	cmp	r3, #8
 80034c8:	d826      	bhi.n	8003518 <UART_SetConfig+0xb0>
 80034ca:	e8df f013 	tbh	[pc, r3, lsl #1]
 80034ce:	00ef      	.short	0x00ef
 80034d0:	009400e9 	.word	0x009400e9
 80034d4:	00e30025 	.word	0x00e30025
 80034d8:	00250025 	.word	0x00250025
 80034dc:	00950025 	.word	0x00950025
 80034e0:	4a7b      	ldr	r2, [pc, #492]	; (80036d0 <UART_SetConfig+0x268>)
 80034e2:	4293      	cmp	r3, r2
 80034e4:	d106      	bne.n	80034f4 <UART_SetConfig+0x8c>
 80034e6:	4b78      	ldr	r3, [pc, #480]	; (80036c8 <UART_SetConfig+0x260>)
 80034e8:	4a7a      	ldr	r2, [pc, #488]	; (80036d4 <UART_SetConfig+0x26c>)
 80034ea:	f8d3 3090 	ldr.w	r3, [r3, #144]	; 0x90
 80034ee:	f003 030c 	and.w	r3, r3, #12
 80034f2:	e7e3      	b.n	80034bc <UART_SetConfig+0x54>
 80034f4:	4a78      	ldr	r2, [pc, #480]	; (80036d8 <UART_SetConfig+0x270>)
 80034f6:	4293      	cmp	r3, r2
 80034f8:	d118      	bne.n	800352c <UART_SetConfig+0xc4>
 80034fa:	4b73      	ldr	r3, [pc, #460]	; (80036c8 <UART_SetConfig+0x260>)
 80034fc:	f8d3 3090 	ldr.w	r3, [r3, #144]	; 0x90
 8003500:	f003 0330 	and.w	r3, r3, #48	; 0x30
 8003504:	2b20      	cmp	r3, #32
 8003506:	f000 80bd 	beq.w	8003684 <UART_SetConfig+0x21c>
 800350a:	d807      	bhi.n	800351c <UART_SetConfig+0xb4>
 800350c:	2b00      	cmp	r3, #0
 800350e:	f000 80ca 	beq.w	80036a6 <UART_SetConfig+0x23e>
 8003512:	2b10      	cmp	r3, #16
 8003514:	f000 80bb 	beq.w	800368e <UART_SetConfig+0x226>
 8003518:	2001      	movs	r0, #1
 800351a:	e0cc      	b.n	80036b6 <UART_SetConfig+0x24e>
 800351c:	2b30      	cmp	r3, #48	; 0x30
 800351e:	d1fb      	bne.n	8003518 <UART_SetConfig+0xb0>
 8003520:	f5b0 4f00 	cmp.w	r0, #32768	; 0x8000
 8003524:	d068      	beq.n	80035f8 <UART_SetConfig+0x190>
 8003526:	f44f 4000 	mov.w	r0, #32768	; 0x8000
 800352a:	e096      	b.n	800365a <UART_SetConfig+0x1f2>
 800352c:	4a6b      	ldr	r2, [pc, #428]	; (80036dc <UART_SetConfig+0x274>)
 800352e:	4293      	cmp	r3, r2
 8003530:	d10f      	bne.n	8003552 <UART_SetConfig+0xea>
 8003532:	4b65      	ldr	r3, [pc, #404]	; (80036c8 <UART_SetConfig+0x260>)
 8003534:	f8d3 3090 	ldr.w	r3, [r3, #144]	; 0x90
 8003538:	f003 03c0 	and.w	r3, r3, #192	; 0xc0
 800353c:	2b80      	cmp	r3, #128	; 0x80
 800353e:	f000 80a1 	beq.w	8003684 <UART_SetConfig+0x21c>
 8003542:	d804      	bhi.n	800354e <UART_SetConfig+0xe6>
 8003544:	2b00      	cmp	r3, #0
 8003546:	f000 80ae 	beq.w	80036a6 <UART_SetConfig+0x23e>
 800354a:	2b40      	cmp	r3, #64	; 0x40
 800354c:	e7e2      	b.n	8003514 <UART_SetConfig+0xac>
 800354e:	2bc0      	cmp	r3, #192	; 0xc0
 8003550:	e7e5      	b.n	800351e <UART_SetConfig+0xb6>
 8003552:	4a63      	ldr	r2, [pc, #396]	; (80036e0 <UART_SetConfig+0x278>)
 8003554:	4293      	cmp	r3, r2
 8003556:	d112      	bne.n	800357e <UART_SetConfig+0x116>
 8003558:	4b5b      	ldr	r3, [pc, #364]	; (80036c8 <UART_SetConfig+0x260>)
 800355a:	f8d3 3090 	ldr.w	r3, [r3, #144]	; 0x90
 800355e:	f403 7340 	and.w	r3, r3, #768	; 0x300
 8003562:	f5b3 7f00 	cmp.w	r3, #512	; 0x200
 8003566:	f000 808d 	beq.w	8003684 <UART_SetConfig+0x21c>
 800356a:	d805      	bhi.n	8003578 <UART_SetConfig+0x110>
 800356c:	2b00      	cmp	r3, #0
 800356e:	f000 809a 	beq.w	80036a6 <UART_SetConfig+0x23e>
 8003572:	f5b3 7f80 	cmp.w	r3, #256	; 0x100
 8003576:	e7cd      	b.n	8003514 <UART_SetConfig+0xac>
 8003578:	f5b3 7f40 	cmp.w	r3, #768	; 0x300
 800357c:	e7cf      	b.n	800351e <UART_SetConfig+0xb6>
 800357e:	4a59      	ldr	r2, [pc, #356]	; (80036e4 <UART_SetConfig+0x27c>)
 8003580:	4293      	cmp	r3, r2
 8003582:	d110      	bne.n	80035a6 <UART_SetConfig+0x13e>
 8003584:	4b50      	ldr	r3, [pc, #320]	; (80036c8 <UART_SetConfig+0x260>)
 8003586:	f8d3 3090 	ldr.w	r3, [r3, #144]	; 0x90
 800358a:	f403 6340 	and.w	r3, r3, #3072	; 0xc00
 800358e:	f5b3 6f00 	cmp.w	r3, #2048	; 0x800
 8003592:	d077      	beq.n	8003684 <UART_SetConfig+0x21c>
 8003594:	d804      	bhi.n	80035a0 <UART_SetConfig+0x138>
 8003596:	2b00      	cmp	r3, #0
 8003598:	d07f      	beq.n	800369a <UART_SetConfig+0x232>
 800359a:	f5b3 6f80 	cmp.w	r3, #1024	; 0x400
 800359e:	e7b9      	b.n	8003514 <UART_SetConfig+0xac>
 80035a0:	f5b3 6f40 	cmp.w	r3, #3072	; 0xc00
 80035a4:	e7bb      	b.n	800351e <UART_SetConfig+0xb6>
 80035a6:	4a50      	ldr	r2, [pc, #320]	; (80036e8 <UART_SetConfig+0x280>)
 80035a8:	4293      	cmp	r3, r2
 80035aa:	d110      	bne.n	80035ce <UART_SetConfig+0x166>
 80035ac:	4b46      	ldr	r3, [pc, #280]	; (80036c8 <UART_SetConfig+0x260>)
 80035ae:	f8d3 3090 	ldr.w	r3, [r3, #144]	; 0x90
 80035b2:	f403 5340 	and.w	r3, r3, #12288	; 0x3000
 80035b6:	f5b3 5f00 	cmp.w	r3, #8192	; 0x2000
 80035ba:	d063      	beq.n	8003684 <UART_SetConfig+0x21c>
 80035bc:	d804      	bhi.n	80035c8 <UART_SetConfig+0x160>
 80035be:	2b00      	cmp	r3, #0
 80035c0:	d071      	beq.n	80036a6 <UART_SetConfig+0x23e>
 80035c2:	f5b3 5f80 	cmp.w	r3, #4096	; 0x1000
 80035c6:	e7a5      	b.n	8003514 <UART_SetConfig+0xac>
 80035c8:	f5b3 5f40 	cmp.w	r3, #12288	; 0x3000
 80035cc:	e7a7      	b.n	800351e <UART_SetConfig+0xb6>
 80035ce:	4a47      	ldr	r2, [pc, #284]	; (80036ec <UART_SetConfig+0x284>)
 80035d0:	4293      	cmp	r3, r2
 80035d2:	d1a1      	bne.n	8003518 <UART_SetConfig+0xb0>
 80035d4:	4b3c      	ldr	r3, [pc, #240]	; (80036c8 <UART_SetConfig+0x260>)
 80035d6:	f8d3 3090 	ldr.w	r3, [r3, #144]	; 0x90
 80035da:	f403 4340 	and.w	r3, r3, #49152	; 0xc000
 80035de:	f5b3 4f00 	cmp.w	r3, #32768	; 0x8000
 80035e2:	d04f      	beq.n	8003684 <UART_SetConfig+0x21c>
 80035e4:	d804      	bhi.n	80035f0 <UART_SetConfig+0x188>
 80035e6:	2b00      	cmp	r3, #0
 80035e8:	d05d      	beq.n	80036a6 <UART_SetConfig+0x23e>
 80035ea:	f5b3 4f80 	cmp.w	r3, #16384	; 0x4000
 80035ee:	e791      	b.n	8003514 <UART_SetConfig+0xac>
 80035f0:	f5b3 4f40 	cmp.w	r3, #49152	; 0xc000
 80035f4:	e793      	b.n	800351e <UART_SetConfig+0xb6>
 80035f6:	483e      	ldr	r0, [pc, #248]	; (80036f0 <UART_SetConfig+0x288>)
 80035f8:	6862      	ldr	r2, [r4, #4]
 80035fa:	0853      	lsrs	r3, r2, #1
 80035fc:	eb03 0040 	add.w	r0, r3, r0, lsl #1
 8003600:	f64f 73ef 	movw	r3, #65519	; 0xffef
 8003604:	fbb0 f0f2 	udiv	r0, r0, r2
 8003608:	f1a0 0210 	sub.w	r2, r0, #16
 800360c:	429a      	cmp	r2, r3
 800360e:	d883      	bhi.n	8003518 <UART_SetConfig+0xb0>
 8003610:	f020 030f 	bic.w	r3, r0, #15
 8003614:	f3c0 0042 	ubfx	r0, r0, #1, #3
 8003618:	6822      	ldr	r2, [r4, #0]
 800361a:	b29b      	uxth	r3, r3
 800361c:	4318      	orrs	r0, r3
 800361e:	60d0      	str	r0, [r2, #12]
 8003620:	e048      	b.n	80036b4 <UART_SetConfig+0x24c>
 8003622:	2b08      	cmp	r3, #8
 8003624:	f63f af78 	bhi.w	8003518 <UART_SetConfig+0xb0>
 8003628:	a201      	add	r2, pc, #4	; (adr r2, 8003630 <UART_SetConfig+0x1c8>)
 800362a:	f852 f023 	ldr.w	pc, [r2, r3, lsl #2]
 800362e:	bf00      	nop
 8003630:	08003655 	.word	0x08003655
 8003634:	08003679 	.word	0x08003679
 8003638:	0800368b 	.word	0x0800368b
 800363c:	08003519 	.word	0x08003519
 8003640:	0800367f 	.word	0x0800367f
 8003644:	08003519 	.word	0x08003519
 8003648:	08003519 	.word	0x08003519
 800364c:	08003519 	.word	0x08003519
 8003650:	08003527 	.word	0x08003527
 8003654:	f7ff f984 	bl	8002960 <HAL_RCC_GetPCLK1Freq>
 8003658:	b360      	cbz	r0, 80036b4 <UART_SetConfig+0x24c>
 800365a:	6862      	ldr	r2, [r4, #4]
 800365c:	eb00 0352 	add.w	r3, r0, r2, lsr #1
 8003660:	fbb3 f3f2 	udiv	r3, r3, r2
 8003664:	f64f 72ef 	movw	r2, #65519	; 0xffef
 8003668:	f1a3 0110 	sub.w	r1, r3, #16
 800366c:	4291      	cmp	r1, r2
 800366e:	f63f af53 	bhi.w	8003518 <UART_SetConfig+0xb0>
 8003672:	6822      	ldr	r2, [r4, #0]
 8003674:	60d3      	str	r3, [r2, #12]
 8003676:	e01d      	b.n	80036b4 <UART_SetConfig+0x24c>
 8003678:	f7ff f982 	bl	8002980 <HAL_RCC_GetPCLK2Freq>
 800367c:	e7ec      	b.n	8003658 <UART_SetConfig+0x1f0>
 800367e:	f7ff f8a1 	bl	80027c4 <HAL_RCC_GetSysClockFreq>
 8003682:	e7e9      	b.n	8003658 <UART_SetConfig+0x1f0>
 8003684:	f5b0 4f00 	cmp.w	r0, #32768	; 0x8000
 8003688:	d0b5      	beq.n	80035f6 <UART_SetConfig+0x18e>
 800368a:	4819      	ldr	r0, [pc, #100]	; (80036f0 <UART_SetConfig+0x288>)
 800368c:	e7e5      	b.n	800365a <UART_SetConfig+0x1f2>
 800368e:	f5b0 4f00 	cmp.w	r0, #32768	; 0x8000
 8003692:	d1f4      	bne.n	800367e <UART_SetConfig+0x216>
 8003694:	f7ff f896 	bl	80027c4 <HAL_RCC_GetSysClockFreq>
 8003698:	e00a      	b.n	80036b0 <UART_SetConfig+0x248>
 800369a:	f5b0 4f00 	cmp.w	r0, #32768	; 0x8000
 800369e:	d1eb      	bne.n	8003678 <UART_SetConfig+0x210>
 80036a0:	f7ff f96e 	bl	8002980 <HAL_RCC_GetPCLK2Freq>
 80036a4:	e004      	b.n	80036b0 <UART_SetConfig+0x248>
 80036a6:	f5b0 4f00 	cmp.w	r0, #32768	; 0x8000
 80036aa:	d1d3      	bne.n	8003654 <UART_SetConfig+0x1ec>
 80036ac:	f7ff f958 	bl	8002960 <HAL_RCC_GetPCLK1Freq>
 80036b0:	2800      	cmp	r0, #0
 80036b2:	d1a1      	bne.n	80035f8 <UART_SetConfig+0x190>
 80036b4:	2000      	movs	r0, #0
 80036b6:	2300      	movs	r3, #0
 80036b8:	e9c4 331a 	strd	r3, r3, [r4, #104]	; 0x68
 80036bc:	bd38      	pop	{r3, r4, r5, pc}
 80036be:	bf00      	nop
 80036c0:	efff69f3 	.word	0xefff69f3
 80036c4:	40011000 	.word	0x40011000
 80036c8:	40023800 	.word	0x40023800
 80036cc:	08007532 	.word	0x08007532
 80036d0:	40004400 	.word	0x40004400
 80036d4:	08007535 	.word	0x08007535
 80036d8:	40004800 	.word	0x40004800
 80036dc:	40004c00 	.word	0x40004c00
 80036e0:	40005000 	.word	0x40005000
 80036e4:	40011400 	.word	0x40011400
 80036e8:	40007800 	.word	0x40007800
 80036ec:	40007c00 	.word	0x40007c00
 80036f0:	00f42400 	.word	0x00f42400

080036f4 <UART_AdvFeatureConfig>:
 80036f4:	6a43      	ldr	r3, [r0, #36]	; 0x24
 80036f6:	07da      	lsls	r2, r3, #31
 80036f8:	b510      	push	{r4, lr}
 80036fa:	d506      	bpl.n	800370a <UART_AdvFeatureConfig+0x16>
 80036fc:	6801      	ldr	r1, [r0, #0]
 80036fe:	6a84      	ldr	r4, [r0, #40]	; 0x28
 8003700:	684a      	ldr	r2, [r1, #4]
 8003702:	f422 3200 	bic.w	r2, r2, #131072	; 0x20000
 8003706:	4322      	orrs	r2, r4
 8003708:	604a      	str	r2, [r1, #4]
 800370a:	079c      	lsls	r4, r3, #30
 800370c:	d506      	bpl.n	800371c <UART_AdvFeatureConfig+0x28>
 800370e:	6801      	ldr	r1, [r0, #0]
 8003710:	6ac4      	ldr	r4, [r0, #44]	; 0x2c
 8003712:	684a      	ldr	r2, [r1, #4]
 8003714:	f422 3280 	bic.w	r2, r2, #65536	; 0x10000
 8003718:	4322      	orrs	r2, r4
 800371a:	604a      	str	r2, [r1, #4]
 800371c:	0759      	lsls	r1, r3, #29
 800371e:	d506      	bpl.n	800372e <UART_AdvFeatureConfig+0x3a>
 8003720:	6801      	ldr	r1, [r0, #0]
 8003722:	6b04      	ldr	r4, [r0, #48]	; 0x30
 8003724:	684a      	ldr	r2, [r1, #4]
 8003726:	f422 2280 	bic.w	r2, r2, #262144	; 0x40000
 800372a:	4322      	orrs	r2, r4
 800372c:	604a      	str	r2, [r1, #4]
 800372e:	071a      	lsls	r2, r3, #28
 8003730:	d506      	bpl.n	8003740 <UART_AdvFeatureConfig+0x4c>
 8003732:	6801      	ldr	r1, [r0, #0]
 8003734:	6b44      	ldr	r4, [r0, #52]	; 0x34
 8003736:	684a      	ldr	r2, [r1, #4]
 8003738:	f422 4200 	bic.w	r2, r2, #32768	; 0x8000
 800373c:	4322      	orrs	r2, r4
 800373e:	604a      	str	r2, [r1, #4]
 8003740:	06dc      	lsls	r4, r3, #27
 8003742:	d506      	bpl.n	8003752 <UART_AdvFeatureConfig+0x5e>
 8003744:	6801      	ldr	r1, [r0, #0]
 8003746:	6b84      	ldr	r4, [r0, #56]	; 0x38
 8003748:	688a      	ldr	r2, [r1, #8]
 800374a:	f422 5280 	bic.w	r2, r2, #4096	; 0x1000
 800374e:	4322      	orrs	r2, r4
 8003750:	608a      	str	r2, [r1, #8]
 8003752:	0699      	lsls	r1, r3, #26
 8003754:	d506      	bpl.n	8003764 <UART_AdvFeatureConfig+0x70>
 8003756:	6801      	ldr	r1, [r0, #0]
 8003758:	6bc4      	ldr	r4, [r0, #60]	; 0x3c
 800375a:	688a      	ldr	r2, [r1, #8]
 800375c:	f422 5200 	bic.w	r2, r2, #8192	; 0x2000
 8003760:	4322      	orrs	r2, r4
 8003762:	608a      	str	r2, [r1, #8]
 8003764:	065a      	lsls	r2, r3, #25
 8003766:	d510      	bpl.n	800378a <UART_AdvFeatureConfig+0x96>
 8003768:	6801      	ldr	r1, [r0, #0]
 800376a:	6c04      	ldr	r4, [r0, #64]	; 0x40
 800376c:	684a      	ldr	r2, [r1, #4]
 800376e:	f5b4 1f80 	cmp.w	r4, #1048576	; 0x100000
 8003772:	f422 1280 	bic.w	r2, r2, #1048576	; 0x100000
 8003776:	ea42 0204 	orr.w	r2, r2, r4
 800377a:	604a      	str	r2, [r1, #4]
 800377c:	d105      	bne.n	800378a <UART_AdvFeatureConfig+0x96>
 800377e:	684a      	ldr	r2, [r1, #4]
 8003780:	6c44      	ldr	r4, [r0, #68]	; 0x44
 8003782:	f422 02c0 	bic.w	r2, r2, #6291456	; 0x600000
 8003786:	4322      	orrs	r2, r4
 8003788:	604a      	str	r2, [r1, #4]
 800378a:	061b      	lsls	r3, r3, #24
 800378c:	d506      	bpl.n	800379c <UART_AdvFeatureConfig+0xa8>
 800378e:	6802      	ldr	r2, [r0, #0]
 8003790:	6c81      	ldr	r1, [r0, #72]	; 0x48
 8003792:	6853      	ldr	r3, [r2, #4]
 8003794:	f423 2300 	bic.w	r3, r3, #524288	; 0x80000
 8003798:	430b      	orrs	r3, r1
 800379a:	6053      	str	r3, [r2, #4]
 800379c:	bd10      	pop	{r4, pc}

0800379e <UART_WaitOnFlagUntilTimeout>:
 800379e:	e92d 41f0 	stmdb	sp!, {r4, r5, r6, r7, r8, lr}
 80037a2:	f8dd 8018 	ldr.w	r8, [sp, #24]
 80037a6:	4604      	mov	r4, r0
 80037a8:	460e      	mov	r6, r1
 80037aa:	4615      	mov	r5, r2
 80037ac:	461f      	mov	r7, r3
 80037ae:	6822      	ldr	r2, [r4, #0]
 80037b0:	69d3      	ldr	r3, [r2, #28]
 80037b2:	ea36 0303 	bics.w	r3, r6, r3
 80037b6:	bf0c      	ite	eq
 80037b8:	2301      	moveq	r3, #1
 80037ba:	2300      	movne	r3, #0
 80037bc:	42ab      	cmp	r3, r5
 80037be:	d001      	beq.n	80037c4 <UART_WaitOnFlagUntilTimeout+0x26>
 80037c0:	2000      	movs	r0, #0
 80037c2:	e026      	b.n	8003812 <UART_WaitOnFlagUntilTimeout+0x74>
 80037c4:	f1b8 3fff 	cmp.w	r8, #4294967295
 80037c8:	d0f2      	beq.n	80037b0 <UART_WaitOnFlagUntilTimeout+0x12>
 80037ca:	f7fd fe0d 	bl	80013e8 <HAL_GetTick>
 80037ce:	1bc0      	subs	r0, r0, r7
 80037d0:	4540      	cmp	r0, r8
 80037d2:	6820      	ldr	r0, [r4, #0]
 80037d4:	d802      	bhi.n	80037dc <UART_WaitOnFlagUntilTimeout+0x3e>
 80037d6:	f1b8 0f00 	cmp.w	r8, #0
 80037da:	d11c      	bne.n	8003816 <UART_WaitOnFlagUntilTimeout+0x78>
 80037dc:	e850 3f00 	ldrex	r3, [r0]
 80037e0:	f423 73d0 	bic.w	r3, r3, #416	; 0x1a0
 80037e4:	e840 3200 	strex	r2, r3, [r0]
 80037e8:	2a00      	cmp	r2, #0
 80037ea:	d1f7      	bne.n	80037dc <UART_WaitOnFlagUntilTimeout+0x3e>
 80037ec:	f100 0308 	add.w	r3, r0, #8
 80037f0:	e853 3f00 	ldrex	r3, [r3]
 80037f4:	f023 0301 	bic.w	r3, r3, #1
 80037f8:	f100 0108 	add.w	r1, r0, #8
 80037fc:	e841 3200 	strex	r2, r3, [r1]
 8003800:	2a00      	cmp	r2, #0
 8003802:	d1f3      	bne.n	80037ec <UART_WaitOnFlagUntilTimeout+0x4e>
 8003804:	2320      	movs	r3, #32
 8003806:	67e3      	str	r3, [r4, #124]	; 0x7c
 8003808:	f8c4 3080 	str.w	r3, [r4, #128]	; 0x80
 800380c:	2003      	movs	r0, #3
 800380e:	f884 2078 	strb.w	r2, [r4, #120]	; 0x78
 8003812:	e8bd 81f0 	ldmia.w	sp!, {r4, r5, r6, r7, r8, pc}
 8003816:	6803      	ldr	r3, [r0, #0]
 8003818:	075a      	lsls	r2, r3, #29
 800381a:	d5c8      	bpl.n	80037ae <UART_WaitOnFlagUntilTimeout+0x10>
 800381c:	69c3      	ldr	r3, [r0, #28]
 800381e:	051b      	lsls	r3, r3, #20
 8003820:	d5c5      	bpl.n	80037ae <UART_WaitOnFlagUntilTimeout+0x10>
 8003822:	f44f 6300 	mov.w	r3, #2048	; 0x800
 8003826:	6203      	str	r3, [r0, #32]
 8003828:	e850 3f00 	ldrex	r3, [r0]
 800382c:	f423 73d0 	bic.w	r3, r3, #416	; 0x1a0
 8003830:	e840 3200 	strex	r2, r3, [r0]
 8003834:	2a00      	cmp	r2, #0
 8003836:	d1f7      	bne.n	8003828 <UART_WaitOnFlagUntilTimeout+0x8a>
 8003838:	f100 0308 	add.w	r3, r0, #8
 800383c:	e853 3f00 	ldrex	r3, [r3]
 8003840:	f023 0301 	bic.w	r3, r3, #1
 8003844:	f100 0108 	add.w	r1, r0, #8
 8003848:	e841 3200 	strex	r2, r3, [r1]
 800384c:	2a00      	cmp	r2, #0
 800384e:	d1f3      	bne.n	8003838 <UART_WaitOnFlagUntilTimeout+0x9a>
 8003850:	2320      	movs	r3, #32
 8003852:	67e3      	str	r3, [r4, #124]	; 0x7c
 8003854:	f8c4 3080 	str.w	r3, [r4, #128]	; 0x80
 8003858:	f8c4 3084 	str.w	r3, [r4, #132]	; 0x84
 800385c:	e7d6      	b.n	800380c <UART_WaitOnFlagUntilTimeout+0x6e>

0800385e <UART_CheckIdleState>:
 800385e:	b537      	push	{r0, r1, r2, r4, r5, lr}
 8003860:	2500      	movs	r5, #0
 8003862:	4604      	mov	r4, r0
 8003864:	f8c0 5084 	str.w	r5, [r0, #132]	; 0x84
 8003868:	f7fd fdbe 	bl	80013e8 <HAL_GetTick>
 800386c:	6822      	ldr	r2, [r4, #0]
 800386e:	4603      	mov	r3, r0
 8003870:	6812      	ldr	r2, [r2, #0]
 8003872:	0712      	lsls	r2, r2, #28
 8003874:	d40a      	bmi.n	800388c <UART_CheckIdleState+0x2e>
 8003876:	2000      	movs	r0, #0
 8003878:	2320      	movs	r3, #32
 800387a:	f884 0078 	strb.w	r0, [r4, #120]	; 0x78
 800387e:	67e3      	str	r3, [r4, #124]	; 0x7c
 8003880:	f8c4 3080 	str.w	r3, [r4, #128]	; 0x80
 8003884:	6620      	str	r0, [r4, #96]	; 0x60
 8003886:	6660      	str	r0, [r4, #100]	; 0x64
 8003888:	b003      	add	sp, #12
 800388a:	bd30      	pop	{r4, r5, pc}
 800388c:	f06f 427e 	mvn.w	r2, #4261412864	; 0xfe000000
 8003890:	f44f 1100 	mov.w	r1, #2097152	; 0x200000
 8003894:	4620      	mov	r0, r4
 8003896:	9200      	str	r2, [sp, #0]
 8003898:	462a      	mov	r2, r5
 800389a:	f7ff ff80 	bl	800379e <UART_WaitOnFlagUntilTimeout>
 800389e:	2800      	cmp	r0, #0
 80038a0:	d0e9      	beq.n	8003876 <UART_CheckIdleState+0x18>
 80038a2:	2003      	movs	r0, #3
 80038a4:	e7f0      	b.n	8003888 <UART_CheckIdleState+0x2a>

080038a6 <HAL_UART_Init>:
 80038a6:	b510      	push	{r4, lr}
 80038a8:	4604      	mov	r4, r0
 80038aa:	b340      	cbz	r0, 80038fe <HAL_UART_Init+0x58>
 80038ac:	6fc3      	ldr	r3, [r0, #124]	; 0x7c
 80038ae:	b91b      	cbnz	r3, 80038b8 <HAL_UART_Init+0x12>
 80038b0:	f880 3078 	strb.w	r3, [r0, #120]	; 0x78
 80038b4:	f7fd fb2c 	bl	8000f10 <HAL_UART_MspInit>
 80038b8:	6822      	ldr	r2, [r4, #0]
 80038ba:	2324      	movs	r3, #36	; 0x24
 80038bc:	4620      	mov	r0, r4
 80038be:	67e3      	str	r3, [r4, #124]	; 0x7c
 80038c0:	6813      	ldr	r3, [r2, #0]
 80038c2:	f023 0301 	bic.w	r3, r3, #1
 80038c6:	6013      	str	r3, [r2, #0]
 80038c8:	f7ff fdce 	bl	8003468 <UART_SetConfig>
 80038cc:	2801      	cmp	r0, #1
 80038ce:	d016      	beq.n	80038fe <HAL_UART_Init+0x58>
 80038d0:	6a63      	ldr	r3, [r4, #36]	; 0x24
 80038d2:	b113      	cbz	r3, 80038da <HAL_UART_Init+0x34>
 80038d4:	4620      	mov	r0, r4
 80038d6:	f7ff ff0d 	bl	80036f4 <UART_AdvFeatureConfig>
 80038da:	6823      	ldr	r3, [r4, #0]
 80038dc:	4620      	mov	r0, r4
 80038de:	685a      	ldr	r2, [r3, #4]
 80038e0:	f422 4290 	bic.w	r2, r2, #18432	; 0x4800
 80038e4:	605a      	str	r2, [r3, #4]
 80038e6:	689a      	ldr	r2, [r3, #8]
 80038e8:	f022 022a 	bic.w	r2, r2, #42	; 0x2a
 80038ec:	609a      	str	r2, [r3, #8]
 80038ee:	681a      	ldr	r2, [r3, #0]
 80038f0:	f042 0201 	orr.w	r2, r2, #1
 80038f4:	e8bd 4010 	ldmia.w	sp!, {r4, lr}
 80038f8:	601a      	str	r2, [r3, #0]
 80038fa:	f7ff bfb0 	b.w	800385e <UART_CheckIdleState>
 80038fe:	2001      	movs	r0, #1
 8003900:	bd10      	pop	{r4, pc}
	...

08003904 <LL_EXTI_Init>:
 8003904:	4602      	mov	r2, r0
 8003906:	b510      	push	{r4, lr}
 8003908:	7900      	ldrb	r0, [r0, #4]
 800390a:	6813      	ldr	r3, [r2, #0]
 800390c:	2800      	cmp	r0, #0
 800390e:	d03d      	beq.n	800398c <LL_EXTI_Init+0x88>
 8003910:	2b00      	cmp	r3, #0
 8003912:	d045      	beq.n	80039a0 <LL_EXTI_Init+0x9c>
 8003914:	7950      	ldrb	r0, [r2, #5]
 8003916:	2801      	cmp	r0, #1
 8003918:	d01b      	beq.n	8003952 <LL_EXTI_Init+0x4e>
 800391a:	2802      	cmp	r0, #2
 800391c:	d023      	beq.n	8003966 <LL_EXTI_Init+0x62>
 800391e:	bb30      	cbnz	r0, 800396e <LL_EXTI_Init+0x6a>
 8003920:	4921      	ldr	r1, [pc, #132]	; (80039a8 <LL_EXTI_Init+0xa4>)
 8003922:	684c      	ldr	r4, [r1, #4]
 8003924:	ea24 0403 	bic.w	r4, r4, r3
 8003928:	604c      	str	r4, [r1, #4]
 800392a:	680c      	ldr	r4, [r1, #0]
 800392c:	431c      	orrs	r4, r3
 800392e:	600c      	str	r4, [r1, #0]
 8003930:	7992      	ldrb	r2, [r2, #6]
 8003932:	b16a      	cbz	r2, 8003950 <LL_EXTI_Init+0x4c>
 8003934:	2a02      	cmp	r2, #2
 8003936:	d01c      	beq.n	8003972 <LL_EXTI_Init+0x6e>
 8003938:	2a03      	cmp	r2, #3
 800393a:	d023      	beq.n	8003984 <LL_EXTI_Init+0x80>
 800393c:	2a01      	cmp	r2, #1
 800393e:	d131      	bne.n	80039a4 <LL_EXTI_Init+0xa0>
 8003940:	4a19      	ldr	r2, [pc, #100]	; (80039a8 <LL_EXTI_Init+0xa4>)
 8003942:	68d1      	ldr	r1, [r2, #12]
 8003944:	ea21 0103 	bic.w	r1, r1, r3
 8003948:	60d1      	str	r1, [r2, #12]
 800394a:	6891      	ldr	r1, [r2, #8]
 800394c:	430b      	orrs	r3, r1
 800394e:	6093      	str	r3, [r2, #8]
 8003950:	bd10      	pop	{r4, pc}
 8003952:	4915      	ldr	r1, [pc, #84]	; (80039a8 <LL_EXTI_Init+0xa4>)
 8003954:	6808      	ldr	r0, [r1, #0]
 8003956:	ea20 0003 	bic.w	r0, r0, r3
 800395a:	6008      	str	r0, [r1, #0]
 800395c:	6848      	ldr	r0, [r1, #4]
 800395e:	4318      	orrs	r0, r3
 8003960:	6048      	str	r0, [r1, #4]
 8003962:	2000      	movs	r0, #0
 8003964:	e7e4      	b.n	8003930 <LL_EXTI_Init+0x2c>
 8003966:	4910      	ldr	r1, [pc, #64]	; (80039a8 <LL_EXTI_Init+0xa4>)
 8003968:	6808      	ldr	r0, [r1, #0]
 800396a:	4318      	orrs	r0, r3
 800396c:	e7f5      	b.n	800395a <LL_EXTI_Init+0x56>
 800396e:	2001      	movs	r0, #1
 8003970:	e7de      	b.n	8003930 <LL_EXTI_Init+0x2c>
 8003972:	4a0d      	ldr	r2, [pc, #52]	; (80039a8 <LL_EXTI_Init+0xa4>)
 8003974:	6891      	ldr	r1, [r2, #8]
 8003976:	ea21 0103 	bic.w	r1, r1, r3
 800397a:	6091      	str	r1, [r2, #8]
 800397c:	68d1      	ldr	r1, [r2, #12]
 800397e:	430b      	orrs	r3, r1
 8003980:	60d3      	str	r3, [r2, #12]
 8003982:	e7e5      	b.n	8003950 <LL_EXTI_Init+0x4c>
 8003984:	4a08      	ldr	r2, [pc, #32]	; (80039a8 <LL_EXTI_Init+0xa4>)
 8003986:	6891      	ldr	r1, [r2, #8]
 8003988:	4319      	orrs	r1, r3
 800398a:	e7f6      	b.n	800397a <LL_EXTI_Init+0x76>
 800398c:	4a06      	ldr	r2, [pc, #24]	; (80039a8 <LL_EXTI_Init+0xa4>)
 800398e:	6811      	ldr	r1, [r2, #0]
 8003990:	ea21 0103 	bic.w	r1, r1, r3
 8003994:	6011      	str	r1, [r2, #0]
 8003996:	6851      	ldr	r1, [r2, #4]
 8003998:	ea21 0303 	bic.w	r3, r1, r3
 800399c:	6053      	str	r3, [r2, #4]
 800399e:	e7d7      	b.n	8003950 <LL_EXTI_Init+0x4c>
 80039a0:	4618      	mov	r0, r3
 80039a2:	e7d5      	b.n	8003950 <LL_EXTI_Init+0x4c>
 80039a4:	2001      	movs	r0, #1
 80039a6:	e7d3      	b.n	8003950 <LL_EXTI_Init+0x4c>
 80039a8:	40013c00 	.word	0x40013c00

080039ac <LL_GPIO_Init>:
 80039ac:	e92d 4ff0 	stmdb	sp!, {r4, r5, r6, r7, r8, r9, sl, fp, lr}
 80039b0:	4602      	mov	r2, r0
 80039b2:	680d      	ldr	r5, [r1, #0]
 80039b4:	fa95 f4a5 	rbit	r4, r5
 80039b8:	f04f 0e01 	mov.w	lr, #1
 80039bc:	fab4 f484 	clz	r4, r4
 80039c0:	2603      	movs	r6, #3
 80039c2:	f04f 0c0f 	mov.w	ip, #15
 80039c6:	ea6f 0805 	mvn.w	r8, r5
 80039ca:	fa35 f004 	lsrs.w	r0, r5, r4
 80039ce:	d101      	bne.n	80039d4 <LL_GPIO_Init+0x28>
 80039d0:	e8bd 8ff0 	ldmia.w	sp!, {r4, r5, r6, r7, r8, r9, sl, fp, pc}
 80039d4:	fa0e f304 	lsl.w	r3, lr, r4
 80039d8:	402b      	ands	r3, r5
 80039da:	d06c      	beq.n	8003ab6 <LL_GPIO_Init+0x10a>
 80039dc:	6848      	ldr	r0, [r1, #4]
 80039de:	1e47      	subs	r7, r0, #1
 80039e0:	2f01      	cmp	r7, #1
 80039e2:	d81e      	bhi.n	8003a22 <LL_GPIO_Init+0x76>
 80039e4:	6897      	ldr	r7, [r2, #8]
 80039e6:	fa93 f9a3 	rbit	r9, r3
 80039ea:	fab9 f989 	clz	r9, r9
 80039ee:	fa93 faa3 	rbit	sl, r3
 80039f2:	ea4f 0949 	mov.w	r9, r9, lsl #1
 80039f6:	faba fa8a 	clz	sl, sl
 80039fa:	fa06 f909 	lsl.w	r9, r6, r9
 80039fe:	ea4f 0a4a 	mov.w	sl, sl, lsl #1
 8003a02:	ea27 0909 	bic.w	r9, r7, r9
 8003a06:	688f      	ldr	r7, [r1, #8]
 8003a08:	fa07 f70a 	lsl.w	r7, r7, sl
 8003a0c:	ea49 0707 	orr.w	r7, r9, r7
 8003a10:	6097      	str	r7, [r2, #8]
 8003a12:	6857      	ldr	r7, [r2, #4]
 8003a14:	ea08 0907 	and.w	r9, r8, r7
 8003a18:	68cf      	ldr	r7, [r1, #12]
 8003a1a:	436f      	muls	r7, r5
 8003a1c:	ea49 0707 	orr.w	r7, r9, r7
 8003a20:	6057      	str	r7, [r2, #4]
 8003a22:	68d7      	ldr	r7, [r2, #12]
 8003a24:	fa93 f9a3 	rbit	r9, r3
 8003a28:	fab9 f989 	clz	r9, r9
 8003a2c:	fa93 faa3 	rbit	sl, r3
 8003a30:	ea4f 0949 	mov.w	r9, r9, lsl #1
 8003a34:	faba fa8a 	clz	sl, sl
 8003a38:	2802      	cmp	r0, #2
 8003a3a:	fa06 f909 	lsl.w	r9, r6, r9
 8003a3e:	ea4f 0a4a 	mov.w	sl, sl, lsl #1
 8003a42:	ea27 0909 	bic.w	r9, r7, r9
 8003a46:	690f      	ldr	r7, [r1, #16]
 8003a48:	fa07 f70a 	lsl.w	r7, r7, sl
 8003a4c:	ea49 0707 	orr.w	r7, r9, r7
 8003a50:	60d7      	str	r7, [r2, #12]
 8003a52:	d11d      	bne.n	8003a90 <LL_GPIO_Init+0xe4>
 8003a54:	fa93 f7a3 	rbit	r7, r3
 8003a58:	fab7 f787 	clz	r7, r7
 8003a5c:	f8d1 a014 	ldr.w	sl, [r1, #20]
 8003a60:	2f07      	cmp	r7, #7
 8003a62:	dc2a      	bgt.n	8003aba <LL_GPIO_Init+0x10e>
 8003a64:	f8d2 b020 	ldr.w	fp, [r2, #32]
 8003a68:	fa93 f7a3 	rbit	r7, r3
 8003a6c:	fab7 f787 	clz	r7, r7
 8003a70:	fa93 f9a3 	rbit	r9, r3
 8003a74:	fab9 f989 	clz	r9, r9
 8003a78:	00bf      	lsls	r7, r7, #2
 8003a7a:	ea4f 0989 	mov.w	r9, r9, lsl #2
 8003a7e:	fa0c f707 	lsl.w	r7, ip, r7
 8003a82:	fa0a fa09 	lsl.w	sl, sl, r9
 8003a86:	ea2b 0707 	bic.w	r7, fp, r7
 8003a8a:	ea47 070a 	orr.w	r7, r7, sl
 8003a8e:	6217      	str	r7, [r2, #32]
 8003a90:	f8d2 9000 	ldr.w	r9, [r2]
 8003a94:	fa93 f7a3 	rbit	r7, r3
 8003a98:	fab7 f787 	clz	r7, r7
 8003a9c:	fa93 f3a3 	rbit	r3, r3
 8003aa0:	fab3 f383 	clz	r3, r3
 8003aa4:	007f      	lsls	r7, r7, #1
 8003aa6:	005b      	lsls	r3, r3, #1
 8003aa8:	fa06 f707 	lsl.w	r7, r6, r7
 8003aac:	4098      	lsls	r0, r3
 8003aae:	ea29 0707 	bic.w	r7, r9, r7
 8003ab2:	4307      	orrs	r7, r0
 8003ab4:	6017      	str	r7, [r2, #0]
 8003ab6:	3401      	adds	r4, #1
 8003ab8:	e787      	b.n	80039ca <LL_GPIO_Init+0x1e>
 8003aba:	f8d2 b024 	ldr.w	fp, [r2, #36]	; 0x24
 8003abe:	ea4f 2913 	mov.w	r9, r3, lsr #8
 8003ac2:	fa99 f7a9 	rbit	r7, r9
 8003ac6:	fab7 f787 	clz	r7, r7
 8003aca:	fa99 f9a9 	rbit	r9, r9
 8003ace:	fab9 f989 	clz	r9, r9
 8003ad2:	00bf      	lsls	r7, r7, #2
 8003ad4:	ea4f 0989 	mov.w	r9, r9, lsl #2
 8003ad8:	fa0c f707 	lsl.w	r7, ip, r7
 8003adc:	fa0a fa09 	lsl.w	sl, sl, r9
 8003ae0:	ea2b 0707 	bic.w	r7, fp, r7
 8003ae4:	ea47 070a 	orr.w	r7, r7, sl
 8003ae8:	6257      	str	r7, [r2, #36]	; 0x24
 8003aea:	e7d1      	b.n	8003a90 <LL_GPIO_Init+0xe4>

08003aec <USB_CoreReset>:
 8003aec:	b082      	sub	sp, #8
 8003aee:	2300      	movs	r3, #0
 8003af0:	4a10      	ldr	r2, [pc, #64]	; (8003b34 <USB_CoreReset+0x48>)
 8003af2:	9301      	str	r3, [sp, #4]
 8003af4:	9b01      	ldr	r3, [sp, #4]
 8003af6:	3301      	adds	r3, #1
 8003af8:	9301      	str	r3, [sp, #4]
 8003afa:	9b01      	ldr	r3, [sp, #4]
 8003afc:	4293      	cmp	r3, r2
 8003afe:	d816      	bhi.n	8003b2e <USB_CoreReset+0x42>
 8003b00:	6903      	ldr	r3, [r0, #16]
 8003b02:	2b00      	cmp	r3, #0
 8003b04:	daf6      	bge.n	8003af4 <USB_CoreReset+0x8>
 8003b06:	2300      	movs	r3, #0
 8003b08:	4a0a      	ldr	r2, [pc, #40]	; (8003b34 <USB_CoreReset+0x48>)
 8003b0a:	9301      	str	r3, [sp, #4]
 8003b0c:	6903      	ldr	r3, [r0, #16]
 8003b0e:	f043 0301 	orr.w	r3, r3, #1
 8003b12:	6103      	str	r3, [r0, #16]
 8003b14:	9b01      	ldr	r3, [sp, #4]
 8003b16:	3301      	adds	r3, #1
 8003b18:	9301      	str	r3, [sp, #4]
 8003b1a:	9b01      	ldr	r3, [sp, #4]
 8003b1c:	4293      	cmp	r3, r2
 8003b1e:	d806      	bhi.n	8003b2e <USB_CoreReset+0x42>
 8003b20:	6903      	ldr	r3, [r0, #16]
 8003b22:	f013 0301 	ands.w	r3, r3, #1
 8003b26:	d1f5      	bne.n	8003b14 <USB_CoreReset+0x28>
 8003b28:	4618      	mov	r0, r3
 8003b2a:	b002      	add	sp, #8
 8003b2c:	4770      	bx	lr
 8003b2e:	2003      	movs	r0, #3
 8003b30:	e7fb      	b.n	8003b2a <USB_CoreReset+0x3e>
 8003b32:	bf00      	nop
 8003b34:	00030d40 	.word	0x00030d40

08003b38 <USB_CoreInit>:
 8003b38:	b084      	sub	sp, #16
 8003b3a:	b537      	push	{r0, r1, r2, r4, r5, lr}
 8003b3c:	ad07      	add	r5, sp, #28
 8003b3e:	4604      	mov	r4, r0
 8003b40:	e885 000e 	stmia.w	r5, {r1, r2, r3}
 8003b44:	9b0c      	ldr	r3, [sp, #48]	; 0x30
 8003b46:	9d13      	ldr	r5, [sp, #76]	; 0x4c
 8003b48:	2b01      	cmp	r3, #1
 8003b4a:	d12a      	bne.n	8003ba2 <USB_CoreInit+0x6a>
 8003b4c:	6b83      	ldr	r3, [r0, #56]	; 0x38
 8003b4e:	f423 3380 	bic.w	r3, r3, #65536	; 0x10000
 8003b52:	6383      	str	r3, [r0, #56]	; 0x38
 8003b54:	68c3      	ldr	r3, [r0, #12]
 8003b56:	f423 0384 	bic.w	r3, r3, #4325376	; 0x420000
 8003b5a:	f023 0340 	bic.w	r3, r3, #64	; 0x40
 8003b5e:	60c3      	str	r3, [r0, #12]
 8003b60:	68c3      	ldr	r3, [r0, #12]
 8003b62:	f043 0310 	orr.w	r3, r3, #16
 8003b66:	60c3      	str	r3, [r0, #12]
 8003b68:	68c3      	ldr	r3, [r0, #12]
 8003b6a:	f423 1340 	bic.w	r3, r3, #3145728	; 0x300000
 8003b6e:	60c3      	str	r3, [r0, #12]
 8003b70:	2d01      	cmp	r5, #1
 8003b72:	d103      	bne.n	8003b7c <USB_CoreInit+0x44>
 8003b74:	68e3      	ldr	r3, [r4, #12]
 8003b76:	f443 1380 	orr.w	r3, r3, #1048576	; 0x100000
 8003b7a:	60e3      	str	r3, [r4, #12]
 8003b7c:	4620      	mov	r0, r4
 8003b7e:	f7ff ffb5 	bl	8003aec <USB_CoreReset>
 8003b82:	9b0a      	ldr	r3, [sp, #40]	; 0x28
 8003b84:	2b01      	cmp	r3, #1
 8003b86:	d107      	bne.n	8003b98 <USB_CoreInit+0x60>
 8003b88:	68a3      	ldr	r3, [r4, #8]
 8003b8a:	f043 0306 	orr.w	r3, r3, #6
 8003b8e:	60a3      	str	r3, [r4, #8]
 8003b90:	68a3      	ldr	r3, [r4, #8]
 8003b92:	f043 0320 	orr.w	r3, r3, #32
 8003b96:	60a3      	str	r3, [r4, #8]
 8003b98:	b003      	add	sp, #12
 8003b9a:	e8bd 4030 	ldmia.w	sp!, {r4, r5, lr}
 8003b9e:	b004      	add	sp, #16
 8003ba0:	4770      	bx	lr
 8003ba2:	2b03      	cmp	r3, #3
 8003ba4:	d138      	bne.n	8003c18 <USB_CoreInit+0xe0>
 8003ba6:	6b83      	ldr	r3, [r0, #56]	; 0x38
 8003ba8:	4921      	ldr	r1, [pc, #132]	; (8003c30 <USB_CoreInit+0xf8>)
 8003baa:	f423 3380 	bic.w	r3, r3, #65536	; 0x10000
 8003bae:	6383      	str	r3, [r0, #56]	; 0x38
 8003bb0:	68c3      	ldr	r3, [r0, #12]
 8003bb2:	f423 0384 	bic.w	r3, r3, #4325376	; 0x420000
 8003bb6:	f023 0340 	bic.w	r3, r3, #64	; 0x40
 8003bba:	60c3      	str	r3, [r0, #12]
 8003bbc:	68c3      	ldr	r3, [r0, #12]
 8003bbe:	f423 1340 	bic.w	r3, r3, #3145728	; 0x300000
 8003bc2:	60c3      	str	r3, [r0, #12]
 8003bc4:	68c3      	ldr	r3, [r0, #12]
 8003bc6:	f023 0310 	bic.w	r3, r3, #16
 8003bca:	60c3      	str	r3, [r0, #12]
 8003bcc:	6b83      	ldr	r3, [r0, #56]	; 0x38
 8003bce:	f443 0300 	orr.w	r3, r3, #8388608	; 0x800000
 8003bd2:	6383      	str	r3, [r0, #56]	; 0x38
 8003bd4:	2300      	movs	r3, #0
 8003bd6:	9301      	str	r3, [sp, #4]
 8003bd8:	4b16      	ldr	r3, [pc, #88]	; (8003c34 <USB_CoreInit+0xfc>)
 8003bda:	699a      	ldr	r2, [r3, #24]
 8003bdc:	f042 0204 	orr.w	r2, r2, #4
 8003be0:	619a      	str	r2, [r3, #24]
 8003be2:	699a      	ldr	r2, [r3, #24]
 8003be4:	0792      	lsls	r2, r2, #30
 8003be6:	d50f      	bpl.n	8003c08 <USB_CoreInit+0xd0>
 8003be8:	220a      	movs	r2, #10
 8003bea:	2002      	movs	r0, #2
 8003bec:	601a      	str	r2, [r3, #0]
 8003bee:	68da      	ldr	r2, [r3, #12]
 8003bf0:	f442 6271 	orr.w	r2, r2, #3856	; 0xf10
 8003bf4:	f042 0203 	orr.w	r2, r2, #3
 8003bf8:	60da      	str	r2, [r3, #12]
 8003bfa:	681a      	ldr	r2, [r3, #0]
 8003bfc:	f042 0201 	orr.w	r2, r2, #1
 8003c00:	601a      	str	r2, [r3, #0]
 8003c02:	f7fd fbf7 	bl	80013f4 <HAL_Delay>
 8003c06:	e7b3      	b.n	8003b70 <USB_CoreInit+0x38>
 8003c08:	9a01      	ldr	r2, [sp, #4]
 8003c0a:	3201      	adds	r2, #1
 8003c0c:	9201      	str	r2, [sp, #4]
 8003c0e:	9a01      	ldr	r2, [sp, #4]
 8003c10:	428a      	cmp	r2, r1
 8003c12:	d9e6      	bls.n	8003be2 <USB_CoreInit+0xaa>
 8003c14:	2001      	movs	r0, #1
 8003c16:	e7bf      	b.n	8003b98 <USB_CoreInit+0x60>
 8003c18:	68c3      	ldr	r3, [r0, #12]
 8003c1a:	f043 0340 	orr.w	r3, r3, #64	; 0x40
 8003c1e:	60c3      	str	r3, [r0, #12]
 8003c20:	f7ff ff64 	bl	8003aec <USB_CoreReset>
 8003c24:	6ba3      	ldr	r3, [r4, #56]	; 0x38
 8003c26:	f443 3380 	orr.w	r3, r3, #65536	; 0x10000
 8003c2a:	63a3      	str	r3, [r4, #56]	; 0x38
 8003c2c:	e7a9      	b.n	8003b82 <USB_CoreInit+0x4a>
 8003c2e:	bf00      	nop
 8003c30:	00030d40 	.word	0x00030d40
 8003c34:	40017c00 	.word	0x40017c00

08003c38 <USB_EnableGlobalInt>:
 8003c38:	6883      	ldr	r3, [r0, #8]
 8003c3a:	f043 0301 	orr.w	r3, r3, #1
 8003c3e:	6083      	str	r3, [r0, #8]
 8003c40:	2000      	movs	r0, #0
 8003c42:	4770      	bx	lr

08003c44 <USB_DisableGlobalInt>:
 8003c44:	6883      	ldr	r3, [r0, #8]
 8003c46:	f023 0301 	bic.w	r3, r3, #1
 8003c4a:	6083      	str	r3, [r0, #8]
 8003c4c:	2000      	movs	r0, #0
 8003c4e:	4770      	bx	lr

08003c50 <USB_SetCurrentMode>:
 8003c50:	b538      	push	{r3, r4, r5, lr}
 8003c52:	68c3      	ldr	r3, [r0, #12]
 8003c54:	2901      	cmp	r1, #1
 8003c56:	4605      	mov	r5, r0
 8003c58:	f023 43c0 	bic.w	r3, r3, #1610612736	; 0x60000000
 8003c5c:	60c3      	str	r3, [r0, #12]
 8003c5e:	d10f      	bne.n	8003c80 <USB_SetCurrentMode+0x30>
 8003c60:	68c3      	ldr	r3, [r0, #12]
 8003c62:	2400      	movs	r4, #0
 8003c64:	f043 5300 	orr.w	r3, r3, #536870912	; 0x20000000
 8003c68:	60c3      	str	r3, [r0, #12]
 8003c6a:	2001      	movs	r0, #1
 8003c6c:	3401      	adds	r4, #1
 8003c6e:	f7fd fbc1 	bl	80013f4 <HAL_Delay>
 8003c72:	696b      	ldr	r3, [r5, #20]
 8003c74:	07d9      	lsls	r1, r3, #31
 8003c76:	d414      	bmi.n	8003ca2 <USB_SetCurrentMode+0x52>
 8003c78:	2c32      	cmp	r4, #50	; 0x32
 8003c7a:	d1f6      	bne.n	8003c6a <USB_SetCurrentMode+0x1a>
 8003c7c:	2001      	movs	r0, #1
 8003c7e:	bd38      	pop	{r3, r4, r5, pc}
 8003c80:	2900      	cmp	r1, #0
 8003c82:	d1fb      	bne.n	8003c7c <USB_SetCurrentMode+0x2c>
 8003c84:	68c3      	ldr	r3, [r0, #12]
 8003c86:	460c      	mov	r4, r1
 8003c88:	f043 4380 	orr.w	r3, r3, #1073741824	; 0x40000000
 8003c8c:	60c3      	str	r3, [r0, #12]
 8003c8e:	2001      	movs	r0, #1
 8003c90:	3401      	adds	r4, #1
 8003c92:	f7fd fbaf 	bl	80013f4 <HAL_Delay>
 8003c96:	696b      	ldr	r3, [r5, #20]
 8003c98:	07da      	lsls	r2, r3, #31
 8003c9a:	d502      	bpl.n	8003ca2 <USB_SetCurrentMode+0x52>
 8003c9c:	2c32      	cmp	r4, #50	; 0x32
 8003c9e:	d1f6      	bne.n	8003c8e <USB_SetCurrentMode+0x3e>
 8003ca0:	e7ec      	b.n	8003c7c <USB_SetCurrentMode+0x2c>
 8003ca2:	f1a4 0332 	sub.w	r3, r4, #50	; 0x32
 8003ca6:	4258      	negs	r0, r3
 8003ca8:	4158      	adcs	r0, r3
 8003caa:	e7e8      	b.n	8003c7e <USB_SetCurrentMode+0x2e>

08003cac <USB_FlushTxFifo>:
 8003cac:	b082      	sub	sp, #8
 8003cae:	2300      	movs	r3, #0
 8003cb0:	4a10      	ldr	r2, [pc, #64]	; (8003cf4 <USB_FlushTxFifo+0x48>)
 8003cb2:	9301      	str	r3, [sp, #4]
 8003cb4:	9b01      	ldr	r3, [sp, #4]
 8003cb6:	3301      	adds	r3, #1
 8003cb8:	9301      	str	r3, [sp, #4]
 8003cba:	9b01      	ldr	r3, [sp, #4]
 8003cbc:	4293      	cmp	r3, r2
 8003cbe:	d816      	bhi.n	8003cee <USB_FlushTxFifo+0x42>
 8003cc0:	6903      	ldr	r3, [r0, #16]
 8003cc2:	2b00      	cmp	r3, #0
 8003cc4:	daf6      	bge.n	8003cb4 <USB_FlushTxFifo+0x8>
 8003cc6:	0189      	lsls	r1, r1, #6
 8003cc8:	2300      	movs	r3, #0
 8003cca:	4a0a      	ldr	r2, [pc, #40]	; (8003cf4 <USB_FlushTxFifo+0x48>)
 8003ccc:	f041 0120 	orr.w	r1, r1, #32
 8003cd0:	9301      	str	r3, [sp, #4]
 8003cd2:	6101      	str	r1, [r0, #16]
 8003cd4:	9b01      	ldr	r3, [sp, #4]
 8003cd6:	3301      	adds	r3, #1
 8003cd8:	9301      	str	r3, [sp, #4]
 8003cda:	9b01      	ldr	r3, [sp, #4]
 8003cdc:	4293      	cmp	r3, r2
 8003cde:	d806      	bhi.n	8003cee <USB_FlushTxFifo+0x42>
 8003ce0:	6903      	ldr	r3, [r0, #16]
 8003ce2:	f013 0320 	ands.w	r3, r3, #32
 8003ce6:	d1f5      	bne.n	8003cd4 <USB_FlushTxFifo+0x28>
 8003ce8:	4618      	mov	r0, r3
 8003cea:	b002      	add	sp, #8
 8003cec:	4770      	bx	lr
 8003cee:	2003      	movs	r0, #3
 8003cf0:	e7fb      	b.n	8003cea <USB_FlushTxFifo+0x3e>
 8003cf2:	bf00      	nop
 8003cf4:	00030d40 	.word	0x00030d40

08003cf8 <USB_FlushRxFifo>:
 8003cf8:	b082      	sub	sp, #8
 8003cfa:	2300      	movs	r3, #0
 8003cfc:	4a0f      	ldr	r2, [pc, #60]	; (8003d3c <USB_FlushRxFifo+0x44>)
 8003cfe:	9301      	str	r3, [sp, #4]
 8003d00:	9b01      	ldr	r3, [sp, #4]
 8003d02:	3301      	adds	r3, #1
 8003d04:	9301      	str	r3, [sp, #4]
 8003d06:	9b01      	ldr	r3, [sp, #4]
 8003d08:	4293      	cmp	r3, r2
 8003d0a:	d814      	bhi.n	8003d36 <USB_FlushRxFifo+0x3e>
 8003d0c:	6903      	ldr	r3, [r0, #16]
 8003d0e:	2b00      	cmp	r3, #0
 8003d10:	daf6      	bge.n	8003d00 <USB_FlushRxFifo+0x8>
 8003d12:	2300      	movs	r3, #0
 8003d14:	4a09      	ldr	r2, [pc, #36]	; (8003d3c <USB_FlushRxFifo+0x44>)
 8003d16:	9301      	str	r3, [sp, #4]
 8003d18:	2310      	movs	r3, #16
 8003d1a:	6103      	str	r3, [r0, #16]
 8003d1c:	9b01      	ldr	r3, [sp, #4]
 8003d1e:	3301      	adds	r3, #1
 8003d20:	9301      	str	r3, [sp, #4]
 8003d22:	9b01      	ldr	r3, [sp, #4]
 8003d24:	4293      	cmp	r3, r2
 8003d26:	d806      	bhi.n	8003d36 <USB_FlushRxFifo+0x3e>
 8003d28:	6903      	ldr	r3, [r0, #16]
 8003d2a:	f013 0310 	ands.w	r3, r3, #16
 8003d2e:	d1f5      	bne.n	8003d1c <USB_FlushRxFifo+0x24>
 8003d30:	4618      	mov	r0, r3
 8003d32:	b002      	add	sp, #8
 8003d34:	4770      	bx	lr
 8003d36:	2003      	movs	r0, #3
 8003d38:	e7fb      	b.n	8003d32 <USB_FlushRxFifo+0x3a>
 8003d3a:	bf00      	nop
 8003d3c:	00030d40 	.word	0x00030d40

08003d40 <USB_WritePacket>:
 8003d40:	b510      	push	{r4, lr}
 8003d42:	f89d 4008 	ldrb.w	r4, [sp, #8]
 8003d46:	b944      	cbnz	r4, 8003d5a <USB_WritePacket+0x1a>
 8003d48:	3303      	adds	r3, #3
 8003d4a:	3201      	adds	r2, #1
 8003d4c:	089b      	lsrs	r3, r3, #2
 8003d4e:	eb00 3002 	add.w	r0, r0, r2, lsl #12
 8003d52:	eb01 0383 	add.w	r3, r1, r3, lsl #2
 8003d56:	428b      	cmp	r3, r1
 8003d58:	d101      	bne.n	8003d5e <USB_WritePacket+0x1e>
 8003d5a:	2000      	movs	r0, #0
 8003d5c:	bd10      	pop	{r4, pc}
 8003d5e:	f851 2b04 	ldr.w	r2, [r1], #4
 8003d62:	6002      	str	r2, [r0, #0]
 8003d64:	e7f7      	b.n	8003d56 <USB_WritePacket+0x16>

08003d66 <USB_ReadPacket>:
 8003d66:	b570      	push	{r4, r5, r6, lr}
 8003d68:	2300      	movs	r3, #0
 8003d6a:	0894      	lsrs	r4, r2, #2
 8003d6c:	f500 5580 	add.w	r5, r0, #4096	; 0x1000
 8003d70:	f002 0203 	and.w	r2, r2, #3
 8003d74:	42a3      	cmp	r3, r4
 8003d76:	d314      	bcc.n	8003da2 <USB_ReadPacket+0x3c>
 8003d78:	eb01 0184 	add.w	r1, r1, r4, lsl #2
 8003d7c:	b17a      	cbz	r2, 8003d9e <USB_ReadPacket+0x38>
 8003d7e:	f500 5080 	add.w	r0, r0, #4096	; 0x1000
 8003d82:	2300      	movs	r3, #0
 8003d84:	6804      	ldr	r4, [r0, #0]
 8003d86:	00d8      	lsls	r0, r3, #3
 8003d88:	fa24 f000 	lsr.w	r0, r4, r0
 8003d8c:	54c8      	strb	r0, [r1, r3]
 8003d8e:	3301      	adds	r3, #1
 8003d90:	b298      	uxth	r0, r3
 8003d92:	4282      	cmp	r2, r0
 8003d94:	d1f7      	bne.n	8003d86 <USB_ReadPacket+0x20>
 8003d96:	3a01      	subs	r2, #1
 8003d98:	b292      	uxth	r2, r2
 8003d9a:	3201      	adds	r2, #1
 8003d9c:	4411      	add	r1, r2
 8003d9e:	4608      	mov	r0, r1
 8003da0:	bd70      	pop	{r4, r5, r6, pc}
 8003da2:	682e      	ldr	r6, [r5, #0]
 8003da4:	f841 6023 	str.w	r6, [r1, r3, lsl #2]
 8003da8:	3301      	adds	r3, #1
 8003daa:	e7e3      	b.n	8003d74 <USB_ReadPacket+0xe>

08003dac <USB_ReadInterrupts>:
 8003dac:	6942      	ldr	r2, [r0, #20]
 8003dae:	6980      	ldr	r0, [r0, #24]
 8003db0:	4010      	ands	r0, r2
 8003db2:	4770      	bx	lr

08003db4 <USB_ReadChInterrupts>:
 8003db4:	eb00 1141 	add.w	r1, r0, r1, lsl #5
 8003db8:	f8d1 0508 	ldr.w	r0, [r1, #1288]	; 0x508
 8003dbc:	f8d1 350c 	ldr.w	r3, [r1, #1292]	; 0x50c
 8003dc0:	4018      	ands	r0, r3
 8003dc2:	4770      	bx	lr

08003dc4 <USB_GetMode>:
 8003dc4:	6940      	ldr	r0, [r0, #20]
 8003dc6:	f000 0001 	and.w	r0, r0, #1
 8003dca:	4770      	bx	lr

08003dcc <USB_HostInit>:
 8003dcc:	b084      	sub	sp, #16
 8003dce:	b570      	push	{r4, r5, r6, lr}
 8003dd0:	4604      	mov	r4, r0
 8003dd2:	a805      	add	r0, sp, #20
 8003dd4:	e880 000e 	stmia.w	r0, {r1, r2, r3}
 8003dd8:	2300      	movs	r3, #0
 8003dda:	f8c4 3e00 	str.w	r3, [r4, #3584]	; 0xe00
 8003dde:	6ba3      	ldr	r3, [r4, #56]	; 0x38
 8003de0:	f423 1300 	bic.w	r3, r3, #2097152	; 0x200000
 8003de4:	63a3      	str	r3, [r4, #56]	; 0x38
 8003de6:	6be3      	ldr	r3, [r4, #60]	; 0x3c
 8003de8:	05da      	lsls	r2, r3, #23
 8003dea:	d53a      	bpl.n	8003e62 <USB_HostInit+0x96>
 8003dec:	9b07      	ldr	r3, [sp, #28]
 8003dee:	2b01      	cmp	r3, #1
 8003df0:	f8d4 3400 	ldr.w	r3, [r4, #1024]	; 0x400
 8003df4:	d137      	bne.n	8003e66 <USB_HostInit+0x9a>
 8003df6:	f043 0304 	orr.w	r3, r3, #4
 8003dfa:	f8c4 3400 	str.w	r3, [r4, #1024]	; 0x400
 8003dfe:	2110      	movs	r1, #16
 8003e00:	4620      	mov	r0, r4
 8003e02:	f7ff ff53 	bl	8003cac <USB_FlushTxFifo>
 8003e06:	4601      	mov	r1, r0
 8003e08:	4620      	mov	r0, r4
 8003e0a:	f7ff ff75 	bl	8003cf8 <USB_FlushRxFifo>
 8003e0e:	4308      	orrs	r0, r1
 8003e10:	2300      	movs	r3, #0
 8003e12:	9e06      	ldr	r6, [sp, #24]
 8003e14:	b2c0      	uxtb	r0, r0
 8003e16:	f504 62a0 	add.w	r2, r4, #1280	; 0x500
 8003e1a:	461d      	mov	r5, r3
 8003e1c:	f04f 31ff 	mov.w	r1, #4294967295
 8003e20:	3800      	subs	r0, #0
 8003e22:	bf18      	it	ne
 8003e24:	2001      	movne	r0, #1
 8003e26:	429e      	cmp	r6, r3
 8003e28:	d120      	bne.n	8003e6c <USB_HostInit+0xa0>
 8003e2a:	61a5      	str	r5, [r4, #24]
 8003e2c:	6161      	str	r1, [r4, #20]
 8003e2e:	6be3      	ldr	r3, [r4, #60]	; 0x3c
 8003e30:	05db      	lsls	r3, r3, #23
 8003e32:	d520      	bpl.n	8003e76 <USB_HostInit+0xaa>
 8003e34:	f44f 7300 	mov.w	r3, #512	; 0x200
 8003e38:	6263      	str	r3, [r4, #36]	; 0x24
 8003e3a:	f103 7380 	add.w	r3, r3, #16777216	; 0x1000000
 8003e3e:	62a3      	str	r3, [r4, #40]	; 0x28
 8003e40:	4b10      	ldr	r3, [pc, #64]	; (8003e84 <USB_HostInit+0xb8>)
 8003e42:	f8c4 3100 	str.w	r3, [r4, #256]	; 0x100
 8003e46:	9b08      	ldr	r3, [sp, #32]
 8003e48:	b91b      	cbnz	r3, 8003e52 <USB_HostInit+0x86>
 8003e4a:	69a3      	ldr	r3, [r4, #24]
 8003e4c:	f043 0310 	orr.w	r3, r3, #16
 8003e50:	61a3      	str	r3, [r4, #24]
 8003e52:	69a2      	ldr	r2, [r4, #24]
 8003e54:	4b0c      	ldr	r3, [pc, #48]	; (8003e88 <USB_HostInit+0xbc>)
 8003e56:	4313      	orrs	r3, r2
 8003e58:	61a3      	str	r3, [r4, #24]
 8003e5a:	e8bd 4070 	ldmia.w	sp!, {r4, r5, r6, lr}
 8003e5e:	b004      	add	sp, #16
 8003e60:	4770      	bx	lr
 8003e62:	f8d4 3400 	ldr.w	r3, [r4, #1024]	; 0x400
 8003e66:	f023 0304 	bic.w	r3, r3, #4
 8003e6a:	e7c6      	b.n	8003dfa <USB_HostInit+0x2e>
 8003e6c:	6091      	str	r1, [r2, #8]
 8003e6e:	3301      	adds	r3, #1
 8003e70:	60d5      	str	r5, [r2, #12]
 8003e72:	3220      	adds	r2, #32
 8003e74:	e7d7      	b.n	8003e26 <USB_HostInit+0x5a>
 8003e76:	2380      	movs	r3, #128	; 0x80
 8003e78:	6263      	str	r3, [r4, #36]	; 0x24
 8003e7a:	f503 03c0 	add.w	r3, r3, #6291456	; 0x600000
 8003e7e:	62a3      	str	r3, [r4, #40]	; 0x28
 8003e80:	4b02      	ldr	r3, [pc, #8]	; (8003e8c <USB_HostInit+0xc0>)
 8003e82:	e7de      	b.n	8003e42 <USB_HostInit+0x76>
 8003e84:	00e00300 	.word	0x00e00300
 8003e88:	a3200008 	.word	0xa3200008
 8003e8c:	004000e0 	.word	0x004000e0

08003e90 <USB_InitFSLSPClkSel>:
 8003e90:	f8d0 3400 	ldr.w	r3, [r0, #1024]	; 0x400
 8003e94:	2901      	cmp	r1, #1
 8003e96:	f500 6280 	add.w	r2, r0, #1024	; 0x400
 8003e9a:	f023 0303 	bic.w	r3, r3, #3
 8003e9e:	b510      	push	{r4, lr}
 8003ea0:	f8c0 3400 	str.w	r3, [r0, #1024]	; 0x400
 8003ea4:	f001 0303 	and.w	r3, r1, #3
 8003ea8:	f8d0 4400 	ldr.w	r4, [r0, #1024]	; 0x400
 8003eac:	ea43 0304 	orr.w	r3, r3, r4
 8003eb0:	f8c0 3400 	str.w	r3, [r0, #1024]	; 0x400
 8003eb4:	d104      	bne.n	8003ec0 <USB_InitFSLSPClkSel+0x30>
 8003eb6:	f64b 3380 	movw	r3, #48000	; 0xbb80
 8003eba:	6053      	str	r3, [r2, #4]
 8003ebc:	2000      	movs	r0, #0
 8003ebe:	bd10      	pop	{r4, pc}
 8003ec0:	2902      	cmp	r1, #2
 8003ec2:	d1fb      	bne.n	8003ebc <USB_InitFSLSPClkSel+0x2c>
 8003ec4:	f241 7370 	movw	r3, #6000	; 0x1770
 8003ec8:	e7f7      	b.n	8003eba <USB_InitFSLSPClkSel+0x2a>

08003eca <USB_ResetPort>:
 8003eca:	b537      	push	{r0, r1, r2, r4, r5, lr}
 8003ecc:	2500      	movs	r5, #0
 8003ece:	4604      	mov	r4, r0
 8003ed0:	9501      	str	r5, [sp, #4]
 8003ed2:	f8d0 3440 	ldr.w	r3, [r0, #1088]	; 0x440
 8003ed6:	9301      	str	r3, [sp, #4]
 8003ed8:	9b01      	ldr	r3, [sp, #4]
 8003eda:	f023 032e 	bic.w	r3, r3, #46	; 0x2e
 8003ede:	9301      	str	r3, [sp, #4]
 8003ee0:	9b01      	ldr	r3, [sp, #4]
 8003ee2:	f443 7380 	orr.w	r3, r3, #256	; 0x100
 8003ee6:	f8c0 3440 	str.w	r3, [r0, #1088]	; 0x440
 8003eea:	2064      	movs	r0, #100	; 0x64
 8003eec:	f7fd fa82 	bl	80013f4 <HAL_Delay>
 8003ef0:	9b01      	ldr	r3, [sp, #4]
 8003ef2:	200a      	movs	r0, #10
 8003ef4:	f423 7380 	bic.w	r3, r3, #256	; 0x100
 8003ef8:	f8c4 3440 	str.w	r3, [r4, #1088]	; 0x440
 8003efc:	f7fd fa7a 	bl	80013f4 <HAL_Delay>
 8003f00:	4628      	mov	r0, r5
 8003f02:	b003      	add	sp, #12
 8003f04:	bd30      	pop	{r4, r5, pc}

08003f06 <USB_DriveVbus>:
 8003f06:	b082      	sub	sp, #8
 8003f08:	2300      	movs	r3, #0
 8003f0a:	9301      	str	r3, [sp, #4]
 8003f0c:	f8d0 3440 	ldr.w	r3, [r0, #1088]	; 0x440
 8003f10:	9301      	str	r3, [sp, #4]
 8003f12:	9b01      	ldr	r3, [sp, #4]
 8003f14:	f023 032e 	bic.w	r3, r3, #46	; 0x2e
 8003f18:	9301      	str	r3, [sp, #4]
 8003f1a:	9b01      	ldr	r3, [sp, #4]
 8003f1c:	04da      	lsls	r2, r3, #19
 8003f1e:	d406      	bmi.n	8003f2e <USB_DriveVbus+0x28>
 8003f20:	2901      	cmp	r1, #1
 8003f22:	d104      	bne.n	8003f2e <USB_DriveVbus+0x28>
 8003f24:	9b01      	ldr	r3, [sp, #4]
 8003f26:	f443 5380 	orr.w	r3, r3, #4096	; 0x1000
 8003f2a:	f8c0 3440 	str.w	r3, [r0, #1088]	; 0x440
 8003f2e:	9b01      	ldr	r3, [sp, #4]
 8003f30:	04db      	lsls	r3, r3, #19
 8003f32:	d505      	bpl.n	8003f40 <USB_DriveVbus+0x3a>
 8003f34:	b921      	cbnz	r1, 8003f40 <USB_DriveVbus+0x3a>
 8003f36:	9b01      	ldr	r3, [sp, #4]
 8003f38:	f423 5380 	bic.w	r3, r3, #4096	; 0x1000
 8003f3c:	f8c0 3440 	str.w	r3, [r0, #1088]	; 0x440
 8003f40:	2000      	movs	r0, #0
 8003f42:	b002      	add	sp, #8
 8003f44:	4770      	bx	lr

08003f46 <USB_GetHostSpeed>:
 8003f46:	b082      	sub	sp, #8
 8003f48:	2300      	movs	r3, #0
 8003f4a:	9301      	str	r3, [sp, #4]
 8003f4c:	f8d0 3440 	ldr.w	r3, [r0, #1088]	; 0x440
 8003f50:	9301      	str	r3, [sp, #4]
 8003f52:	9801      	ldr	r0, [sp, #4]
 8003f54:	f3c0 4041 	ubfx	r0, r0, #17, #2
 8003f58:	b002      	add	sp, #8
 8003f5a:	4770      	bx	lr

08003f5c <USB_GetCurrentFrame>:
 8003f5c:	f500 6080 	add.w	r0, r0, #1024	; 0x400
 8003f60:	6880      	ldr	r0, [r0, #8]
 8003f62:	b280      	uxth	r0, r0
 8003f64:	4770      	bx	lr

08003f66 <USB_HC_Init>:
 8003f66:	e92d 41f0 	stmdb	sp!, {r4, r5, r6, r7, r8, lr}
 8003f6a:	eb00 1741 	add.w	r7, r0, r1, lsl #5
 8003f6e:	461c      	mov	r4, r3
 8003f70:	f89d 601c 	ldrb.w	r6, [sp, #28]
 8003f74:	f04f 33ff 	mov.w	r3, #4294967295
 8003f78:	f507 6ca0 	add.w	ip, r7, #1280	; 0x500
 8003f7c:	fa4f fe82 	sxtb.w	lr, r2
 8003f80:	f8cc 3008 	str.w	r3, [ip, #8]
 8003f84:	2e03      	cmp	r6, #3
 8003f86:	d87a      	bhi.n	800407e <USB_HC_Init+0x118>
 8003f88:	e8df f006 	tbb	[pc, r6]
 8003f8c:	65026d02 	.word	0x65026d02
 8003f90:	f240 439d 	movw	r3, #1181	; 0x49d
 8003f94:	f1be 0f00 	cmp.w	lr, #0
 8003f98:	f8cc 300c 	str.w	r3, [ip, #12]
 8003f9c:	da04      	bge.n	8003fa8 <USB_HC_Init+0x42>
 8003f9e:	f8dc 300c 	ldr.w	r3, [ip, #12]
 8003fa2:	f443 7380 	orr.w	r3, r3, #256	; 0x100
 8003fa6:	e053      	b.n	8004050 <USB_HC_Init+0xea>
 8003fa8:	6bc3      	ldr	r3, [r0, #60]	; 0x3c
 8003faa:	05db      	lsls	r3, r3, #23
 8003fac:	d44c      	bmi.n	8004048 <USB_HC_Init+0xe2>
 8003fae:	2500      	movs	r5, #0
 8003fb0:	f8dc 300c 	ldr.w	r3, [ip, #12]
 8003fb4:	f1be 0f00 	cmp.w	lr, #0
 8003fb8:	f043 0302 	orr.w	r3, r3, #2
 8003fbc:	f8cc 300c 	str.w	r3, [ip, #12]
 8003fc0:	f001 030f 	and.w	r3, r1, #15
 8003fc4:	f04f 0101 	mov.w	r1, #1
 8003fc8:	f8d0 8418 	ldr.w	r8, [r0, #1048]	; 0x418
 8003fcc:	fa01 f103 	lsl.w	r1, r1, r3
 8003fd0:	ea41 0108 	orr.w	r1, r1, r8
 8003fd4:	f8c0 1418 	str.w	r1, [r0, #1048]	; 0x418
 8003fd8:	bfb8      	it	lt
 8003fda:	f44f 4100 	movlt.w	r1, #32768	; 0x8000
 8003fde:	6983      	ldr	r3, [r0, #24]
 8003fe0:	bfa8      	it	ge
 8003fe2:	2100      	movge	r1, #0
 8003fe4:	f043 7300 	orr.w	r3, r3, #33554432	; 0x2000000
 8003fe8:	6183      	str	r3, [r0, #24]
 8003fea:	f7ff ffac 	bl	8003f46 <USB_GetHostSpeed>
 8003fee:	f89d 3018 	ldrb.w	r3, [sp, #24]
 8003ff2:	2b02      	cmp	r3, #2
 8003ff4:	d145      	bne.n	8004082 <USB_HC_Init+0x11c>
 8003ff6:	2802      	cmp	r0, #2
 8003ff8:	bf0c      	ite	eq
 8003ffa:	2000      	moveq	r0, #0
 8003ffc:	f44f 3000 	movne.w	r0, #131072	; 0x20000
 8004000:	05a3      	lsls	r3, r4, #22
 8004002:	f8bd 4020 	ldrh.w	r4, [sp, #32]
 8004006:	02d2      	lsls	r2, r2, #11
 8004008:	f003 53fe 	and.w	r3, r3, #532676608	; 0x1fc00000
 800400c:	f3c4 040a 	ubfx	r4, r4, #0, #11
 8004010:	f402 42f0 	and.w	r2, r2, #30720	; 0x7800
 8004014:	4323      	orrs	r3, r4
 8004016:	4313      	orrs	r3, r2
 8004018:	04b2      	lsls	r2, r6, #18
 800401a:	f006 06fd 	and.w	r6, r6, #253	; 0xfd
 800401e:	f402 2240 	and.w	r2, r2, #786432	; 0xc0000
 8004022:	2e01      	cmp	r6, #1
 8004024:	ea43 0302 	orr.w	r3, r3, r2
 8004028:	ea43 0301 	orr.w	r3, r3, r1
 800402c:	ea43 0300 	orr.w	r3, r3, r0
 8004030:	f8c7 3500 	str.w	r3, [r7, #1280]	; 0x500
 8004034:	d105      	bne.n	8004042 <USB_HC_Init+0xdc>
 8004036:	f8d7 3500 	ldr.w	r3, [r7, #1280]	; 0x500
 800403a:	f043 5300 	orr.w	r3, r3, #536870912	; 0x20000000
 800403e:	f8c7 3500 	str.w	r3, [r7, #1280]	; 0x500
 8004042:	4628      	mov	r0, r5
 8004044:	e8bd 81f0 	ldmia.w	sp!, {r4, r5, r6, r7, r8, pc}
 8004048:	f8dc 300c 	ldr.w	r3, [ip, #12]
 800404c:	f043 0360 	orr.w	r3, r3, #96	; 0x60
 8004050:	f8cc 300c 	str.w	r3, [ip, #12]
 8004054:	e7ab      	b.n	8003fae <USB_HC_Init+0x48>
 8004056:	f240 639d 	movw	r3, #1693	; 0x69d
 800405a:	f1be 0f00 	cmp.w	lr, #0
 800405e:	f8cc 300c 	str.w	r3, [ip, #12]
 8004062:	daa4      	bge.n	8003fae <USB_HC_Init+0x48>
 8004064:	e79b      	b.n	8003f9e <USB_HC_Init+0x38>
 8004066:	f240 2325 	movw	r3, #549	; 0x225
 800406a:	f1be 0f00 	cmp.w	lr, #0
 800406e:	f8cc 300c 	str.w	r3, [ip, #12]
 8004072:	da9c      	bge.n	8003fae <USB_HC_Init+0x48>
 8004074:	f8dc 300c 	ldr.w	r3, [ip, #12]
 8004078:	f443 73c0 	orr.w	r3, r3, #384	; 0x180
 800407c:	e7e8      	b.n	8004050 <USB_HC_Init+0xea>
 800407e:	2501      	movs	r5, #1
 8004080:	e796      	b.n	8003fb0 <USB_HC_Init+0x4a>
 8004082:	2000      	movs	r0, #0
 8004084:	e7bc      	b.n	8004000 <USB_HC_Init+0x9a>

08004086 <USB_HC_ReadInterrupt>:
 8004086:	f500 6080 	add.w	r0, r0, #1024	; 0x400
 800408a:	6940      	ldr	r0, [r0, #20]
 800408c:	b280      	uxth	r0, r0
 800408e:	4770      	bx	lr

08004090 <USB_HC_Halt>:
 8004090:	b537      	push	{r0, r1, r2, r4, r5, lr}
 8004092:	2300      	movs	r3, #0
 8004094:	eb00 1141 	add.w	r1, r0, r1, lsl #5
 8004098:	9301      	str	r3, [sp, #4]
 800409a:	f501 62a0 	add.w	r2, r1, #1280	; 0x500
 800409e:	f8d1 3500 	ldr.w	r3, [r1, #1280]	; 0x500
 80040a2:	f8d1 4500 	ldr.w	r4, [r1, #1280]	; 0x500
 80040a6:	6885      	ldr	r5, [r0, #8]
 80040a8:	0c9b      	lsrs	r3, r3, #18
 80040aa:	06ad      	lsls	r5, r5, #26
 80040ac:	d501      	bpl.n	80040b2 <USB_HC_Halt+0x22>
 80040ae:	2c00      	cmp	r4, #0
 80040b0:	da25      	bge.n	80040fe <USB_HC_Halt+0x6e>
 80040b2:	f013 0f01 	tst.w	r3, #1
 80040b6:	f8d1 3500 	ldr.w	r3, [r1, #1280]	; 0x500
 80040ba:	f043 4380 	orr.w	r3, r3, #1073741824	; 0x40000000
 80040be:	f8c1 3500 	str.w	r3, [r1, #1280]	; 0x500
 80040c2:	d11f      	bne.n	8004104 <USB_HC_Halt+0x74>
 80040c4:	6883      	ldr	r3, [r0, #8]
 80040c6:	069b      	lsls	r3, r3, #26
 80040c8:	d419      	bmi.n	80040fe <USB_HC_Halt+0x6e>
 80040ca:	6ac3      	ldr	r3, [r0, #44]	; 0x2c
 80040cc:	f413 0f7f 	tst.w	r3, #16711680	; 0xff0000
 80040d0:	f8d1 3500 	ldr.w	r3, [r1, #1280]	; 0x500
 80040d4:	d132      	bne.n	800413c <USB_HC_Halt+0xac>
 80040d6:	f023 4300 	bic.w	r3, r3, #2147483648	; 0x80000000
 80040da:	f8c1 3500 	str.w	r3, [r1, #1280]	; 0x500
 80040de:	f8d1 3500 	ldr.w	r3, [r1, #1280]	; 0x500
 80040e2:	f043 4300 	orr.w	r3, r3, #2147483648	; 0x80000000
 80040e6:	f8c1 3500 	str.w	r3, [r1, #1280]	; 0x500
 80040ea:	9b01      	ldr	r3, [sp, #4]
 80040ec:	3301      	adds	r3, #1
 80040ee:	9301      	str	r3, [sp, #4]
 80040f0:	9b01      	ldr	r3, [sp, #4]
 80040f2:	f5b3 7f7a 	cmp.w	r3, #1000	; 0x3e8
 80040f6:	d802      	bhi.n	80040fe <USB_HC_Halt+0x6e>
 80040f8:	6813      	ldr	r3, [r2, #0]
 80040fa:	2b00      	cmp	r3, #0
 80040fc:	dbf5      	blt.n	80040ea <USB_HC_Halt+0x5a>
 80040fe:	2000      	movs	r0, #0
 8004100:	b003      	add	sp, #12
 8004102:	bd30      	pop	{r4, r5, pc}
 8004104:	f8d0 3410 	ldr.w	r3, [r0, #1040]	; 0x410
 8004108:	f413 0f7f 	tst.w	r3, #16711680	; 0xff0000
 800410c:	f8d1 3500 	ldr.w	r3, [r1, #1280]	; 0x500
 8004110:	d114      	bne.n	800413c <USB_HC_Halt+0xac>
 8004112:	f023 4300 	bic.w	r3, r3, #2147483648	; 0x80000000
 8004116:	f8c1 3500 	str.w	r3, [r1, #1280]	; 0x500
 800411a:	f8d1 3500 	ldr.w	r3, [r1, #1280]	; 0x500
 800411e:	f043 4300 	orr.w	r3, r3, #2147483648	; 0x80000000
 8004122:	f8c1 3500 	str.w	r3, [r1, #1280]	; 0x500
 8004126:	9b01      	ldr	r3, [sp, #4]
 8004128:	3301      	adds	r3, #1
 800412a:	9301      	str	r3, [sp, #4]
 800412c:	9b01      	ldr	r3, [sp, #4]
 800412e:	f5b3 7f7a 	cmp.w	r3, #1000	; 0x3e8
 8004132:	d8e4      	bhi.n	80040fe <USB_HC_Halt+0x6e>
 8004134:	6813      	ldr	r3, [r2, #0]
 8004136:	2b00      	cmp	r3, #0
 8004138:	dbf5      	blt.n	8004126 <USB_HC_Halt+0x96>
 800413a:	e7e0      	b.n	80040fe <USB_HC_Halt+0x6e>
 800413c:	f043 4300 	orr.w	r3, r3, #2147483648	; 0x80000000
 8004140:	f8c1 3500 	str.w	r3, [r1, #1280]	; 0x500
 8004144:	e7db      	b.n	80040fe <USB_HC_Halt+0x6e>
	...

08004148 <USB_DoPing>:
 8004148:	eb00 1141 	add.w	r1, r0, r1, lsl #5
 800414c:	4a06      	ldr	r2, [pc, #24]	; (8004168 <USB_DoPing+0x20>)
 800414e:	2000      	movs	r0, #0
 8004150:	f8c1 2510 	str.w	r2, [r1, #1296]	; 0x510
 8004154:	f8d1 3500 	ldr.w	r3, [r1, #1280]	; 0x500
 8004158:	f023 4380 	bic.w	r3, r3, #1073741824	; 0x40000000
 800415c:	f043 4300 	orr.w	r3, r3, #2147483648	; 0x80000000
 8004160:	f8c1 3500 	str.w	r3, [r1, #1280]	; 0x500
 8004164:	4770      	bx	lr
 8004166:	bf00      	nop
 8004168:	80080000 	.word	0x80080000

0800416c <USB_HC_StartXfer>:
 800416c:	e92d 41ff 	stmdb	sp!, {r0, r1, r2, r3, r4, r5, r6, r7, r8, lr}
 8004170:	6bc3      	ldr	r3, [r0, #60]	; 0x3c
 8004172:	4615      	mov	r5, r2
 8004174:	4604      	mov	r4, r0
 8004176:	784a      	ldrb	r2, [r1, #1]
 8004178:	05db      	lsls	r3, r3, #23
 800417a:	d50f      	bpl.n	800419c <USB_HC_StartXfer+0x30>
 800417c:	790b      	ldrb	r3, [r1, #4]
 800417e:	b96b      	cbnz	r3, 800419c <USB_HC_StartXfer+0x30>
 8004180:	2d01      	cmp	r5, #1
 8004182:	d168      	bne.n	8004256 <USB_HC_StartXfer+0xea>
 8004184:	79cb      	ldrb	r3, [r1, #7]
 8004186:	f013 0ffd 	tst.w	r3, #253	; 0xfd
 800418a:	d107      	bne.n	800419c <USB_HC_StartXfer+0x30>
 800418c:	eb00 1342 	add.w	r3, r0, r2, lsl #5
 8004190:	f8d3 050c 	ldr.w	r0, [r3, #1292]	; 0x50c
 8004194:	f020 0070 	bic.w	r0, r0, #112	; 0x70
 8004198:	f8c3 050c 	str.w	r0, [r3, #1292]	; 0x50c
 800419c:	694b      	ldr	r3, [r1, #20]
 800419e:	2b00      	cmp	r3, #0
 80041a0:	d065      	beq.n	800426e <USB_HC_StartXfer+0x102>
 80041a2:	890e      	ldrh	r6, [r1, #8]
 80041a4:	1e58      	subs	r0, r3, #1
 80041a6:	4430      	add	r0, r6
 80041a8:	fbb0 f0f6 	udiv	r0, r0, r6
 80041ac:	b280      	uxth	r0, r0
 80041ae:	f5b0 7f80 	cmp.w	r0, #256	; 0x100
 80041b2:	bf28      	it	cs
 80041b4:	f44f 7080 	movcs.w	r0, #256	; 0x100
 80041b8:	78cf      	ldrb	r7, [r1, #3]
 80041ba:	2f00      	cmp	r7, #0
 80041bc:	d059      	beq.n	8004272 <USB_HC_StartXfer+0x106>
 80041be:	f8b1 8008 	ldrh.w	r8, [r1, #8]
 80041c2:	fb00 f808 	mul.w	r8, r0, r8
 80041c6:	f891 c00a 	ldrb.w	ip, [r1, #10]
 80041ca:	eb04 1642 	add.w	r6, r4, r2, lsl #5
 80041ce:	f8c1 8010 	str.w	r8, [r1, #16]
 80041d2:	f3c8 0812 	ubfx	r8, r8, #0, #19
 80041d6:	ea4f 7c4c 	mov.w	ip, ip, lsl #29
 80041da:	f00c 4cc0 	and.w	ip, ip, #1610612736	; 0x60000000
 80041de:	ea4c 40c0 	orr.w	r0, ip, r0, lsl #19
 80041e2:	ea40 0008 	orr.w	r0, r0, r8
 80041e6:	f8c6 0510 	str.w	r0, [r6, #1296]	; 0x510
 80041ea:	b115      	cbz	r5, 80041f2 <USB_HC_StartXfer+0x86>
 80041ec:	68c8      	ldr	r0, [r1, #12]
 80041ee:	f8c6 0514 	str.w	r0, [r6, #1300]	; 0x514
 80041f2:	f8d4 0408 	ldr.w	r0, [r4, #1032]	; 0x408
 80041f6:	f504 6c80 	add.w	ip, r4, #1024	; 0x400
 80041fa:	f8d6 e500 	ldr.w	lr, [r6, #1280]	; 0x500
 80041fe:	43c0      	mvns	r0, r0
 8004200:	f02e 5e00 	bic.w	lr, lr, #536870912	; 0x20000000
 8004204:	0740      	lsls	r0, r0, #29
 8004206:	f8c6 e500 	str.w	lr, [r6, #1280]	; 0x500
 800420a:	f000 5000 	and.w	r0, r0, #536870912	; 0x20000000
 800420e:	f8d6 e500 	ldr.w	lr, [r6, #1280]	; 0x500
 8004212:	ea40 000e 	orr.w	r0, r0, lr
 8004216:	f8c6 0500 	str.w	r0, [r6, #1280]	; 0x500
 800421a:	f8d6 0500 	ldr.w	r0, [r6, #1280]	; 0x500
 800421e:	9003      	str	r0, [sp, #12]
 8004220:	9803      	ldr	r0, [sp, #12]
 8004222:	f020 4080 	bic.w	r0, r0, #1073741824	; 0x40000000
 8004226:	9003      	str	r0, [sp, #12]
 8004228:	9803      	ldr	r0, [sp, #12]
 800422a:	b327      	cbz	r7, 8004276 <USB_HC_StartXfer+0x10a>
 800422c:	f440 4000 	orr.w	r0, r0, #32768	; 0x8000
 8004230:	9003      	str	r0, [sp, #12]
 8004232:	9803      	ldr	r0, [sp, #12]
 8004234:	f040 4000 	orr.w	r0, r0, #2147483648	; 0x80000000
 8004238:	9003      	str	r0, [sp, #12]
 800423a:	9803      	ldr	r0, [sp, #12]
 800423c:	f8c6 0500 	str.w	r0, [r6, #1280]	; 0x500
 8004240:	ea57 0005 	orrs.w	r0, r7, r5
 8004244:	d10f      	bne.n	8004266 <USB_HC_StartXfer+0xfa>
 8004246:	b173      	cbz	r3, 8004266 <USB_HC_StartXfer+0xfa>
 8004248:	79c8      	ldrb	r0, [r1, #7]
 800424a:	2803      	cmp	r0, #3
 800424c:	d821      	bhi.n	8004292 <USB_HC_StartXfer+0x126>
 800424e:	e8df f000 	tbb	[pc, r0]
 8004252:	2815      	.short	0x2815
 8004254:	2815      	.short	0x2815
 8004256:	2d00      	cmp	r5, #0
 8004258:	d1a0      	bne.n	800419c <USB_HC_StartXfer+0x30>
 800425a:	794b      	ldrb	r3, [r1, #5]
 800425c:	2b01      	cmp	r3, #1
 800425e:	d19d      	bne.n	800419c <USB_HC_StartXfer+0x30>
 8004260:	4611      	mov	r1, r2
 8004262:	f7ff ff71 	bl	8004148 <USB_DoPing>
 8004266:	2000      	movs	r0, #0
 8004268:	b004      	add	sp, #16
 800426a:	e8bd 81f0 	ldmia.w	sp!, {r4, r5, r6, r7, r8, pc}
 800426e:	2001      	movs	r0, #1
 8004270:	e7a2      	b.n	80041b8 <USB_HC_StartXfer+0x4c>
 8004272:	4698      	mov	r8, r3
 8004274:	e7a7      	b.n	80041c6 <USB_HC_StartXfer+0x5a>
 8004276:	f420 4000 	bic.w	r0, r0, #32768	; 0x8000
 800427a:	e7d9      	b.n	8004230 <USB_HC_StartXfer+0xc4>
 800427c:	6ae5      	ldr	r5, [r4, #44]	; 0x2c
 800427e:	1cd8      	adds	r0, r3, #3
 8004280:	b2ad      	uxth	r5, r5
 8004282:	f3c0 008f 	ubfx	r0, r0, #2, #16
 8004286:	4285      	cmp	r5, r0
 8004288:	d203      	bcs.n	8004292 <USB_HC_StartXfer+0x126>
 800428a:	69a0      	ldr	r0, [r4, #24]
 800428c:	f040 0020 	orr.w	r0, r0, #32
 8004290:	61a0      	str	r0, [r4, #24]
 8004292:	2000      	movs	r0, #0
 8004294:	b29b      	uxth	r3, r3
 8004296:	9000      	str	r0, [sp, #0]
 8004298:	4620      	mov	r0, r4
 800429a:	68c9      	ldr	r1, [r1, #12]
 800429c:	f7ff fd50 	bl	8003d40 <USB_WritePacket>
 80042a0:	e7e1      	b.n	8004266 <USB_HC_StartXfer+0xfa>
 80042a2:	f8dc 5010 	ldr.w	r5, [ip, #16]
 80042a6:	1cd8      	adds	r0, r3, #3
 80042a8:	b2ad      	uxth	r5, r5
 80042aa:	f3c0 008f 	ubfx	r0, r0, #2, #16
 80042ae:	4285      	cmp	r5, r0
 80042b0:	d2ef      	bcs.n	8004292 <USB_HC_StartXfer+0x126>
 80042b2:	69a0      	ldr	r0, [r4, #24]
 80042b4:	f040 6080 	orr.w	r0, r0, #67108864	; 0x4000000
 80042b8:	e7ea      	b.n	8004290 <USB_HC_StartXfer+0x124>

080042ba <USB_StopHost>:
 80042ba:	2300      	movs	r3, #0
 80042bc:	b537      	push	{r0, r1, r2, r4, r5, lr}
 80042be:	9301      	str	r3, [sp, #4]
 80042c0:	4604      	mov	r4, r0
 80042c2:	6883      	ldr	r3, [r0, #8]
 80042c4:	2110      	movs	r1, #16
 80042c6:	f504 65e0 	add.w	r5, r4, #1792	; 0x700
 80042ca:	f023 0301 	bic.w	r3, r3, #1
 80042ce:	6083      	str	r3, [r0, #8]
 80042d0:	f7ff fcec 	bl	8003cac <USB_FlushTxFifo>
 80042d4:	4601      	mov	r1, r0
 80042d6:	4620      	mov	r0, r4
 80042d8:	f7ff fd0e 	bl	8003cf8 <USB_FlushRxFifo>
 80042dc:	4308      	orrs	r0, r1
 80042de:	f504 63a0 	add.w	r3, r4, #1280	; 0x500
 80042e2:	b2c0      	uxtb	r0, r0
 80042e4:	4619      	mov	r1, r3
 80042e6:	3800      	subs	r0, #0
 80042e8:	bf18      	it	ne
 80042ea:	2001      	movne	r0, #1
 80042ec:	680a      	ldr	r2, [r1, #0]
 80042ee:	f022 2280 	bic.w	r2, r2, #2147516416	; 0x80008000
 80042f2:	f042 4280 	orr.w	r2, r2, #1073741824	; 0x40000000
 80042f6:	f841 2b20 	str.w	r2, [r1], #32
 80042fa:	42a9      	cmp	r1, r5
 80042fc:	d1f6      	bne.n	80042ec <USB_StopHost+0x32>
 80042fe:	681a      	ldr	r2, [r3, #0]
 8004300:	f422 4200 	bic.w	r2, r2, #32768	; 0x8000
 8004304:	f042 4240 	orr.w	r2, r2, #3221225472	; 0xc0000000
 8004308:	601a      	str	r2, [r3, #0]
 800430a:	9a01      	ldr	r2, [sp, #4]
 800430c:	3201      	adds	r2, #1
 800430e:	9201      	str	r2, [sp, #4]
 8004310:	9a01      	ldr	r2, [sp, #4]
 8004312:	f5b2 7f7a 	cmp.w	r2, #1000	; 0x3e8
 8004316:	d802      	bhi.n	800431e <USB_StopHost+0x64>
 8004318:	681a      	ldr	r2, [r3, #0]
 800431a:	2a00      	cmp	r2, #0
 800431c:	dbf5      	blt.n	800430a <USB_StopHost+0x50>
 800431e:	3320      	adds	r3, #32
 8004320:	42ab      	cmp	r3, r5
 8004322:	d1ec      	bne.n	80042fe <USB_StopHost+0x44>
 8004324:	f04f 33ff 	mov.w	r3, #4294967295
 8004328:	f8c4 3414 	str.w	r3, [r4, #1044]	; 0x414
 800432c:	6163      	str	r3, [r4, #20]
 800432e:	68a3      	ldr	r3, [r4, #8]
 8004330:	f043 0301 	orr.w	r3, r3, #1
 8004334:	60a3      	str	r3, [r4, #8]
 8004336:	b003      	add	sp, #12
 8004338:	bd30      	pop	{r4, r5, pc}

0800433a <USBH_HID_ClassRequest>:
 800433a:	2000      	movs	r0, #0
 800433c:	4770      	bx	lr

0800433e <USBH_HID_InterfaceDeInit>:
 800433e:	e92d 41f0 	stmdb	sp!, {r4, r5, r6, r7, r8, lr}
 8004342:	2600      	movs	r6, #0
 8004344:	4604      	mov	r4, r0
 8004346:	46b0      	mov	r8, r6
 8004348:	f8d4 3380 	ldr.w	r3, [r4, #896]	; 0x380
 800434c:	f106 0708 	add.w	r7, r6, #8
 8004350:	f853 5027 	ldr.w	r5, [r3, r7, lsl #2]
 8004354:	7869      	ldrb	r1, [r5, #1]
 8004356:	b141      	cbz	r1, 800436a <USBH_HID_InterfaceDeInit+0x2c>
 8004358:	4620      	mov	r0, r4
 800435a:	f002 fcf0 	bl	8006d3e <USBH_ClosePipe>
 800435e:	7869      	ldrb	r1, [r5, #1]
 8004360:	4620      	mov	r0, r4
 8004362:	f002 fd08 	bl	8006d76 <USBH_FreePipe>
 8004366:	f885 8001 	strb.w	r8, [r5, #1]
 800436a:	7829      	ldrb	r1, [r5, #0]
 800436c:	b141      	cbz	r1, 8004380 <USBH_HID_InterfaceDeInit+0x42>
 800436e:	4620      	mov	r0, r4
 8004370:	f002 fce5 	bl	8006d3e <USBH_ClosePipe>
 8004374:	7829      	ldrb	r1, [r5, #0]
 8004376:	4620      	mov	r0, r4
 8004378:	f002 fcfd 	bl	8006d76 <USBH_FreePipe>
 800437c:	f885 8000 	strb.w	r8, [r5]
 8004380:	f8d4 3380 	ldr.w	r3, [r4, #896]	; 0x380
 8004384:	f853 0027 	ldr.w	r0, [r3, r7, lsl #2]
 8004388:	b158      	cbz	r0, 80043a2 <USBH_HID_InterfaceDeInit+0x64>
 800438a:	f002 ff55 	bl	8007238 <free>
 800438e:	f8d4 3380 	ldr.w	r3, [r4, #896]	; 0x380
 8004392:	f853 0027 	ldr.w	r0, [r3, r7, lsl #2]
 8004396:	f002 ff4f 	bl	8007238 <free>
 800439a:	f8d4 3380 	ldr.w	r3, [r4, #896]	; 0x380
 800439e:	f843 8027 	str.w	r8, [r3, r7, lsl #2]
 80043a2:	b136      	cbz	r6, 80043b2 <USBH_HID_InterfaceDeInit+0x74>
 80043a4:	f8d4 3380 	ldr.w	r3, [r4, #896]	; 0x380
 80043a8:	2000      	movs	r0, #0
 80043aa:	8398      	strh	r0, [r3, #28]
 80043ac:	7798      	strb	r0, [r3, #30]
 80043ae:	e8bd 81f0 	ldmia.w	sp!, {r4, r5, r6, r7, r8, pc}
 80043b2:	2601      	movs	r6, #1
 80043b4:	e7c8      	b.n	8004348 <USBH_HID_InterfaceDeInit+0xa>

080043b6 <USBH_HID_NextInterface>:
 80043b6:	f890 3324 	ldrb.w	r3, [r0, #804]	; 0x324
 80043ba:	f8d0 2380 	ldr.w	r2, [r0, #896]	; 0x380
 80043be:	3301      	adds	r3, #1
 80043c0:	b2db      	uxtb	r3, r3
 80043c2:	f880 3324 	strb.w	r3, [r0, #804]	; 0x324
 80043c6:	7f12      	ldrb	r2, [r2, #28]
 80043c8:	429a      	cmp	r2, r3
 80043ca:	bf9c      	itt	ls
 80043cc:	2300      	movls	r3, #0
 80043ce:	f880 3324 	strbls.w	r3, [r0, #804]	; 0x324
 80043d2:	4770      	bx	lr

080043d4 <USBH_HID_SOFProcess>:
 80043d4:	b508      	push	{r3, lr}
 80043d6:	f890 2324 	ldrb.w	r2, [r0, #804]	; 0x324
 80043da:	f8d0 1380 	ldr.w	r1, [r0, #896]	; 0x380
 80043de:	3208      	adds	r2, #8
 80043e0:	f851 2022 	ldr.w	r2, [r1, r2, lsl #2]
 80043e4:	7891      	ldrb	r1, [r2, #2]
 80043e6:	2906      	cmp	r1, #6
 80043e8:	d10a      	bne.n	8004400 <USBH_HID_SOFProcess+0x2c>
 80043ea:	6a11      	ldr	r1, [r2, #32]
 80043ec:	f8d0 33c8 	ldr.w	r3, [r0, #968]	; 0x3c8
 80043f0:	1a5b      	subs	r3, r3, r1
 80043f2:	8b91      	ldrh	r1, [r2, #28]
 80043f4:	428b      	cmp	r3, r1
 80043f6:	d303      	bcc.n	8004400 <USBH_HID_SOFProcess+0x2c>
 80043f8:	2304      	movs	r3, #4
 80043fa:	7093      	strb	r3, [r2, #2]
 80043fc:	f7ff ffdb 	bl	80043b6 <USBH_HID_NextInterface>
 8004400:	2000      	movs	r0, #0
 8004402:	bd08      	pop	{r3, pc}

08004404 <USBH_HID_GetHIDReportDescriptor>:
 8004404:	b507      	push	{r0, r1, r2, lr}
 8004406:	9101      	str	r1, [sp, #4]
 8004408:	f500 718e 	add.w	r1, r0, #284	; 0x11c
 800440c:	4613      	mov	r3, r2
 800440e:	f44f 5208 	mov.w	r2, #8704	; 0x2200
 8004412:	9100      	str	r1, [sp, #0]
 8004414:	2101      	movs	r1, #1
 8004416:	f002 fba5 	bl	8006b64 <USBH_GetDescriptor>
 800441a:	b003      	add	sp, #12
 800441c:	f85d fb04 	ldr.w	pc, [sp], #4

08004420 <USBH_HID_GetHIDDescriptor>:
 8004420:	b507      	push	{r0, r1, r2, lr}
 8004422:	9101      	str	r1, [sp, #4]
 8004424:	f500 718e 	add.w	r1, r0, #284	; 0x11c
 8004428:	4613      	mov	r3, r2
 800442a:	f44f 5204 	mov.w	r2, #8448	; 0x2100
 800442e:	9100      	str	r1, [sp, #0]
 8004430:	2101      	movs	r1, #1
 8004432:	f002 fb97 	bl	8006b64 <USBH_GetDescriptor>
 8004436:	b003      	add	sp, #12
 8004438:	f85d fb04 	ldr.w	pc, [sp], #4

0800443c <USBH_HID_SetIdle>:
 800443c:	b430      	push	{r4, r5}
 800443e:	ea42 2101 	orr.w	r1, r2, r1, lsl #8
 8004442:	f640 2521 	movw	r5, #2593	; 0xa21
 8004446:	2200      	movs	r2, #0
 8004448:	82c3      	strh	r3, [r0, #22]
 800444a:	8205      	strh	r5, [r0, #16]
 800444c:	8241      	strh	r1, [r0, #18]
 800444e:	4611      	mov	r1, r2
 8004450:	8282      	strh	r2, [r0, #20]
 8004452:	bc30      	pop	{r4, r5}
 8004454:	f002 bacb 	b.w	80069ee <USBH_CtlReq>

08004458 <USBH_HID_SetReport>:
 8004458:	ea42 2201 	orr.w	r2, r2, r1, lsl #8
 800445c:	4619      	mov	r1, r3
 800445e:	b430      	push	{r4, r5}
 8004460:	8242      	strh	r2, [r0, #18]
 8004462:	2200      	movs	r2, #0
 8004464:	f640 1521 	movw	r5, #2337	; 0x921
 8004468:	8282      	strh	r2, [r0, #20]
 800446a:	f89d 2008 	ldrb.w	r2, [sp, #8]
 800446e:	8205      	strh	r5, [r0, #16]
 8004470:	82c2      	strh	r2, [r0, #22]
 8004472:	bc30      	pop	{r4, r5}
 8004474:	f002 babb 	b.w	80069ee <USBH_CtlReq>

08004478 <USBH_HID_SetProtocol>:
 8004478:	b410      	push	{r4}
 800447a:	f640 3421 	movw	r4, #2849	; 0xb21
 800447e:	8282      	strh	r2, [r0, #20]
 8004480:	2200      	movs	r2, #0
 8004482:	8241      	strh	r1, [r0, #18]
 8004484:	8204      	strh	r4, [r0, #16]
 8004486:	4611      	mov	r1, r2
 8004488:	f85d 4b04 	ldr.w	r4, [sp], #4
 800448c:	82c2      	strh	r2, [r0, #22]
 800448e:	f002 baae 	b.w	80069ee <USBH_CtlReq>

08004492 <USBH_HID_ParseHIDDesc>:
 8004492:	780b      	ldrb	r3, [r1, #0]
 8004494:	7003      	strb	r3, [r0, #0]
 8004496:	784b      	ldrb	r3, [r1, #1]
 8004498:	7043      	strb	r3, [r0, #1]
 800449a:	884b      	ldrh	r3, [r1, #2]
 800449c:	8043      	strh	r3, [r0, #2]
 800449e:	790b      	ldrb	r3, [r1, #4]
 80044a0:	7103      	strb	r3, [r0, #4]
 80044a2:	794b      	ldrb	r3, [r1, #5]
 80044a4:	7143      	strb	r3, [r0, #5]
 80044a6:	798b      	ldrb	r3, [r1, #6]
 80044a8:	7183      	strb	r3, [r0, #6]
 80044aa:	f8b1 3007 	ldrh.w	r3, [r1, #7]
 80044ae:	8103      	strh	r3, [r0, #8]
 80044b0:	4770      	bx	lr
	...

080044b4 <USBH_HID_InterfaceInit>:
 80044b4:	e92d 43f0 	stmdb	sp!, {r4, r5, r6, r7, r8, r9, lr}
 80044b8:	f8d0 5380 	ldr.w	r5, [r0, #896]	; 0x380
 80044bc:	b085      	sub	sp, #20
 80044be:	4604      	mov	r4, r0
 80044c0:	7fae      	ldrb	r6, [r5, #30]
 80044c2:	2e07      	cmp	r6, #7
 80044c4:	d83b      	bhi.n	800453e <USBH_HID_InterfaceInit+0x8a>
 80044c6:	e8df f016 	tbh	[pc, r6, lsl #1]
 80044ca:	0008      	.short	0x0008
 80044cc:	004f002a 	.word	0x004f002a
 80044d0:	00b10070 	.word	0x00b10070
 80044d4:	01120105 	.word	0x01120105
 80044d8:	013d      	.short	0x013d
 80044da:	2700      	movs	r7, #0
 80044dc:	f105 0820 	add.w	r8, r5, #32
 80044e0:	f105 0928 	add.w	r9, r5, #40	; 0x28
 80044e4:	776f      	strb	r7, [r5, #29]
 80044e6:	206c      	movs	r0, #108	; 0x6c
 80044e8:	341a      	adds	r4, #26
 80044ea:	f002 fe9d 	bl	8007228 <malloc>
 80044ee:	226c      	movs	r2, #108	; 0x6c
 80044f0:	f848 0b04 	str.w	r0, [r8], #4
 80044f4:	2100      	movs	r1, #0
 80044f6:	4606      	mov	r6, r0
 80044f8:	f002 fea6 	bl	8007248 <memset>
 80044fc:	f894 3334 	ldrb.w	r3, [r4, #820]	; 0x334
 8004500:	45c1      	cmp	r9, r8
 8004502:	70b7      	strb	r7, [r6, #2]
 8004504:	76b3      	strb	r3, [r6, #26]
 8004506:	f8b4 3336 	ldrh.w	r3, [r4, #822]	; 0x336
 800450a:	7177      	strb	r7, [r6, #5]
 800450c:	8333      	strh	r3, [r6, #24]
 800450e:	f894 3338 	ldrb.w	r3, [r4, #824]	; 0x338
 8004512:	83b3      	strh	r3, [r6, #28]
 8004514:	d1e7      	bne.n	80044e6 <USBH_HID_InterfaceInit+0x32>
 8004516:	772f      	strb	r7, [r5, #28]
 8004518:	2601      	movs	r6, #1
 800451a:	77ae      	strb	r6, [r5, #30]
 800451c:	e020      	b.n	8004560 <USBH_HID_InterfaceInit+0xac>
 800451e:	221a      	movs	r2, #26
 8004520:	7f6b      	ldrb	r3, [r5, #29]
 8004522:	fb02 0303 	mla	r3, r2, r3, r0
 8004526:	f893 1344 	ldrb.w	r1, [r3, #836]	; 0x344
 800452a:	f001 ff59 	bl	80063e0 <USBH_SelectInterface>
 800452e:	f8d4 3380 	ldr.w	r3, [r4, #896]	; 0x380
 8004532:	2109      	movs	r1, #9
 8004534:	4620      	mov	r0, r4
 8004536:	7f5a      	ldrb	r2, [r3, #29]
 8004538:	f7ff ff72 	bl	8004420 <USBH_HID_GetHIDDescriptor>
 800453c:	b108      	cbz	r0, 8004542 <USBH_HID_InterfaceInit+0x8e>
 800453e:	2601      	movs	r6, #1
 8004540:	e00e      	b.n	8004560 <USBH_HID_InterfaceInit+0xac>
 8004542:	f8d4 2380 	ldr.w	r2, [r4, #896]	; 0x380
 8004546:	f504 718e 	add.w	r1, r4, #284	; 0x11c
 800454a:	7f53      	ldrb	r3, [r2, #29]
 800454c:	3308      	adds	r3, #8
 800454e:	f852 0023 	ldr.w	r0, [r2, r3, lsl #2]
 8004552:	3026      	adds	r0, #38	; 0x26
 8004554:	f7ff ff9d 	bl	8004492 <USBH_HID_ParseHIDDesc>
 8004558:	f8d4 3380 	ldr.w	r3, [r4, #896]	; 0x380
 800455c:	2202      	movs	r2, #2
 800455e:	779a      	strb	r2, [r3, #30]
 8004560:	4630      	mov	r0, r6
 8004562:	b005      	add	sp, #20
 8004564:	e8bd 83f0 	ldmia.w	sp!, {r4, r5, r6, r7, r8, r9, pc}
 8004568:	7f6b      	ldrb	r3, [r5, #29]
 800456a:	f103 0208 	add.w	r2, r3, #8
 800456e:	f855 5022 	ldr.w	r5, [r5, r2, lsl #2]
 8004572:	221a      	movs	r2, #26
 8004574:	fb02 0303 	mla	r3, r2, r3, r0
 8004578:	f893 1344 	ldrb.w	r1, [r3, #836]	; 0x344
 800457c:	f001 ff30 	bl	80063e0 <USBH_SelectInterface>
 8004580:	f8d4 3380 	ldr.w	r3, [r4, #896]	; 0x380
 8004584:	8de9      	ldrh	r1, [r5, #46]	; 0x2e
 8004586:	4620      	mov	r0, r4
 8004588:	7f5a      	ldrb	r2, [r3, #29]
 800458a:	f7ff ff3b 	bl	8004404 <USBH_HID_GetHIDReportDescriptor>
 800458e:	2800      	cmp	r0, #0
 8004590:	d1d5      	bne.n	800453e <USBH_HID_InterfaceInit+0x8a>
 8004592:	f105 0230 	add.w	r2, r5, #48	; 0x30
 8004596:	8de9      	ldrh	r1, [r5, #46]	; 0x2e
 8004598:	f504 708e 	add.w	r0, r4, #284	; 0x11c
 800459c:	f000 fc9e 	bl	8004edc <parse_report_descriptor>
 80045a0:	f8d4 3380 	ldr.w	r3, [r4, #896]	; 0x380
 80045a4:	2203      	movs	r2, #3
 80045a6:	779a      	strb	r2, [r3, #30]
 80045a8:	e7c9      	b.n	800453e <USBH_HID_InterfaceInit+0x8a>
 80045aa:	7f68      	ldrb	r0, [r5, #29]
 80045ac:	221a      	movs	r2, #26
 80045ae:	fb02 4200 	mla	r2, r2, r0, r4
 80045b2:	f100 0308 	add.w	r3, r0, #8
 80045b6:	f892 1347 	ldrb.w	r1, [r2, #839]	; 0x347
 80045ba:	f855 3023 	ldr.w	r3, [r5, r3, lsl #2]
 80045be:	2903      	cmp	r1, #3
 80045c0:	d105      	bne.n	80045ce <USBH_HID_InterfaceInit+0x11a>
 80045c2:	f8b2 6348 	ldrh.w	r6, [r2, #840]	; 0x348
 80045c6:	f240 1201 	movw	r2, #257	; 0x101
 80045ca:	4296      	cmp	r6, r2
 80045cc:	d005      	beq.n	80045da <USBH_HID_InterfaceInit+0x126>
 80045ce:	f893 2030 	ldrb.w	r2, [r3, #48]	; 0x30
 80045d2:	f002 0203 	and.w	r2, r2, #3
 80045d6:	2a02      	cmp	r2, #2
 80045d8:	d104      	bne.n	80045e4 <USBH_HID_InterfaceInit+0x130>
 80045da:	4a62      	ldr	r2, [pc, #392]	; (8004764 <USBH_HID_InterfaceInit+0x2b0>)
 80045dc:	669a      	str	r2, [r3, #104]	; 0x68
 80045de:	7f2a      	ldrb	r2, [r5, #28]
 80045e0:	3201      	adds	r2, #1
 80045e2:	772a      	strb	r2, [r5, #28]
 80045e4:	2903      	cmp	r1, #3
 80045e6:	d108      	bne.n	80045fa <USBH_HID_InterfaceInit+0x146>
 80045e8:	221a      	movs	r2, #26
 80045ea:	fb02 4400 	mla	r4, r2, r0, r4
 80045ee:	f240 2201 	movw	r2, #513	; 0x201
 80045f2:	f8b4 1348 	ldrh.w	r1, [r4, #840]	; 0x348
 80045f6:	4291      	cmp	r1, r2
 80045f8:	d005      	beq.n	8004606 <USBH_HID_InterfaceInit+0x152>
 80045fa:	f893 2030 	ldrb.w	r2, [r3, #48]	; 0x30
 80045fe:	f002 0203 	and.w	r2, r2, #3
 8004602:	2a01      	cmp	r2, #1
 8004604:	d104      	bne.n	8004610 <USBH_HID_InterfaceInit+0x15c>
 8004606:	4a58      	ldr	r2, [pc, #352]	; (8004768 <USBH_HID_InterfaceInit+0x2b4>)
 8004608:	669a      	str	r2, [r3, #104]	; 0x68
 800460a:	7f2a      	ldrb	r2, [r5, #28]
 800460c:	3201      	adds	r2, #1
 800460e:	772a      	strb	r2, [r5, #28]
 8004610:	f893 2030 	ldrb.w	r2, [r3, #48]	; 0x30
 8004614:	f002 0203 	and.w	r2, r2, #3
 8004618:	2a03      	cmp	r2, #3
 800461a:	d104      	bne.n	8004626 <USBH_HID_InterfaceInit+0x172>
 800461c:	4a53      	ldr	r2, [pc, #332]	; (800476c <USBH_HID_InterfaceInit+0x2b8>)
 800461e:	669a      	str	r2, [r3, #104]	; 0x68
 8004620:	7f2b      	ldrb	r3, [r5, #28]
 8004622:	3301      	adds	r3, #1
 8004624:	772b      	strb	r3, [r5, #28]
 8004626:	2304      	movs	r3, #4
 8004628:	77ab      	strb	r3, [r5, #30]
 800462a:	e788      	b.n	800453e <USBH_HID_InterfaceInit+0x8a>
 800462c:	7f6b      	ldrb	r3, [r5, #29]
 800462e:	271a      	movs	r7, #26
 8004630:	2600      	movs	r6, #0
 8004632:	f04f 0903 	mov.w	r9, #3
 8004636:	3308      	adds	r3, #8
 8004638:	f855 5023 	ldr.w	r5, [r5, r3, lsl #2]
 800463c:	f890 3324 	ldrb.w	r3, [r0, #804]	; 0x324
 8004640:	fb07 0303 	mla	r3, r7, r3, r0
 8004644:	f893 8346 	ldrb.w	r8, [r3, #838]	; 0x346
 8004648:	f1b8 0f02 	cmp.w	r8, #2
 800464c:	bf28      	it	cs
 800464e:	f04f 0802 	movcs.w	r8, #2
 8004652:	b2f3      	uxtb	r3, r6
 8004654:	4598      	cmp	r8, r3
 8004656:	d803      	bhi.n	8004660 <USBH_HID_InterfaceInit+0x1ac>
 8004658:	f8d4 3380 	ldr.w	r3, [r4, #896]	; 0x380
 800465c:	2205      	movs	r2, #5
 800465e:	e7a2      	b.n	80045a6 <USBH_HID_InterfaceInit+0xf2>
 8004660:	f894 3324 	ldrb.w	r3, [r4, #804]	; 0x324
 8004664:	3601      	adds	r6, #1
 8004666:	437b      	muls	r3, r7
 8004668:	eb03 03c6 	add.w	r3, r3, r6, lsl #3
 800466c:	4423      	add	r3, r4
 800466e:	f893 1346 	ldrb.w	r1, [r3, #838]	; 0x346
 8004672:	f993 3346 	ldrsb.w	r3, [r3, #838]	; 0x346
 8004676:	2b00      	cmp	r3, #0
 8004678:	da17      	bge.n	80046aa <USBH_HID_InterfaceInit+0x1f6>
 800467a:	7129      	strb	r1, [r5, #4]
 800467c:	4620      	mov	r0, r4
 800467e:	f002 fb63 	bl	8006d48 <USBH_AllocPipe>
 8004682:	8b2b      	ldrh	r3, [r5, #24]
 8004684:	7068      	strb	r0, [r5, #1]
 8004686:	4601      	mov	r1, r0
 8004688:	792a      	ldrb	r2, [r5, #4]
 800468a:	4620      	mov	r0, r4
 800468c:	e9cd 9301 	strd	r9, r3, [sp, #4]
 8004690:	f894 331d 	ldrb.w	r3, [r4, #797]	; 0x31d
 8004694:	9300      	str	r3, [sp, #0]
 8004696:	f894 331c 	ldrb.w	r3, [r4, #796]	; 0x31c
 800469a:	f002 fb41 	bl	8006d20 <USBH_OpenPipe>
 800469e:	2200      	movs	r2, #0
 80046a0:	7869      	ldrb	r1, [r5, #1]
 80046a2:	4620      	mov	r0, r4
 80046a4:	f002 fd84 	bl	80071b0 <USBH_LL_SetToggle>
 80046a8:	e7d3      	b.n	8004652 <USBH_HID_InterfaceInit+0x19e>
 80046aa:	70e9      	strb	r1, [r5, #3]
 80046ac:	4620      	mov	r0, r4
 80046ae:	f002 fb4b 	bl	8006d48 <USBH_AllocPipe>
 80046b2:	8b2b      	ldrh	r3, [r5, #24]
 80046b4:	7028      	strb	r0, [r5, #0]
 80046b6:	4601      	mov	r1, r0
 80046b8:	78ea      	ldrb	r2, [r5, #3]
 80046ba:	4620      	mov	r0, r4
 80046bc:	e9cd 9301 	strd	r9, r3, [sp, #4]
 80046c0:	f894 331d 	ldrb.w	r3, [r4, #797]	; 0x31d
 80046c4:	9300      	str	r3, [sp, #0]
 80046c6:	f894 331c 	ldrb.w	r3, [r4, #796]	; 0x31c
 80046ca:	f002 fb29 	bl	8006d20 <USBH_OpenPipe>
 80046ce:	2200      	movs	r2, #0
 80046d0:	7829      	ldrb	r1, [r5, #0]
 80046d2:	e7e6      	b.n	80046a2 <USBH_HID_InterfaceInit+0x1ee>
 80046d4:	f890 2324 	ldrb.w	r2, [r0, #804]	; 0x324
 80046d8:	2101      	movs	r1, #1
 80046da:	f7ff fecd 	bl	8004478 <USBH_HID_SetProtocol>
 80046de:	b110      	cbz	r0, 80046e6 <USBH_HID_InterfaceInit+0x232>
 80046e0:	2803      	cmp	r0, #3
 80046e2:	f47f af2c 	bne.w	800453e <USBH_HID_InterfaceInit+0x8a>
 80046e6:	f8d4 3380 	ldr.w	r3, [r4, #896]	; 0x380
 80046ea:	2206      	movs	r2, #6
 80046ec:	e75b      	b.n	80045a6 <USBH_HID_InterfaceInit+0xf2>
 80046ee:	7f6a      	ldrb	r2, [r5, #29]
 80046f0:	f102 0308 	add.w	r3, r2, #8
 80046f4:	f855 1023 	ldr.w	r1, [r5, r3, lsl #2]
 80046f8:	231a      	movs	r3, #26
 80046fa:	fb03 0202 	mla	r2, r3, r2, r0
 80046fe:	f892 3347 	ldrb.w	r3, [r2, #839]	; 0x347
 8004702:	2b03      	cmp	r3, #3
 8004704:	f890 3324 	ldrb.w	r3, [r0, #804]	; 0x324
 8004708:	d105      	bne.n	8004716 <USBH_HID_InterfaceInit+0x262>
 800470a:	f8b2 0348 	ldrh.w	r0, [r2, #840]	; 0x348
 800470e:	f240 1201 	movw	r2, #257	; 0x101
 8004712:	4290      	cmp	r0, r2
 8004714:	d005      	beq.n	8004722 <USBH_HID_InterfaceInit+0x26e>
 8004716:	f891 2030 	ldrb.w	r2, [r1, #48]	; 0x30
 800471a:	f002 0203 	and.w	r2, r2, #3
 800471e:	2a02      	cmp	r2, #2
 8004720:	d109      	bne.n	8004736 <USBH_HID_InterfaceInit+0x282>
 8004722:	2200      	movs	r2, #0
 8004724:	217d      	movs	r1, #125	; 0x7d
 8004726:	4620      	mov	r0, r4
 8004728:	f7ff fe88 	bl	800443c <USBH_HID_SetIdle>
 800472c:	b930      	cbnz	r0, 800473c <USBH_HID_InterfaceInit+0x288>
 800472e:	f8d4 3380 	ldr.w	r3, [r4, #896]	; 0x380
 8004732:	2207      	movs	r2, #7
 8004734:	e737      	b.n	80045a6 <USBH_HID_InterfaceInit+0xf2>
 8004736:	2200      	movs	r2, #0
 8004738:	4611      	mov	r1, r2
 800473a:	e7f4      	b.n	8004726 <USBH_HID_InterfaceInit+0x272>
 800473c:	2803      	cmp	r0, #3
 800473e:	f47f aefe 	bne.w	800453e <USBH_HID_InterfaceInit+0x8a>
 8004742:	e7f4      	b.n	800472e <USBH_HID_InterfaceInit+0x27a>
 8004744:	7f6b      	ldrb	r3, [r5, #29]
 8004746:	3301      	adds	r3, #1
 8004748:	b2db      	uxtb	r3, r3
 800474a:	776b      	strb	r3, [r5, #29]
 800474c:	f890 233c 	ldrb.w	r2, [r0, #828]	; 0x33c
 8004750:	429a      	cmp	r2, r3
 8004752:	d902      	bls.n	800475a <USBH_HID_InterfaceInit+0x2a6>
 8004754:	2b02      	cmp	r3, #2
 8004756:	f67f aedf 	bls.w	8004518 <USBH_HID_InterfaceInit+0x64>
 800475a:	2600      	movs	r6, #0
 800475c:	f884 6324 	strb.w	r6, [r4, #804]	; 0x324
 8004760:	e6fe      	b.n	8004560 <USBH_HID_InterfaceInit+0xac>
 8004762:	bf00      	nop
 8004764:	08004aed 	.word	0x08004aed
 8004768:	08004cc9 	.word	0x08004cc9
 800476c:	080048d1 	.word	0x080048d1

08004770 <USBH_HID_FifoInit>:
 8004770:	2300      	movs	r3, #0
 8004772:	8102      	strh	r2, [r0, #8]
 8004774:	6001      	str	r1, [r0, #0]
 8004776:	6043      	str	r3, [r0, #4]
 8004778:	7283      	strb	r3, [r0, #10]
 800477a:	4770      	bx	lr

0800477c <USBH_HID_FifoRead>:
 800477c:	b5f0      	push	{r4, r5, r6, r7, lr}
 800477e:	7a83      	ldrb	r3, [r0, #10]
 8004780:	b123      	cbz	r3, 800478c <USBH_HID_FifoRead+0x10>
 8004782:	2300      	movs	r3, #0
 8004784:	4614      	mov	r4, r2
 8004786:	7283      	strb	r3, [r0, #10]
 8004788:	4620      	mov	r0, r4
 800478a:	bdf0      	pop	{r4, r5, r6, r7, pc}
 800478c:	2401      	movs	r4, #1
 800478e:	461e      	mov	r6, r3
 8004790:	7284      	strb	r4, [r0, #10]
 8004792:	b29c      	uxth	r4, r3
 8004794:	42a2      	cmp	r2, r4
 8004796:	d9f4      	bls.n	8004782 <USBH_HID_FifoRead+0x6>
 8004798:	88c5      	ldrh	r5, [r0, #6]
 800479a:	8887      	ldrh	r7, [r0, #4]
 800479c:	42af      	cmp	r7, r5
 800479e:	d00c      	beq.n	80047ba <USBH_HID_FifoRead+0x3e>
 80047a0:	6804      	ldr	r4, [r0, #0]
 80047a2:	5d64      	ldrb	r4, [r4, r5]
 80047a4:	54cc      	strb	r4, [r1, r3]
 80047a6:	88c4      	ldrh	r4, [r0, #6]
 80047a8:	8905      	ldrh	r5, [r0, #8]
 80047aa:	3401      	adds	r4, #1
 80047ac:	b2a4      	uxth	r4, r4
 80047ae:	42a5      	cmp	r5, r4
 80047b0:	80c4      	strh	r4, [r0, #6]
 80047b2:	d100      	bne.n	80047b6 <USBH_HID_FifoRead+0x3a>
 80047b4:	80c6      	strh	r6, [r0, #6]
 80047b6:	3301      	adds	r3, #1
 80047b8:	e7eb      	b.n	8004792 <USBH_HID_FifoRead+0x16>
 80047ba:	2300      	movs	r3, #0
 80047bc:	7283      	strb	r3, [r0, #10]
 80047be:	e7e3      	b.n	8004788 <USBH_HID_FifoRead+0xc>

080047c0 <USBH_HID_FifoWrite>:
 80047c0:	b5f0      	push	{r4, r5, r6, r7, lr}
 80047c2:	7a83      	ldrb	r3, [r0, #10]
 80047c4:	b123      	cbz	r3, 80047d0 <USBH_HID_FifoWrite+0x10>
 80047c6:	2300      	movs	r3, #0
 80047c8:	4614      	mov	r4, r2
 80047ca:	7283      	strb	r3, [r0, #10]
 80047cc:	4620      	mov	r0, r4
 80047ce:	bdf0      	pop	{r4, r5, r6, r7, pc}
 80047d0:	2401      	movs	r4, #1
 80047d2:	469c      	mov	ip, r3
 80047d4:	7284      	strb	r4, [r0, #10]
 80047d6:	b29c      	uxth	r4, r3
 80047d8:	42a2      	cmp	r2, r4
 80047da:	d9f4      	bls.n	80047c6 <USBH_HID_FifoWrite+0x6>
 80047dc:	8885      	ldrh	r5, [r0, #4]
 80047de:	88c6      	ldrh	r6, [r0, #6]
 80047e0:	1c6f      	adds	r7, r5, #1
 80047e2:	42b7      	cmp	r7, r6
 80047e4:	d004      	beq.n	80047f0 <USBH_HID_FifoWrite+0x30>
 80047e6:	f8b0 e008 	ldrh.w	lr, [r0, #8]
 80047ea:	4577      	cmp	r7, lr
 80047ec:	d103      	bne.n	80047f6 <USBH_HID_FifoWrite+0x36>
 80047ee:	b916      	cbnz	r6, 80047f6 <USBH_HID_FifoWrite+0x36>
 80047f0:	2300      	movs	r3, #0
 80047f2:	7283      	strb	r3, [r0, #10]
 80047f4:	e7ea      	b.n	80047cc <USBH_HID_FifoWrite+0xc>
 80047f6:	5cce      	ldrb	r6, [r1, r3]
 80047f8:	3301      	adds	r3, #1
 80047fa:	6804      	ldr	r4, [r0, #0]
 80047fc:	5566      	strb	r6, [r4, r5]
 80047fe:	8884      	ldrh	r4, [r0, #4]
 8004800:	8905      	ldrh	r5, [r0, #8]
 8004802:	3401      	adds	r4, #1
 8004804:	b2a4      	uxth	r4, r4
 8004806:	42a5      	cmp	r5, r4
 8004808:	8084      	strh	r4, [r0, #4]
 800480a:	bf08      	it	eq
 800480c:	f8a0 c004 	strheq.w	ip, [r0, #4]
 8004810:	e7e1      	b.n	80047d6 <USBH_HID_FifoWrite+0x16>

08004812 <USBH_HID_EventCallback>:
 8004812:	4770      	bx	lr

08004814 <USBH_HID_Process>:
 8004814:	b570      	push	{r4, r5, r6, lr}
 8004816:	f890 3324 	ldrb.w	r3, [r0, #804]	; 0x324
 800481a:	4605      	mov	r5, r0
 800481c:	f8d0 2380 	ldr.w	r2, [r0, #896]	; 0x380
 8004820:	3308      	adds	r3, #8
 8004822:	f852 4023 	ldr.w	r4, [r2, r3, lsl #2]
 8004826:	78a3      	ldrb	r3, [r4, #2]
 8004828:	2b06      	cmp	r3, #6
 800482a:	d80e      	bhi.n	800484a <USBH_HID_Process+0x36>
 800482c:	e8df f003 	tbb	[pc, r3]
 8004830:	0d0d0d04 	.word	0x0d0d0d04
 8004834:	0f16      	.short	0x0f16
 8004836:	24          	.byte	0x24
 8004837:	00          	.byte	0x00
 8004838:	6ea3      	ldr	r3, [r4, #104]	; 0x68
 800483a:	4798      	blx	r3
 800483c:	2305      	movs	r3, #5
 800483e:	2102      	movs	r1, #2
 8004840:	4628      	mov	r0, r5
 8004842:	70a3      	strb	r3, [r4, #2]
 8004844:	f8d5 33d8 	ldr.w	r3, [r5, #984]	; 0x3d8
 8004848:	4798      	blx	r3
 800484a:	2000      	movs	r0, #0
 800484c:	bd70      	pop	{r4, r5, r6, pc}
 800484e:	f8d0 33c8 	ldr.w	r3, [r0, #968]	; 0x3c8
 8004852:	07db      	lsls	r3, r3, #31
 8004854:	d5f9      	bpl.n	800484a <USBH_HID_Process+0x36>
 8004856:	2304      	movs	r3, #4
 8004858:	70a3      	strb	r3, [r4, #2]
 800485a:	e7f6      	b.n	800484a <USBH_HID_Process+0x36>
 800485c:	7863      	ldrb	r3, [r4, #1]
 800485e:	7e22      	ldrb	r2, [r4, #24]
 8004860:	6961      	ldr	r1, [r4, #20]
 8004862:	f002 fa4d 	bl	8006d00 <USBH_InterruptReceiveData>
 8004866:	2306      	movs	r3, #6
 8004868:	70a3      	strb	r3, [r4, #2]
 800486a:	f8d5 33c8 	ldr.w	r3, [r5, #968]	; 0x3c8
 800486e:	6223      	str	r3, [r4, #32]
 8004870:	2300      	movs	r3, #0
 8004872:	f884 3024 	strb.w	r3, [r4, #36]	; 0x24
 8004876:	e7e8      	b.n	800484a <USBH_HID_Process+0x36>
 8004878:	7861      	ldrb	r1, [r4, #1]
 800487a:	f002 fc8f 	bl	800719c <USBH_LL_GetURBState>
 800487e:	4606      	mov	r6, r0
 8004880:	7861      	ldrb	r1, [r4, #1]
 8004882:	4628      	mov	r0, r5
 8004884:	2e01      	cmp	r6, #1
 8004886:	d113      	bne.n	80048b0 <USBH_HID_Process+0x9c>
 8004888:	f002 fc44 	bl	8007114 <USBH_LL_GetLastXferSize>
 800488c:	f894 3024 	ldrb.w	r3, [r4, #36]	; 0x24
 8004890:	2b00      	cmp	r3, #0
 8004892:	d1da      	bne.n	800484a <USBH_HID_Process+0x36>
 8004894:	2800      	cmp	r0, #0
 8004896:	d0d8      	beq.n	800484a <USBH_HID_Process+0x36>
 8004898:	8b22      	ldrh	r2, [r4, #24]
 800489a:	f104 0008 	add.w	r0, r4, #8
 800489e:	6961      	ldr	r1, [r4, #20]
 80048a0:	f7ff ff8e 	bl	80047c0 <USBH_HID_FifoWrite>
 80048a4:	4628      	mov	r0, r5
 80048a6:	f884 6024 	strb.w	r6, [r4, #36]	; 0x24
 80048aa:	f7ff ffb2 	bl	8004812 <USBH_HID_EventCallback>
 80048ae:	e7cc      	b.n	800484a <USBH_HID_Process+0x36>
 80048b0:	f002 fc74 	bl	800719c <USBH_LL_GetURBState>
 80048b4:	2805      	cmp	r0, #5
 80048b6:	d1c8      	bne.n	800484a <USBH_HID_Process+0x36>
 80048b8:	7ea1      	ldrb	r1, [r4, #26]
 80048ba:	4628      	mov	r0, r5
 80048bc:	f002 f9dc 	bl	8006c78 <USBH_ClrFeature>
 80048c0:	2800      	cmp	r0, #0
 80048c2:	d1c2      	bne.n	800484a <USBH_HID_Process+0x36>
 80048c4:	2304      	movs	r3, #4
 80048c6:	4628      	mov	r0, r5
 80048c8:	70a3      	strb	r3, [r4, #2]
 80048ca:	f7ff fd74 	bl	80043b6 <USBH_HID_NextInterface>
 80048ce:	e7bc      	b.n	800484a <USBH_HID_Process+0x36>

080048d0 <USBH_HID_GamepadInit>:
 80048d0:	b538      	push	{r3, r4, r5, lr}
 80048d2:	f890 3324 	ldrb.w	r3, [r0, #804]	; 0x324
 80048d6:	f8d0 2380 	ldr.w	r2, [r0, #896]	; 0x380
 80048da:	3308      	adds	r3, #8
 80048dc:	f852 4023 	ldr.w	r4, [r2, r3, lsl #2]
 80048e0:	f894 5032 	ldrb.w	r5, [r4, #50]	; 0x32
 80048e4:	8325      	strh	r5, [r4, #24]
 80048e6:	4628      	mov	r0, r5
 80048e8:	f002 fc9e 	bl	8007228 <malloc>
 80048ec:	4b06      	ldr	r3, [pc, #24]	; (8004908 <USBH_HID_GamepadInit+0x38>)
 80048ee:	eb05 0585 	add.w	r5, r5, r5, lsl #2
 80048f2:	6160      	str	r0, [r4, #20]
 80048f4:	6018      	str	r0, [r3, #0]
 80048f6:	f104 0008 	add.w	r0, r4, #8
 80048fa:	006a      	lsls	r2, r5, #1
 80048fc:	4903      	ldr	r1, [pc, #12]	; (800490c <USBH_HID_GamepadInit+0x3c>)
 80048fe:	f7ff ff37 	bl	8004770 <USBH_HID_FifoInit>
 8004902:	2000      	movs	r0, #0
 8004904:	bd38      	pop	{r3, r4, r5, pc}
 8004906:	bf00      	nop
 8004908:	20000114 	.word	0x20000114
 800490c:	20000296 	.word	0x20000296

08004910 <USBH_HID_GetGamepadInfo>:
 8004910:	e92d 4ff0 	stmdb	sp!, {r4, r5, r6, r7, r8, r9, sl, fp, lr}
 8004914:	f890 3324 	ldrb.w	r3, [r0, #804]	; 0x324
 8004918:	b091      	sub	sp, #68	; 0x44
 800491a:	f8d0 2380 	ldr.w	r2, [r0, #896]	; 0x380
 800491e:	3308      	adds	r3, #8
 8004920:	f852 6023 	ldr.w	r6, [r2, r3, lsl #2]
 8004924:	8b32      	ldrh	r2, [r6, #24]
 8004926:	b91a      	cbnz	r2, 8004930 <USBH_HID_GetGamepadInfo+0x20>
 8004928:	2000      	movs	r0, #0
 800492a:	b011      	add	sp, #68	; 0x44
 800492c:	e8bd 8ff0 	ldmia.w	sp!, {r4, r5, r6, r7, r8, r9, sl, fp, pc}
 8004930:	4f6c      	ldr	r7, [pc, #432]	; (8004ae4 <USBH_HID_GetGamepadInfo+0x1d4>)
 8004932:	f106 0008 	add.w	r0, r6, #8
 8004936:	6839      	ldr	r1, [r7, #0]
 8004938:	f7ff ff20 	bl	800477c <USBH_HID_FifoRead>
 800493c:	8b33      	ldrh	r3, [r6, #24]
 800493e:	4283      	cmp	r3, r0
 8004940:	d1f2      	bne.n	8004928 <USBH_HID_GetGamepadInfo+0x18>
 8004942:	f106 0530 	add.w	r5, r6, #48	; 0x30
 8004946:	ac02      	add	r4, sp, #8
 8004948:	cd0f      	ldmia	r5!, {r0, r1, r2, r3}
 800494a:	c40f      	stmia	r4!, {r0, r1, r2, r3}
 800494c:	cd0f      	ldmia	r5!, {r0, r1, r2, r3}
 800494e:	c40f      	stmia	r4!, {r0, r1, r2, r3}
 8004950:	cd0f      	ldmia	r5!, {r0, r1, r2, r3}
 8004952:	c40f      	stmia	r4!, {r0, r1, r2, r3}
 8004954:	f896 3031 	ldrb.w	r3, [r6, #49]	; 0x31
 8004958:	683e      	ldr	r6, [r7, #0]
 800495a:	f8bd 2016 	ldrh.w	r2, [sp, #22]
 800495e:	2b00      	cmp	r3, #0
 8004960:	bf18      	it	ne
 8004962:	3601      	addne	r6, #1
 8004964:	f8bd 3014 	ldrh.w	r3, [sp, #20]
 8004968:	e895 0003 	ldmia.w	r5, {r0, r1}
 800496c:	429a      	cmp	r2, r3
 800496e:	f844 0b04 	str.w	r0, [r4], #4
 8004972:	4630      	mov	r0, r6
 8004974:	bf2c      	ite	cs
 8004976:	2300      	movcs	r3, #0
 8004978:	2301      	movcc	r3, #1
 800497a:	8021      	strh	r1, [r4, #0]
 800497c:	2401      	movs	r4, #1
 800497e:	f89d 2012 	ldrb.w	r2, [sp, #18]
 8004982:	f8bd 1010 	ldrh.w	r1, [sp, #16]
 8004986:	f000 f953 	bl	8004c30 <collect_bits>
 800498a:	f8bd 301e 	ldrh.w	r3, [sp, #30]
 800498e:	f8bd 201c 	ldrh.w	r2, [sp, #28]
 8004992:	f8bd 1018 	ldrh.w	r1, [sp, #24]
 8004996:	429a      	cmp	r2, r3
 8004998:	f8ad 0004 	strh.w	r0, [sp, #4]
 800499c:	f89d 201a 	ldrb.w	r2, [sp, #26]
 80049a0:	4630      	mov	r0, r6
 80049a2:	bf94      	ite	ls
 80049a4:	2300      	movls	r3, #0
 80049a6:	2301      	movhi	r3, #1
 80049a8:	f000 f942 	bl	8004c30 <collect_bits>
 80049ac:	2200      	movs	r2, #0
 80049ae:	f8ad 0006 	strh.w	r0, [sp, #6]
 80049b2:	a802      	add	r0, sp, #8
 80049b4:	4615      	mov	r5, r2
 80049b6:	4601      	mov	r1, r0
 80049b8:	7e0b      	ldrb	r3, [r1, #24]
 80049ba:	3102      	adds	r1, #2
 80049bc:	5cf7      	ldrb	r7, [r6, r3]
 80049be:	7dcb      	ldrb	r3, [r1, #23]
 80049c0:	421f      	tst	r7, r3
 80049c2:	bf18      	it	ne
 80049c4:	fa04 f302 	lslne.w	r3, r4, r2
 80049c8:	f102 0201 	add.w	r2, r2, #1
 80049cc:	bf1c      	itt	ne
 80049ce:	432b      	orrne	r3, r5
 80049d0:	b2dd      	uxtbne	r5, r3
 80049d2:	2a04      	cmp	r2, #4
 80049d4:	d1f0      	bne.n	80049b8 <USBH_HID_GetGamepadInfo+0xa8>
 80049d6:	2300      	movs	r3, #0
 80049d8:	4602      	mov	r2, r0
 80049da:	2701      	movs	r7, #1
 80049dc:	461c      	mov	r4, r3
 80049de:	f892 1020 	ldrb.w	r1, [r2, #32]
 80049e2:	3202      	adds	r2, #2
 80049e4:	f816 c001 	ldrb.w	ip, [r6, r1]
 80049e8:	7fd1      	ldrb	r1, [r2, #31]
 80049ea:	ea1c 0f01 	tst.w	ip, r1
 80049ee:	bf18      	it	ne
 80049f0:	fa07 f103 	lslne.w	r1, r7, r3
 80049f4:	f103 0301 	add.w	r3, r3, #1
 80049f8:	bf1c      	itt	ne
 80049fa:	430c      	orrne	r4, r1
 80049fc:	b2e4      	uxtbne	r4, r4
 80049fe:	2b08      	cmp	r3, #8
 8004a00:	d1ed      	bne.n	80049de <USBH_HID_GetGamepadInfo+0xce>
 8004a02:	2600      	movs	r6, #0
 8004a04:	ab01      	add	r3, sp, #4
 8004a06:	277e      	movs	r7, #126	; 0x7e
 8004a08:	f04f 0e7f 	mov.w	lr, #127	; 0x7f
 8004a0c:	46b4      	mov	ip, r6
 8004a0e:	f64f 7881 	movw	r8, #65409	; 0xff81
 8004a12:	f8b0 b00c 	ldrh.w	fp, [r0, #12]
 8004a16:	f8b0 900e 	ldrh.w	r9, [r0, #14]
 8004a1a:	f933 ab02 	ldrsh.w	sl, [r3], #2
 8004a1e:	eba9 010b 	sub.w	r1, r9, fp
 8004a22:	45d3      	cmp	fp, sl
 8004a24:	eb01 72d1 	add.w	r2, r1, r1, lsr #31
 8004a28:	fb91 f1f7 	sdiv	r1, r1, r7
 8004a2c:	ea4f 0262 	mov.w	r2, r2, asr #1
 8004a30:	dd3c      	ble.n	8004aac <USBH_HID_GetGamepadInfo+0x19c>
 8004a32:	f823 bc02 	strh.w	fp, [r3, #-2]
 8004a36:	eb09 0a0b 	add.w	sl, r9, fp
 8004a3a:	f833 9c02 	ldrh.w	r9, [r3, #-2]
 8004a3e:	eba9 095a 	sub.w	r9, r9, sl, lsr #1
 8004a42:	eba2 0a01 	sub.w	sl, r2, r1
 8004a46:	424a      	negs	r2, r1
 8004a48:	fa1f fb89 	uxth.w	fp, r9
 8004a4c:	fa0f f989 	sxth.w	r9, r9
 8004a50:	4591      	cmp	r9, r2
 8004a52:	da30      	bge.n	8004ab6 <USBH_HID_GetGamepadInfo+0x1a6>
 8004a54:	4459      	add	r1, fp
 8004a56:	f823 1c02 	strh.w	r1, [r3, #-2]
 8004a5a:	f933 2c02 	ldrsh.w	r2, [r3, #-2]
 8004a5e:	ebc2 12c2 	rsb	r2, r2, r2, lsl #7
 8004a62:	fb92 f2fa 	sdiv	r2, r2, sl
 8004a66:	b212      	sxth	r2, r2
 8004a68:	f112 0f7f 	cmn.w	r2, #127	; 0x7f
 8004a6c:	da2b      	bge.n	8004ac6 <USBH_HID_GetGamepadInfo+0x1b6>
 8004a6e:	f823 8c02 	strh.w	r8, [r3, #-2]
 8004a72:	f833 2c02 	ldrh.w	r2, [r3, #-2]
 8004a76:	3008      	adds	r0, #8
 8004a78:	327f      	adds	r2, #127	; 0x7f
 8004a7a:	f823 2c02 	strh.w	r2, [r3, #-2]
 8004a7e:	b19e      	cbz	r6, 8004aa8 <USBH_HID_GetGamepadInfo+0x198>
 8004a80:	f9bd 3004 	ldrsh.w	r3, [sp, #4]
 8004a84:	2b3f      	cmp	r3, #63	; 0x3f
 8004a86:	dd25      	ble.n	8004ad4 <USBH_HID_GetGamepadInfo+0x1c4>
 8004a88:	2bc0      	cmp	r3, #192	; 0xc0
 8004a8a:	bfd4      	ite	le
 8004a8c:	2300      	movle	r3, #0
 8004a8e:	2301      	movgt	r3, #1
 8004a90:	f9bd 2006 	ldrsh.w	r2, [sp, #6]
 8004a94:	2a3f      	cmp	r2, #63	; 0x3f
 8004a96:	dc1f      	bgt.n	8004ad8 <USBH_HID_GetGamepadInfo+0x1c8>
 8004a98:	f043 0308 	orr.w	r3, r3, #8
 8004a9c:	4812      	ldr	r0, [pc, #72]	; (8004ae8 <USBH_HID_GetGamepadInfo+0x1d8>)
 8004a9e:	ea43 1305 	orr.w	r3, r3, r5, lsl #4
 8004aa2:	7044      	strb	r4, [r0, #1]
 8004aa4:	7003      	strb	r3, [r0, #0]
 8004aa6:	e740      	b.n	800492a <USBH_HID_GetGamepadInfo+0x1a>
 8004aa8:	2601      	movs	r6, #1
 8004aaa:	e7b2      	b.n	8004a12 <USBH_HID_GetGamepadInfo+0x102>
 8004aac:	45d1      	cmp	r9, sl
 8004aae:	bfb8      	it	lt
 8004ab0:	f823 9c02 	strhlt.w	r9, [r3, #-2]
 8004ab4:	e7bf      	b.n	8004a36 <USBH_HID_GetGamepadInfo+0x126>
 8004ab6:	4549      	cmp	r1, r9
 8004ab8:	da02      	bge.n	8004ac0 <USBH_HID_GetGamepadInfo+0x1b0>
 8004aba:	ebab 0101 	sub.w	r1, fp, r1
 8004abe:	e7ca      	b.n	8004a56 <USBH_HID_GetGamepadInfo+0x146>
 8004ac0:	f823 cc02 	strh.w	ip, [r3, #-2]
 8004ac4:	e7c9      	b.n	8004a5a <USBH_HID_GetGamepadInfo+0x14a>
 8004ac6:	2a7f      	cmp	r2, #127	; 0x7f
 8004ac8:	bfd4      	ite	le
 8004aca:	f823 2c02 	strhle.w	r2, [r3, #-2]
 8004ace:	f823 ec02 	strhgt.w	lr, [r3, #-2]
 8004ad2:	e7ce      	b.n	8004a72 <USBH_HID_GetGamepadInfo+0x162>
 8004ad4:	2302      	movs	r3, #2
 8004ad6:	e7db      	b.n	8004a90 <USBH_HID_GetGamepadInfo+0x180>
 8004ad8:	2ac0      	cmp	r2, #192	; 0xc0
 8004ada:	bfc8      	it	gt
 8004adc:	f043 0304 	orrgt.w	r3, r3, #4
 8004ae0:	e7dc      	b.n	8004a9c <USBH_HID_GetGamepadInfo+0x18c>
 8004ae2:	bf00      	nop
 8004ae4:	20000114 	.word	0x20000114
 8004ae8:	20000294 	.word	0x20000294

08004aec <USBH_HID_KeybdInit>:
 8004aec:	b508      	push	{r3, lr}
 8004aee:	f890 3324 	ldrb.w	r3, [r0, #804]	; 0x324
 8004af2:	f8d0 2380 	ldr.w	r2, [r0, #896]	; 0x380
 8004af6:	3308      	adds	r3, #8
 8004af8:	490f      	ldr	r1, [pc, #60]	; (8004b38 <USBH_HID_KeybdInit+0x4c>)
 8004afa:	f852 0023 	ldr.w	r0, [r2, r3, lsl #2]
 8004afe:	2300      	movs	r3, #0
 8004b00:	4a0e      	ldr	r2, [pc, #56]	; (8004b3c <USBH_HID_KeybdInit+0x50>)
 8004b02:	600b      	str	r3, [r1, #0]
 8004b04:	3008      	adds	r0, #8
 8004b06:	7093      	strb	r3, [r2, #2]
 8004b08:	7053      	strb	r3, [r2, #1]
 8004b0a:	7113      	strb	r3, [r2, #4]
 8004b0c:	70d3      	strb	r3, [r2, #3]
 8004b0e:	7193      	strb	r3, [r2, #6]
 8004b10:	7153      	strb	r3, [r2, #5]
 8004b12:	71d3      	strb	r3, [r2, #7]
 8004b14:	7213      	strb	r3, [r2, #8]
 8004b16:	4a0a      	ldr	r2, [pc, #40]	; (8004b40 <USBH_HID_KeybdInit+0x54>)
 8004b18:	604b      	str	r3, [r1, #4]
 8004b1a:	6013      	str	r3, [r2, #0]
 8004b1c:	6053      	str	r3, [r2, #4]
 8004b1e:	8a03      	ldrh	r3, [r0, #16]
 8004b20:	60c2      	str	r2, [r0, #12]
 8004b22:	f44f 7280 	mov.w	r2, #256	; 0x100
 8004b26:	2b08      	cmp	r3, #8
 8004b28:	4906      	ldr	r1, [pc, #24]	; (8004b44 <USBH_HID_KeybdInit+0x58>)
 8004b2a:	bf84      	itt	hi
 8004b2c:	2308      	movhi	r3, #8
 8004b2e:	8203      	strhhi	r3, [r0, #16]
 8004b30:	f7ff fe1e 	bl	8004770 <USBH_HID_FifoInit>
 8004b34:	2000      	movs	r0, #0
 8004b36:	bd08      	pop	{r3, pc}
 8004b38:	20000318 	.word	0x20000318
 8004b3c:	20000328 	.word	0x20000328
 8004b40:	20000320 	.word	0x20000320
 8004b44:	20000337 	.word	0x20000337

08004b48 <USBH_HID_GetKeybdInfo>:
 8004b48:	b570      	push	{r4, r5, r6, lr}
 8004b4a:	f890 3324 	ldrb.w	r3, [r0, #804]	; 0x324
 8004b4e:	f8d0 2380 	ldr.w	r2, [r0, #896]	; 0x380
 8004b52:	3308      	adds	r3, #8
 8004b54:	f852 5023 	ldr.w	r5, [r2, r3, lsl #2]
 8004b58:	8b2a      	ldrh	r2, [r5, #24]
 8004b5a:	2a00      	cmp	r2, #0
 8004b5c:	d04e      	beq.n	8004bfc <USBH_HID_GetKeybdInfo+0xb4>
 8004b5e:	4c28      	ldr	r4, [pc, #160]	; (8004c00 <USBH_HID_GetKeybdInfo+0xb8>)
 8004b60:	f105 0008 	add.w	r0, r5, #8
 8004b64:	4621      	mov	r1, r4
 8004b66:	f7ff fe09 	bl	800477c <USBH_HID_FifoRead>
 8004b6a:	8b2b      	ldrh	r3, [r5, #24]
 8004b6c:	4283      	cmp	r3, r0
 8004b6e:	d145      	bne.n	8004bfc <USBH_HID_GetKeybdInfo+0xb4>
 8004b70:	6822      	ldr	r2, [r4, #0]
 8004b72:	4b24      	ldr	r3, [pc, #144]	; (8004c04 <USBH_HID_GetKeybdInfo+0xbc>)
 8004b74:	429a      	cmp	r2, r3
 8004b76:	d103      	bne.n	8004b80 <USBH_HID_GetKeybdInfo+0x38>
 8004b78:	6863      	ldr	r3, [r4, #4]
 8004b7a:	f1b3 3f01 	cmp.w	r3, #16843009	; 0x1010101
 8004b7e:	d03d      	beq.n	8004bfc <USBH_HID_GetKeybdInfo+0xb4>
 8004b80:	4c21      	ldr	r4, [pc, #132]	; (8004c08 <USBH_HID_GetKeybdInfo+0xc0>)
 8004b82:	2100      	movs	r1, #0
 8004b84:	4821      	ldr	r0, [pc, #132]	; (8004c0c <USBH_HID_GetKeybdInfo+0xc4>)
 8004b86:	2500      	movs	r5, #0
 8004b88:	f000 f956 	bl	8004e38 <HID_ReadItem>
 8004b8c:	2100      	movs	r1, #0
 8004b8e:	7060      	strb	r0, [r4, #1]
 8004b90:	3409      	adds	r4, #9
 8004b92:	481f      	ldr	r0, [pc, #124]	; (8004c10 <USBH_HID_GetKeybdInfo+0xc8>)
 8004b94:	f000 f950 	bl	8004e38 <HID_ReadItem>
 8004b98:	2100      	movs	r1, #0
 8004b9a:	f804 0c07 	strb.w	r0, [r4, #-7]
 8004b9e:	481d      	ldr	r0, [pc, #116]	; (8004c14 <USBH_HID_GetKeybdInfo+0xcc>)
 8004ba0:	f000 f94a 	bl	8004e38 <HID_ReadItem>
 8004ba4:	2100      	movs	r1, #0
 8004ba6:	f804 0c06 	strb.w	r0, [r4, #-6]
 8004baa:	481b      	ldr	r0, [pc, #108]	; (8004c18 <USBH_HID_GetKeybdInfo+0xd0>)
 8004bac:	f000 f944 	bl	8004e38 <HID_ReadItem>
 8004bb0:	2100      	movs	r1, #0
 8004bb2:	f804 0c05 	strb.w	r0, [r4, #-5]
 8004bb6:	4819      	ldr	r0, [pc, #100]	; (8004c1c <USBH_HID_GetKeybdInfo+0xd4>)
 8004bb8:	f000 f93e 	bl	8004e38 <HID_ReadItem>
 8004bbc:	2100      	movs	r1, #0
 8004bbe:	f804 0c04 	strb.w	r0, [r4, #-4]
 8004bc2:	4817      	ldr	r0, [pc, #92]	; (8004c20 <USBH_HID_GetKeybdInfo+0xd8>)
 8004bc4:	f000 f938 	bl	8004e38 <HID_ReadItem>
 8004bc8:	2100      	movs	r1, #0
 8004bca:	f804 0c03 	strb.w	r0, [r4, #-3]
 8004bce:	4815      	ldr	r0, [pc, #84]	; (8004c24 <USBH_HID_GetKeybdInfo+0xdc>)
 8004bd0:	f000 f932 	bl	8004e38 <HID_ReadItem>
 8004bd4:	2100      	movs	r1, #0
 8004bd6:	f804 0c02 	strb.w	r0, [r4, #-2]
 8004bda:	4813      	ldr	r0, [pc, #76]	; (8004c28 <USBH_HID_GetKeybdInfo+0xe0>)
 8004bdc:	f000 f92c 	bl	8004e38 <HID_ReadItem>
 8004be0:	4e12      	ldr	r6, [pc, #72]	; (8004c2c <USBH_HID_GetKeybdInfo+0xe4>)
 8004be2:	f804 0c01 	strb.w	r0, [r4, #-1]
 8004be6:	b2e9      	uxtb	r1, r5
 8004be8:	3501      	adds	r5, #1
 8004bea:	4630      	mov	r0, r6
 8004bec:	f000 f924 	bl	8004e38 <HID_ReadItem>
 8004bf0:	2d06      	cmp	r5, #6
 8004bf2:	f804 0b01 	strb.w	r0, [r4], #1
 8004bf6:	d1f6      	bne.n	8004be6 <USBH_HID_GetKeybdInfo+0x9e>
 8004bf8:	4803      	ldr	r0, [pc, #12]	; (8004c08 <USBH_HID_GetKeybdInfo+0xc0>)
 8004bfa:	bd70      	pop	{r4, r5, r6, pc}
 8004bfc:	2000      	movs	r0, #0
 8004bfe:	e7fc      	b.n	8004bfa <USBH_HID_GetKeybdInfo+0xb2>
 8004c00:	20000318 	.word	0x20000318
 8004c04:	01010000 	.word	0x01010000
 8004c08:	20000328 	.word	0x20000328
 8004c0c:	08007588 	.word	0x08007588
 8004c10:	080075c8 	.word	0x080075c8
 8004c14:	08007568 	.word	0x08007568
 8004c18:	080075a8 	.word	0x080075a8
 8004c1c:	08007608 	.word	0x08007608
 8004c20:	08007648 	.word	0x08007648
 8004c24:	080075e8 	.word	0x080075e8
 8004c28:	08007628 	.word	0x08007628
 8004c2c:	08007548 	.word	0x08007548

08004c30 <collect_bits>:
 8004c30:	b5f0      	push	{r4, r5, r6, r7, lr}
 8004c32:	f001 0407 	and.w	r4, r1, #7
 8004c36:	f3c1 0cc7 	ubfx	ip, r1, #3, #8
 8004c3a:	27ff      	movs	r7, #255	; 0xff
 8004c3c:	4605      	mov	r5, r0
 8004c3e:	f1c4 0608 	rsb	r6, r4, #8
 8004c42:	f810 000c 	ldrb.w	r0, [r0, ip]
 8004c46:	fa07 f104 	lsl.w	r1, r7, r4
 8004c4a:	b2f6      	uxtb	r6, r6
 8004c4c:	4008      	ands	r0, r1
 8004c4e:	42b2      	cmp	r2, r6
 8004c50:	fa40 f104 	asr.w	r1, r0, r4
 8004c54:	d324      	bcc.n	8004ca0 <collect_bits+0x70>
 8004c56:	b288      	uxth	r0, r1
 8004c58:	f1a2 0108 	sub.w	r1, r2, #8
 8004c5c:	f10c 0c01 	add.w	ip, ip, #1
 8004c60:	4421      	add	r1, r4
 8004c62:	fa5f fc8c 	uxtb.w	ip, ip
 8004c66:	b2c9      	uxtb	r1, r1
 8004c68:	b1f9      	cbz	r1, 8004caa <collect_bits+0x7a>
 8004c6a:	2907      	cmp	r1, #7
 8004c6c:	f10c 0e01 	add.w	lr, ip, #1
 8004c70:	f815 c00c 	ldrb.w	ip, [r5, ip]
 8004c74:	bf97      	itett	ls
 8004c76:	f1c1 0408 	rsbls	r4, r1, #8
 8004c7a:	24ff      	movhi	r4, #255	; 0xff
 8004c7c:	fa47 f404 	asrls.w	r4, r7, r4
 8004c80:	b2e4      	uxtbls	r4, r4
 8004c82:	2908      	cmp	r1, #8
 8004c84:	ea04 040c 	and.w	r4, r4, ip
 8004c88:	bf94      	ite	ls
 8004c8a:	1a49      	subls	r1, r1, r1
 8004c8c:	3908      	subhi	r1, #8
 8004c8e:	fa5f fc8e 	uxtb.w	ip, lr
 8004c92:	40b4      	lsls	r4, r6
 8004c94:	3608      	adds	r6, #8
 8004c96:	b2c9      	uxtb	r1, r1
 8004c98:	4404      	add	r4, r0
 8004c9a:	b2f6      	uxtb	r6, r6
 8004c9c:	b2a0      	uxth	r0, r4
 8004c9e:	e7e3      	b.n	8004c68 <collect_bits+0x38>
 8004ca0:	2001      	movs	r0, #1
 8004ca2:	4090      	lsls	r0, r2
 8004ca4:	3801      	subs	r0, #1
 8004ca6:	4008      	ands	r0, r1
 8004ca8:	b280      	uxth	r0, r0
 8004caa:	b15b      	cbz	r3, 8004cc4 <collect_bits+0x94>
 8004cac:	2301      	movs	r3, #1
 8004cae:	3a01      	subs	r2, #1
 8004cb0:	fa03 f202 	lsl.w	r2, r3, r2
 8004cb4:	4202      	tst	r2, r0
 8004cb6:	b293      	uxth	r3, r2
 8004cb8:	d004      	beq.n	8004cc4 <collect_bits+0x94>
 8004cba:	4318      	orrs	r0, r3
 8004cbc:	005b      	lsls	r3, r3, #1
 8004cbe:	b29b      	uxth	r3, r3
 8004cc0:	2b00      	cmp	r3, #0
 8004cc2:	d1fa      	bne.n	8004cba <collect_bits+0x8a>
 8004cc4:	bdf0      	pop	{r4, r5, r6, r7, pc}
	...

08004cc8 <USBH_HID_MouseInit>:
 8004cc8:	b510      	push	{r4, lr}
 8004cca:	f890 3324 	ldrb.w	r3, [r0, #804]	; 0x324
 8004cce:	2400      	movs	r4, #0
 8004cd0:	f8d0 2380 	ldr.w	r2, [r0, #896]	; 0x380
 8004cd4:	3308      	adds	r3, #8
 8004cd6:	f852 0023 	ldr.w	r0, [r2, r3, lsl #2]
 8004cda:	4a0e      	ldr	r2, [pc, #56]	; (8004d14 <USBH_HID_MouseInit+0x4c>)
 8004cdc:	4b0e      	ldr	r3, [pc, #56]	; (8004d18 <USBH_HID_MouseInit+0x50>)
 8004cde:	3008      	adds	r0, #8
 8004ce0:	f890 1029 	ldrb.w	r1, [r0, #41]	; 0x29
 8004ce4:	7014      	strb	r4, [r2, #0]
 8004ce6:	7054      	strb	r4, [r2, #1]
 8004ce8:	f890 202a 	ldrb.w	r2, [r0, #42]	; 0x2a
 8004cec:	801c      	strh	r4, [r3, #0]
 8004cee:	42a1      	cmp	r1, r4
 8004cf0:	bf18      	it	ne
 8004cf2:	3201      	addne	r2, #1
 8004cf4:	805c      	strh	r4, [r3, #2]
 8004cf6:	809c      	strh	r4, [r3, #4]
 8004cf8:	719c      	strb	r4, [r3, #6]
 8004cfa:	4b08      	ldr	r3, [pc, #32]	; (8004d1c <USBH_HID_MouseInit+0x54>)
 8004cfc:	8202      	strh	r2, [r0, #16]
 8004cfe:	f44f 7280 	mov.w	r2, #256	; 0x100
 8004d02:	60c3      	str	r3, [r0, #12]
 8004d04:	4906      	ldr	r1, [pc, #24]	; (8004d20 <USBH_HID_MouseInit+0x58>)
 8004d06:	601c      	str	r4, [r3, #0]
 8004d08:	605c      	str	r4, [r3, #4]
 8004d0a:	f7ff fd31 	bl	8004770 <USBH_HID_FifoInit>
 8004d0e:	4620      	mov	r0, r4
 8004d10:	bd10      	pop	{r4, pc}
 8004d12:	bf00      	nop
 8004d14:	20000440 	.word	0x20000440
 8004d18:	20000438 	.word	0x20000438
 8004d1c:	20000448 	.word	0x20000448
 8004d20:	20000450 	.word	0x20000450

08004d24 <USBH_HID_GetMouseInfo>:
 8004d24:	e92d 41f3 	stmdb	sp!, {r0, r1, r4, r5, r6, r7, r8, lr}
 8004d28:	f890 3324 	ldrb.w	r3, [r0, #804]	; 0x324
 8004d2c:	f8d0 2380 	ldr.w	r2, [r0, #896]	; 0x380
 8004d30:	3308      	adds	r3, #8
 8004d32:	f852 4023 	ldr.w	r4, [r2, r3, lsl #2]
 8004d36:	8b22      	ldrh	r2, [r4, #24]
 8004d38:	b91a      	cbnz	r2, 8004d42 <USBH_HID_GetMouseInfo+0x1e>
 8004d3a:	2000      	movs	r0, #0
 8004d3c:	b002      	add	sp, #8
 8004d3e:	e8bd 81f0 	ldmia.w	sp!, {r4, r5, r6, r7, r8, pc}
 8004d42:	4e3b      	ldr	r6, [pc, #236]	; (8004e30 <USBH_HID_GetMouseInfo+0x10c>)
 8004d44:	2500      	movs	r5, #0
 8004d46:	f104 0008 	add.w	r0, r4, #8
 8004d4a:	4631      	mov	r1, r6
 8004d4c:	6035      	str	r5, [r6, #0]
 8004d4e:	6075      	str	r5, [r6, #4]
 8004d50:	f7ff fd14 	bl	800477c <USBH_HID_FifoRead>
 8004d54:	2800      	cmp	r0, #0
 8004d56:	d0f0      	beq.n	8004d3a <USBH_HID_GetMouseInfo+0x16>
 8004d58:	8fa3      	ldrh	r3, [r4, #60]	; 0x3c
 8004d5a:	8fe2      	ldrh	r2, [r4, #62]	; 0x3e
 8004d5c:	f894 8031 	ldrb.w	r8, [r4, #49]	; 0x31
 8004d60:	8f21      	ldrh	r1, [r4, #56]	; 0x38
 8004d62:	45a8      	cmp	r8, r5
 8004d64:	bf0c      	ite	eq
 8004d66:	46b0      	moveq	r8, r6
 8004d68:	f106 0801 	addne.w	r8, r6, #1
 8004d6c:	429a      	cmp	r2, r3
 8004d6e:	f894 203a 	ldrb.w	r2, [r4, #58]	; 0x3a
 8004d72:	4626      	mov	r6, r4
 8004d74:	bf2c      	ite	cs
 8004d76:	2300      	movcs	r3, #0
 8004d78:	2301      	movcc	r3, #1
 8004d7a:	4640      	mov	r0, r8
 8004d7c:	f7ff ff58 	bl	8004c30 <collect_bits>
 8004d80:	f8b4 3046 	ldrh.w	r3, [r4, #70]	; 0x46
 8004d84:	f8b4 2044 	ldrh.w	r2, [r4, #68]	; 0x44
 8004d88:	b207      	sxth	r7, r0
 8004d8a:	f8b4 1040 	ldrh.w	r1, [r4, #64]	; 0x40
 8004d8e:	4640      	mov	r0, r8
 8004d90:	429a      	cmp	r2, r3
 8004d92:	f894 2042 	ldrb.w	r2, [r4, #66]	; 0x42
 8004d96:	f8ad 7004 	strh.w	r7, [sp, #4]
 8004d9a:	bf94      	ite	ls
 8004d9c:	2300      	movls	r3, #0
 8004d9e:	2301      	movhi	r3, #1
 8004da0:	f7ff ff46 	bl	8004c30 <collect_bits>
 8004da4:	462b      	mov	r3, r5
 8004da6:	b200      	sxth	r0, r0
 8004da8:	462a      	mov	r2, r5
 8004daa:	2501      	movs	r5, #1
 8004dac:	f8ad 0006 	strh.w	r0, [sp, #6]
 8004db0:	f896 1048 	ldrb.w	r1, [r6, #72]	; 0x48
 8004db4:	3602      	adds	r6, #2
 8004db6:	f818 c001 	ldrb.w	ip, [r8, r1]
 8004dba:	f896 1047 	ldrb.w	r1, [r6, #71]	; 0x47
 8004dbe:	ea1c 0f01 	tst.w	ip, r1
 8004dc2:	bf18      	it	ne
 8004dc4:	fa05 f103 	lslne.w	r1, r5, r3
 8004dc8:	f103 0301 	add.w	r3, r3, #1
 8004dcc:	bf1c      	itt	ne
 8004dce:	430a      	orrne	r2, r1
 8004dd0:	b2d2      	uxtbne	r2, r2
 8004dd2:	2b04      	cmp	r3, #4
 8004dd4:	d1ec      	bne.n	8004db0 <USBH_HID_GetMouseInfo+0x8c>
 8004dd6:	f894 3030 	ldrb.w	r3, [r4, #48]	; 0x30
 8004dda:	f003 0303 	and.w	r3, r3, #3
 8004dde:	2b01      	cmp	r3, #1
 8004de0:	4b14      	ldr	r3, [pc, #80]	; (8004e34 <USBH_HID_GetMouseInfo+0x110>)
 8004de2:	d118      	bne.n	8004e16 <USBH_HID_GetMouseInfo+0xf2>
 8004de4:	2f7f      	cmp	r7, #127	; 0x7f
 8004de6:	dd18      	ble.n	8004e1a <USBH_HID_GetMouseInfo+0xf6>
 8004de8:	217f      	movs	r1, #127	; 0x7f
 8004dea:	f8ad 1004 	strh.w	r1, [sp, #4]
 8004dee:	287f      	cmp	r0, #127	; 0x7f
 8004df0:	dd18      	ble.n	8004e24 <USBH_HID_GetMouseInfo+0x100>
 8004df2:	217f      	movs	r1, #127	; 0x7f
 8004df4:	f8ad 1006 	strh.w	r1, [sp, #6]
 8004df8:	f8bd 1004 	ldrh.w	r1, [sp, #4]
 8004dfc:	8019      	strh	r1, [r3, #0]
 8004dfe:	f8bd 1006 	ldrh.w	r1, [sp, #6]
 8004e02:	8059      	strh	r1, [r3, #2]
 8004e04:	f002 0101 	and.w	r1, r2, #1
 8004e08:	7119      	strb	r1, [r3, #4]
 8004e0a:	f3c2 0140 	ubfx	r1, r2, #1, #1
 8004e0e:	f3c2 0280 	ubfx	r2, r2, #2, #1
 8004e12:	7159      	strb	r1, [r3, #5]
 8004e14:	719a      	strb	r2, [r3, #6]
 8004e16:	4807      	ldr	r0, [pc, #28]	; (8004e34 <USBH_HID_GetMouseInfo+0x110>)
 8004e18:	e790      	b.n	8004d3c <USBH_HID_GetMouseInfo+0x18>
 8004e1a:	3780      	adds	r7, #128	; 0x80
 8004e1c:	dae7      	bge.n	8004dee <USBH_HID_GetMouseInfo+0xca>
 8004e1e:	f64f 7180 	movw	r1, #65408	; 0xff80
 8004e22:	e7e2      	b.n	8004dea <USBH_HID_GetMouseInfo+0xc6>
 8004e24:	3080      	adds	r0, #128	; 0x80
 8004e26:	dae7      	bge.n	8004df8 <USBH_HID_GetMouseInfo+0xd4>
 8004e28:	f64f 7180 	movw	r1, #65408	; 0xff80
 8004e2c:	e7e2      	b.n	8004df4 <USBH_HID_GetMouseInfo+0xd0>
 8004e2e:	bf00      	nop
 8004e30:	20000440 	.word	0x20000440
 8004e34:	20000438 	.word	0x20000438

08004e38 <HID_ReadItem>:
 8004e38:	b5f0      	push	{r4, r5, r6, r7, lr}
 8004e3a:	7a43      	ldrb	r3, [r0, #9]
 8004e3c:	6806      	ldr	r6, [r0, #0]
 8004e3e:	7a02      	ldrb	r2, [r0, #8]
 8004e40:	b143      	cbz	r3, 8004e54 <HID_ReadItem+0x1c>
 8004e42:	428b      	cmp	r3, r1
 8004e44:	d932      	bls.n	8004eac <HID_ReadItem+0x74>
 8004e46:	6843      	ldr	r3, [r0, #4]
 8004e48:	fb03 2301 	mla	r3, r3, r1, r2
 8004e4c:	eb06 06d3 	add.w	r6, r6, r3, lsr #3
 8004e50:	f003 0207 	and.w	r2, r3, #7
 8004e54:	6841      	ldr	r1, [r0, #4]
 8004e56:	2400      	movs	r4, #0
 8004e58:	08cb      	lsrs	r3, r1, #3
 8004e5a:	f011 0f07 	tst.w	r1, #7
 8004e5e:	f103 0501 	add.w	r5, r3, #1
 8004e62:	bf08      	it	eq
 8004e64:	461d      	moveq	r5, r3
 8004e66:	4623      	mov	r3, r4
 8004e68:	42ac      	cmp	r4, r5
 8004e6a:	d11a      	bne.n	8004ea2 <HID_ReadItem+0x6a>
 8004e6c:	40d3      	lsrs	r3, r2
 8004e6e:	f04f 32ff 	mov.w	r2, #4294967295
 8004e72:	408a      	lsls	r2, r1
 8004e74:	ea23 0302 	bic.w	r3, r3, r2
 8004e78:	68c2      	ldr	r2, [r0, #12]
 8004e7a:	429a      	cmp	r2, r3
 8004e7c:	d816      	bhi.n	8004eac <HID_ReadItem+0x74>
 8004e7e:	6902      	ldr	r2, [r0, #16]
 8004e80:	429a      	cmp	r2, r3
 8004e82:	d313      	bcc.n	8004eac <HID_ReadItem+0x74>
 8004e84:	69c2      	ldr	r2, [r0, #28]
 8004e86:	7a80      	ldrb	r0, [r0, #10]
 8004e88:	b140      	cbz	r0, 8004e9c <HID_ReadItem+0x64>
 8004e8a:	2001      	movs	r0, #1
 8004e8c:	1e4c      	subs	r4, r1, #1
 8004e8e:	fa00 f404 	lsl.w	r4, r0, r4
 8004e92:	421c      	tst	r4, r3
 8004e94:	bf1e      	ittt	ne
 8004e96:	4088      	lslne	r0, r1
 8004e98:	4240      	negne	r0, r0
 8004e9a:	4303      	orrne	r3, r0
 8004e9c:	fb02 f003 	mul.w	r0, r2, r3
 8004ea0:	bdf0      	pop	{r4, r5, r6, r7, pc}
 8004ea2:	00e7      	lsls	r7, r4, #3
 8004ea4:	7833      	ldrb	r3, [r6, #0]
 8004ea6:	3401      	adds	r4, #1
 8004ea8:	40bb      	lsls	r3, r7
 8004eaa:	e7dd      	b.n	8004e68 <HID_ReadItem+0x30>
 8004eac:	2000      	movs	r0, #0
 8004eae:	e7f7      	b.n	8004ea0 <HID_ReadItem+0x68>

08004eb0 <report_is_usable>:
 8004eb0:	08c0      	lsrs	r0, r0, #3
 8004eb2:	7090      	strb	r0, [r2, #2]
 8004eb4:	7810      	ldrb	r0, [r2, #0]
 8004eb6:	f000 0003 	and.w	r0, r0, #3
 8004eba:	2803      	cmp	r0, #3
 8004ebc:	d106      	bne.n	8004ecc <report_is_usable+0x1c>
 8004ebe:	f001 0007 	and.w	r0, r1, #7
 8004ec2:	2807      	cmp	r0, #7
 8004ec4:	bf14      	ite	ne
 8004ec6:	2000      	movne	r0, #0
 8004ec8:	2001      	moveq	r0, #1
 8004eca:	4770      	bx	lr
 8004ecc:	2801      	cmp	r0, #1
 8004ece:	d103      	bne.n	8004ed8 <report_is_usable+0x28>
 8004ed0:	f001 000f 	and.w	r0, r1, #15
 8004ed4:	280f      	cmp	r0, #15
 8004ed6:	e7f5      	b.n	8004ec4 <report_is_usable+0x14>
 8004ed8:	2802      	cmp	r0, #2
 8004eda:	e7f3      	b.n	8004ec4 <report_is_usable+0x14>

08004edc <parse_report_descriptor>:
 8004edc:	e92d 4ff0 	stmdb	sp!, {r4, r5, r6, r7, r8, r9, sl, fp, lr}
 8004ee0:	2700      	movs	r7, #0
 8004ee2:	f04f 38ff 	mov.w	r8, #4294967295
 8004ee6:	b08b      	sub	sp, #44	; 0x2c
 8004ee8:	4681      	mov	r9, r0
 8004eea:	460c      	mov	r4, r1
 8004eec:	463e      	mov	r6, r7
 8004eee:	4638      	mov	r0, r7
 8004ef0:	463d      	mov	r5, r7
 8004ef2:	46c3      	mov	fp, r8
 8004ef4:	46ba      	mov	sl, r7
 8004ef6:	9700      	str	r7, [sp, #0]
 8004ef8:	9705      	str	r7, [sp, #20]
 8004efa:	9703      	str	r7, [sp, #12]
 8004efc:	9702      	str	r7, [sp, #8]
 8004efe:	9701      	str	r7, [sp, #4]
 8004f00:	e9cd 8806 	strd	r8, r8, [sp, #24]
 8004f04:	e9cd 7708 	strd	r7, r7, [sp, #32]
 8004f08:	b90c      	cbnz	r4, 8004f0e <parse_report_descriptor+0x32>
 8004f0a:	2000      	movs	r0, #0
 8004f0c:	e1ac      	b.n	8005268 <parse_report_descriptor+0x38c>
 8004f0e:	f899 e000 	ldrb.w	lr, [r9]
 8004f12:	f3ce 0381 	ubfx	r3, lr, #2, #2
 8004f16:	ea4f 1c1e 	mov.w	ip, lr, lsr #4
 8004f1a:	f01e 0e03 	ands.w	lr, lr, #3
 8004f1e:	9304      	str	r3, [sp, #16]
 8004f20:	d114      	bne.n	8004f4c <parse_report_descriptor+0x70>
 8004f22:	3c01      	subs	r4, #1
 8004f24:	f109 0901 	add.w	r9, r9, #1
 8004f28:	4673      	mov	r3, lr
 8004f2a:	b2a4      	uxth	r4, r4
 8004f2c:	9902      	ldr	r1, [sp, #8]
 8004f2e:	2900      	cmp	r1, #0
 8004f30:	d03e      	beq.n	8004fb0 <parse_report_descriptor+0xd4>
 8004f32:	9b04      	ldr	r3, [sp, #16]
 8004f34:	2b00      	cmp	r3, #0
 8004f36:	d1e7      	bne.n	8004f08 <parse_report_descriptor+0x2c>
 8004f38:	f1bc 0f0a 	cmp.w	ip, #10
 8004f3c:	d12a      	bne.n	8004f94 <parse_report_descriptor+0xb8>
 8004f3e:	460b      	mov	r3, r1
 8004f40:	3501      	adds	r5, #1
 8004f42:	3301      	adds	r3, #1
 8004f44:	b2ed      	uxtb	r5, r5
 8004f46:	b2db      	uxtb	r3, r3
 8004f48:	9302      	str	r3, [sp, #8]
 8004f4a:	e7dd      	b.n	8004f08 <parse_report_descriptor+0x2c>
 8004f4c:	f1be 0f01 	cmp.w	lr, #1
 8004f50:	f899 3001 	ldrb.w	r3, [r9, #1]
 8004f54:	d104      	bne.n	8004f60 <parse_report_descriptor+0x84>
 8004f56:	f109 0902 	add.w	r9, r9, #2
 8004f5a:	3c02      	subs	r4, #2
 8004f5c:	b2a4      	uxth	r4, r4
 8004f5e:	e7e5      	b.n	8004f2c <parse_report_descriptor+0x50>
 8004f60:	f899 1002 	ldrb.w	r1, [r9, #2]
 8004f64:	f1be 0f03 	cmp.w	lr, #3
 8004f68:	eb03 2301 	add.w	r3, r3, r1, lsl #8
 8004f6c:	d003      	beq.n	8004f76 <parse_report_descriptor+0x9a>
 8004f6e:	f109 0903 	add.w	r9, r9, #3
 8004f72:	3c03      	subs	r4, #3
 8004f74:	e7f2      	b.n	8004f5c <parse_report_descriptor+0x80>
 8004f76:	f899 e004 	ldrb.w	lr, [r9, #4]
 8004f7a:	3c05      	subs	r4, #5
 8004f7c:	f899 1003 	ldrb.w	r1, [r9, #3]
 8004f80:	f109 0905 	add.w	r9, r9, #5
 8004f84:	ea4f 6e0e 	mov.w	lr, lr, lsl #24
 8004f88:	b2a4      	uxth	r4, r4
 8004f8a:	ea4e 4e01 	orr.w	lr, lr, r1, lsl #16
 8004f8e:	ea43 030e 	orr.w	r3, r3, lr
 8004f92:	e7cb      	b.n	8004f2c <parse_report_descriptor+0x50>
 8004f94:	f1bc 0f0c 	cmp.w	ip, #12
 8004f98:	d1b6      	bne.n	8004f08 <parse_report_descriptor+0x2c>
 8004f9a:	9b02      	ldr	r3, [sp, #8]
 8004f9c:	3d01      	subs	r5, #1
 8004f9e:	3b01      	subs	r3, #1
 8004fa0:	b2ed      	uxtb	r5, r5
 8004fa2:	b2db      	uxtb	r3, r3
 8004fa4:	45ab      	cmp	fp, r5
 8004fa6:	bfc8      	it	gt
 8004fa8:	f04f 3bff 	movgt.w	fp, #4294967295
 8004fac:	9302      	str	r3, [sp, #8]
 8004fae:	e7ab      	b.n	8004f08 <parse_report_descriptor+0x2c>
 8004fb0:	9904      	ldr	r1, [sp, #16]
 8004fb2:	2901      	cmp	r1, #1
 8004fb4:	f000 80c2 	beq.w	800513c <parse_report_descriptor+0x260>
 8004fb8:	2902      	cmp	r1, #2
 8004fba:	f000 80ff 	beq.w	80051bc <parse_report_descriptor+0x2e0>
 8004fbe:	2900      	cmp	r1, #0
 8004fc0:	d1a2      	bne.n	8004f08 <parse_report_descriptor+0x2c>
 8004fc2:	f1ac 0c08 	sub.w	ip, ip, #8
 8004fc6:	f1bc 0f04 	cmp.w	ip, #4
 8004fca:	d89e      	bhi.n	8004f0a <parse_report_descriptor+0x2e>
 8004fcc:	a101      	add	r1, pc, #4	; (adr r1, 8004fd4 <parse_report_descriptor+0xf8>)
 8004fce:	f851 f02c 	ldr.w	pc, [r1, ip, lsl #2]
 8004fd2:	bf00      	nop
 8004fd4:	08004fe9 	.word	0x08004fe9
 8004fd8:	08004f09 	.word	0x08004f09
 8004fdc:	080050d1 	.word	0x080050d1
 8004fe0:	08004f09 	.word	0x08004f09
 8004fe4:	080050ff 	.word	0x080050ff
 8004fe8:	b357      	cbz	r7, 8005040 <parse_report_descriptor+0x164>
 8004fea:	7813      	ldrb	r3, [r2, #0]
 8004fec:	07df      	lsls	r7, r3, #31
 8004fee:	d527      	bpl.n	8005040 <parse_report_descriptor+0x164>
 8004ff0:	9b03      	ldr	r3, [sp, #12]
 8004ff2:	f102 0c18 	add.w	ip, r2, #24
 8004ff6:	9905      	ldr	r1, [sp, #20]
 8004ff8:	f102 0e19 	add.w	lr, r2, #25
 8004ffc:	fb13 f701 	smulbb	r7, r3, r1
 8005000:	2300      	movs	r3, #0
 8005002:	b2ff      	uxtb	r7, r7
 8005004:	b2de      	uxtb	r6, r3
 8005006:	9905      	ldr	r1, [sp, #20]
 8005008:	42b1      	cmp	r1, r6
 800500a:	d90b      	bls.n	8005024 <parse_report_descriptor+0x148>
 800500c:	18c6      	adds	r6, r0, r3
 800500e:	f3c6 01cc 	ubfx	r1, r6, #3, #13
 8005012:	f006 0607 	and.w	r6, r6, #7
 8005016:	f80c 1013 	strb.w	r1, [ip, r3, lsl #1]
 800501a:	2101      	movs	r1, #1
 800501c:	fa01 f606 	lsl.w	r6, r1, r6
 8005020:	f80e 6013 	strb.w	r6, [lr, r3, lsl #1]
 8005024:	3301      	adds	r3, #1
 8005026:	2b0c      	cmp	r3, #12
 8005028:	d1ec      	bne.n	8005004 <parse_report_descriptor+0x128>
 800502a:	9b05      	ldr	r3, [sp, #20]
 800502c:	f882 7034 	strb.w	r7, [r2, #52]	; 0x34
 8005030:	2b01      	cmp	r3, #1
 8005032:	9b00      	ldr	r3, [sp, #0]
 8005034:	bf94      	ite	ls
 8005036:	f043 0304 	orrls.w	r3, r3, #4
 800503a:	f043 030c 	orrhi.w	r3, r3, #12
 800503e:	9300      	str	r3, [sp, #0]
 8005040:	9906      	ldr	r1, [sp, #24]
 8005042:	f8bd 300c 	ldrh.w	r3, [sp, #12]
 8005046:	2900      	cmp	r1, #0
 8005048:	db2c      	blt.n	80050a4 <parse_report_descriptor+0x1c8>
 800504a:	7816      	ldrb	r6, [r2, #0]
 800504c:	07f6      	lsls	r6, r6, #31
 800504e:	d510      	bpl.n	8005072 <parse_report_descriptor+0x196>
 8005050:	fb11 f603 	smulbb	r6, r1, r3
 8005054:	9908      	ldr	r1, [sp, #32]
 8005056:	f1b8 0f00 	cmp.w	r8, #0
 800505a:	8191      	strh	r1, [r2, #12]
 800505c:	4406      	add	r6, r0
 800505e:	9909      	ldr	r1, [sp, #36]	; 0x24
 8005060:	8116      	strh	r6, [r2, #8]
 8005062:	81d1      	strh	r1, [r2, #14]
 8005064:	9903      	ldr	r1, [sp, #12]
 8005066:	7291      	strb	r1, [r2, #10]
 8005068:	9900      	ldr	r1, [sp, #0]
 800506a:	f041 0101 	orr.w	r1, r1, #1
 800506e:	9100      	str	r1, [sp, #0]
 8005070:	da1e      	bge.n	80050b0 <parse_report_descriptor+0x1d4>
 8005072:	9907      	ldr	r1, [sp, #28]
 8005074:	2900      	cmp	r1, #0
 8005076:	db0a      	blt.n	800508e <parse_report_descriptor+0x1b2>
 8005078:	7816      	ldrb	r6, [r2, #0]
 800507a:	f006 0603 	and.w	r6, r6, #3
 800507e:	2e03      	cmp	r6, #3
 8005080:	bf01      	itttt	eq
 8005082:	fb01 0603 	mlaeq	r6, r1, r3, r0
 8005086:	9903      	ldreq	r1, [sp, #12]
 8005088:	8616      	strheq	r6, [r2, #48]	; 0x30
 800508a:	f882 1032 	strbeq.w	r1, [r2, #50]	; 0x32
 800508e:	9905      	ldr	r1, [sp, #20]
 8005090:	f04f 38ff 	mov.w	r8, #4294967295
 8005094:	2700      	movs	r7, #0
 8005096:	fb01 0003 	mla	r0, r1, r3, r0
 800509a:	b280      	uxth	r0, r0
 800509c:	e9cd 8806 	strd	r8, r8, [sp, #24]
 80050a0:	2600      	movs	r6, #0
 80050a2:	e731      	b.n	8004f08 <parse_report_descriptor+0x2c>
 80050a4:	f1b8 0f00 	cmp.w	r8, #0
 80050a8:	dbe3      	blt.n	8005072 <parse_report_descriptor+0x196>
 80050aa:	7816      	ldrb	r6, [r2, #0]
 80050ac:	07f1      	lsls	r1, r6, #31
 80050ae:	d5e0      	bpl.n	8005072 <parse_report_descriptor+0x196>
 80050b0:	9908      	ldr	r1, [sp, #32]
 80050b2:	fb18 f803 	smulbb	r8, r8, r3
 80050b6:	8291      	strh	r1, [r2, #20]
 80050b8:	4480      	add	r8, r0
 80050ba:	9909      	ldr	r1, [sp, #36]	; 0x24
 80050bc:	f8a2 8010 	strh.w	r8, [r2, #16]
 80050c0:	82d1      	strh	r1, [r2, #22]
 80050c2:	9903      	ldr	r1, [sp, #12]
 80050c4:	7491      	strb	r1, [r2, #18]
 80050c6:	9900      	ldr	r1, [sp, #0]
 80050c8:	f041 0102 	orr.w	r1, r1, #2
 80050cc:	9100      	str	r1, [sp, #0]
 80050ce:	e7d0      	b.n	8005072 <parse_report_descriptor+0x196>
 80050d0:	3501      	adds	r5, #1
 80050d2:	2b01      	cmp	r3, #1
 80050d4:	b2ed      	uxtb	r5, r5
 80050d6:	d104      	bne.n	80050e2 <parse_report_descriptor+0x206>
 80050d8:	9b01      	ldr	r3, [sp, #4]
 80050da:	3301      	adds	r3, #1
 80050dc:	b25b      	sxtb	r3, r3
 80050de:	9301      	str	r3, [sp, #4]
 80050e0:	e7de      	b.n	80050a0 <parse_report_descriptor+0x1c4>
 80050e2:	b923      	cbnz	r3, 80050ee <parse_report_descriptor+0x212>
 80050e4:	f10a 0601 	add.w	r6, sl, #1
 80050e8:	fa4f fa86 	sxtb.w	sl, r6
 80050ec:	e7d8      	b.n	80050a0 <parse_report_descriptor+0x1c4>
 80050ee:	2b02      	cmp	r3, #2
 80050f0:	f040 80b5 	bne.w	800525e <parse_report_descriptor+0x382>
 80050f4:	f10a 0301 	add.w	r3, sl, #1
 80050f8:	fa4f fa83 	sxtb.w	sl, r3
 80050fc:	e7d0      	b.n	80050a0 <parse_report_descriptor+0x1c4>
 80050fe:	3d01      	subs	r5, #1
 8005100:	b2ed      	uxtb	r5, r5
 8005102:	45ab      	cmp	fp, r5
 8005104:	bfc8      	it	gt
 8005106:	f04f 3bff 	movgt.w	fp, #4294967295
 800510a:	f1ba 0f00 	cmp.w	sl, #0
 800510e:	d004      	beq.n	800511a <parse_report_descriptor+0x23e>
 8005110:	f10a 33ff 	add.w	r3, sl, #4294967295
 8005114:	fa4f fa83 	sxtb.w	sl, r3
 8005118:	e6f6      	b.n	8004f08 <parse_report_descriptor+0x2c>
 800511a:	9b01      	ldr	r3, [sp, #4]
 800511c:	2b00      	cmp	r3, #0
 800511e:	f43f aef4 	beq.w	8004f0a <parse_report_descriptor+0x2e>
 8005122:	3b01      	subs	r3, #1
 8005124:	9900      	ldr	r1, [sp, #0]
 8005126:	b25b      	sxtb	r3, r3
 8005128:	9301      	str	r3, [sp, #4]
 800512a:	f7ff fec1 	bl	8004eb0 <report_is_usable>
 800512e:	2800      	cmp	r0, #0
 8005130:	f040 8099 	bne.w	8005266 <parse_report_descriptor+0x38a>
 8005134:	4650      	mov	r0, sl
 8005136:	f8cd a000 	str.w	sl, [sp]
 800513a:	e6e5      	b.n	8004f08 <parse_report_descriptor+0x2c>
 800513c:	f1bc 0f09 	cmp.w	ip, #9
 8005140:	f63f aee3 	bhi.w	8004f0a <parse_report_descriptor+0x2e>
 8005144:	a101      	add	r1, pc, #4	; (adr r1, 800514c <parse_report_descriptor+0x270>)
 8005146:	f851 f02c 	ldr.w	pc, [r1, ip, lsl #2]
 800514a:	bf00      	nop
 800514c:	08005175 	.word	0x08005175
 8005150:	0800519d 	.word	0x0800519d
 8005154:	080051a7 	.word	0x080051a7
 8005158:	08004f09 	.word	0x08004f09
 800515c:	08004f09 	.word	0x08004f09
 8005160:	08004f09 	.word	0x08004f09
 8005164:	08004f09 	.word	0x08004f09
 8005168:	080051ad 	.word	0x080051ad
 800516c:	080051b3 	.word	0x080051b3
 8005170:	080051b7 	.word	0x080051b7
 8005174:	2b0c      	cmp	r3, #12
 8005176:	f63f aec7 	bhi.w	8004f08 <parse_report_descriptor+0x2c>
 800517a:	f44f 518d 	mov.w	r1, #4512	; 0x11a0
 800517e:	fa21 fc03 	lsr.w	ip, r1, r3
 8005182:	f01c 0f01 	tst.w	ip, #1
 8005186:	d109      	bne.n	800519c <parse_report_descriptor+0x2c0>
 8005188:	2b09      	cmp	r3, #9
 800518a:	d00a      	beq.n	80051a2 <parse_report_descriptor+0x2c6>
 800518c:	2b01      	cmp	r3, #1
 800518e:	f47f aebb 	bne.w	8004f08 <parse_report_descriptor+0x2c>
 8005192:	f1bb 0f00 	cmp.w	fp, #0
 8005196:	da01      	bge.n	800519c <parse_report_descriptor+0x2c0>
 8005198:	fa4f fb85 	sxtb.w	fp, r5
 800519c:	b29b      	uxth	r3, r3
 800519e:	9308      	str	r3, [sp, #32]
 80051a0:	e6b2      	b.n	8004f08 <parse_report_descriptor+0x2c>
 80051a2:	2701      	movs	r7, #1
 80051a4:	e7fa      	b.n	800519c <parse_report_descriptor+0x2c0>
 80051a6:	b29b      	uxth	r3, r3
 80051a8:	9309      	str	r3, [sp, #36]	; 0x24
 80051aa:	e6ad      	b.n	8004f08 <parse_report_descriptor+0x2c>
 80051ac:	b2db      	uxtb	r3, r3
 80051ae:	9303      	str	r3, [sp, #12]
 80051b0:	e6aa      	b.n	8004f08 <parse_report_descriptor+0x2c>
 80051b2:	7053      	strb	r3, [r2, #1]
 80051b4:	e6a8      	b.n	8004f08 <parse_report_descriptor+0x2c>
 80051b6:	b2db      	uxtb	r3, r3
 80051b8:	9305      	str	r3, [sp, #20]
 80051ba:	e6a5      	b.n	8004f08 <parse_report_descriptor+0x2c>
 80051bc:	f1bc 0f01 	cmp.w	ip, #1
 80051c0:	d047      	beq.n	8005252 <parse_report_descriptor+0x376>
 80051c2:	f1bc 0f02 	cmp.w	ip, #2
 80051c6:	d048      	beq.n	800525a <parse_report_descriptor+0x37e>
 80051c8:	f1bc 0f00 	cmp.w	ip, #0
 80051cc:	f47f ae9c 	bne.w	8004f08 <parse_report_descriptor+0x2c>
 80051d0:	b9d5      	cbnz	r5, 8005208 <parse_report_descriptor+0x32c>
 80051d2:	2b06      	cmp	r3, #6
 80051d4:	d107      	bne.n	80051e6 <parse_report_descriptor+0x30a>
 80051d6:	7813      	ldrb	r3, [r2, #0]
 80051d8:	9904      	ldr	r1, [sp, #16]
 80051da:	f361 0301 	bfi	r3, r1, #0, #2
 80051de:	7013      	strb	r3, [r2, #0]
 80051e0:	3601      	adds	r6, #1
 80051e2:	b2b6      	uxth	r6, r6
 80051e4:	e690      	b.n	8004f08 <parse_report_descriptor+0x2c>
 80051e6:	2b02      	cmp	r3, #2
 80051e8:	d105      	bne.n	80051f6 <parse_report_descriptor+0x31a>
 80051ea:	7813      	ldrb	r3, [r2, #0]
 80051ec:	f04f 0c01 	mov.w	ip, #1
 80051f0:	f36c 0301 	bfi	r3, ip, #0, #2
 80051f4:	e7f3      	b.n	80051de <parse_report_descriptor+0x302>
 80051f6:	f1a3 0c04 	sub.w	ip, r3, #4
 80051fa:	f1bc 0f01 	cmp.w	ip, #1
 80051fe:	d803      	bhi.n	8005208 <parse_report_descriptor+0x32c>
 8005200:	7813      	ldrb	r3, [r2, #0]
 8005202:	f043 0303 	orr.w	r3, r3, #3
 8005206:	e7ea      	b.n	80051de <parse_report_descriptor+0x302>
 8005208:	2b01      	cmp	r3, #1
 800520a:	d0e9      	beq.n	80051e0 <parse_report_descriptor+0x304>
 800520c:	f1a3 0c30 	sub.w	ip, r3, #48	; 0x30
 8005210:	f1bc 0f01 	cmp.w	ip, #1
 8005214:	d810      	bhi.n	8005238 <parse_report_descriptor+0x35c>
 8005216:	9901      	ldr	r1, [sp, #4]
 8005218:	2900      	cmp	r1, #0
 800521a:	d0e1      	beq.n	80051e0 <parse_report_descriptor+0x304>
 800521c:	f892 c000 	ldrb.w	ip, [r2]
 8005220:	f01c 0f01 	tst.w	ip, #1
 8005224:	d0dc      	beq.n	80051e0 <parse_report_descriptor+0x304>
 8005226:	fa4f fc86 	sxtb.w	ip, r6
 800522a:	2b30      	cmp	r3, #48	; 0x30
 800522c:	9906      	ldr	r1, [sp, #24]
 800522e:	bf0c      	ite	eq
 8005230:	4661      	moveq	r1, ip
 8005232:	46e0      	movne	r8, ip
 8005234:	9106      	str	r1, [sp, #24]
 8005236:	e7d3      	b.n	80051e0 <parse_report_descriptor+0x304>
 8005238:	2b39      	cmp	r3, #57	; 0x39
 800523a:	d1d1      	bne.n	80051e0 <parse_report_descriptor+0x304>
 800523c:	9b01      	ldr	r3, [sp, #4]
 800523e:	2b00      	cmp	r3, #0
 8005240:	d0ce      	beq.n	80051e0 <parse_report_descriptor+0x304>
 8005242:	7813      	ldrb	r3, [r2, #0]
 8005244:	f003 0303 	and.w	r3, r3, #3
 8005248:	2b03      	cmp	r3, #3
 800524a:	bf04      	itt	eq
 800524c:	b273      	sxtbeq	r3, r6
 800524e:	9307      	streq	r3, [sp, #28]
 8005250:	e7c6      	b.n	80051e0 <parse_report_descriptor+0x304>
 8005252:	3601      	adds	r6, #1
 8005254:	1af3      	subs	r3, r6, r3
 8005256:	b29e      	uxth	r6, r3
 8005258:	e656      	b.n	8004f08 <parse_report_descriptor+0x2c>
 800525a:	4433      	add	r3, r6
 800525c:	e7fb      	b.n	8005256 <parse_report_descriptor+0x37a>
 800525e:	2301      	movs	r3, #1
 8005260:	2600      	movs	r6, #0
 8005262:	9302      	str	r3, [sp, #8]
 8005264:	e650      	b.n	8004f08 <parse_report_descriptor+0x2c>
 8005266:	2001      	movs	r0, #1
 8005268:	b00b      	add	sp, #44	; 0x2c
 800526a:	e8bd 8ff0 	ldmia.w	sp!, {r4, r5, r6, r7, r8, r9, sl, fp, pc}
 800526e:	bf00      	nop

08005270 <USBH_HUB_Process>:
 8005270:	f8d0 3380 	ldr.w	r3, [r0, #896]	; 0x380
 8005274:	e92d 43f0 	stmdb	sp!, {r4, r5, r6, r7, r8, r9, lr}
 8005278:	6a1c      	ldr	r4, [r3, #32]
 800527a:	b085      	sub	sp, #20
 800527c:	4605      	mov	r5, r0
 800527e:	7827      	ldrb	r7, [r4, #0]
 8005280:	2f04      	cmp	r7, #4
 8005282:	f200 80ab 	bhi.w	80053dc <USBH_HUB_Process+0x16c>
 8005286:	e8df f007 	tbb	[pc, r7]
 800528a:	2603      	.short	0x2603
 800528c:	8137      	.short	0x8137
 800528e:	a4          	.byte	0xa4
 800528f:	00          	.byte	0x00
 8005290:	f04f 0800 	mov.w	r8, #0
 8005294:	2640      	movs	r6, #64	; 0x40
 8005296:	2280      	movs	r2, #128	; 0x80
 8005298:	e9cd 8601 	strd	r8, r6, [sp, #4]
 800529c:	f890 331d 	ldrb.w	r3, [r0, #797]	; 0x31d
 80052a0:	9300      	str	r3, [sp, #0]
 80052a2:	f890 331c 	ldrb.w	r3, [r0, #796]	; 0x31c
 80052a6:	7901      	ldrb	r1, [r0, #4]
 80052a8:	f001 fd3a 	bl	8006d20 <USBH_OpenPipe>
 80052ac:	4642      	mov	r2, r8
 80052ae:	4628      	mov	r0, r5
 80052b0:	e9cd 8601 	strd	r8, r6, [sp, #4]
 80052b4:	f895 331d 	ldrb.w	r3, [r5, #797]	; 0x31d
 80052b8:	9300      	str	r3, [sp, #0]
 80052ba:	f895 331c 	ldrb.w	r3, [r5, #796]	; 0x31c
 80052be:	7969      	ldrb	r1, [r5, #5]
 80052c0:	f001 fd2e 	bl	8006d20 <USBH_OpenPipe>
 80052c4:	71ae      	strb	r6, [r5, #6]
 80052c6:	8923      	ldrh	r3, [r4, #8]
 80052c8:	81ab      	strh	r3, [r5, #12]
 80052ca:	2301      	movs	r3, #1
 80052cc:	7023      	strb	r3, [r4, #0]
 80052ce:	4638      	mov	r0, r7
 80052d0:	b005      	add	sp, #20
 80052d2:	e8bd 83f0 	ldmia.w	sp!, {r4, r5, r6, r7, r8, r9, pc}
 80052d6:	4e42      	ldr	r6, [pc, #264]	; (80053e0 <USBH_HUB_Process+0x170>)
 80052d8:	7831      	ldrb	r1, [r6, #0]
 80052da:	f000 fbff 	bl	8005adc <USBH_HUB_GetPortStatus>
 80052de:	2800      	cmp	r0, #0
 80052e0:	d1f6      	bne.n	80052d0 <USBH_HUB_Process+0x60>
 80052e2:	7833      	ldrb	r3, [r6, #0]
 80052e4:	2b03      	cmp	r3, #3
 80052e6:	d802      	bhi.n	80052ee <USBH_HUB_Process+0x7e>
 80052e8:	3301      	adds	r3, #1
 80052ea:	7033      	strb	r3, [r6, #0]
 80052ec:	e7ef      	b.n	80052ce <USBH_HUB_Process+0x5e>
 80052ee:	2301      	movs	r3, #1
 80052f0:	7033      	strb	r3, [r6, #0]
 80052f2:	2302      	movs	r3, #2
 80052f4:	7023      	strb	r3, [r4, #0]
 80052f6:	e7eb      	b.n	80052d0 <USBH_HUB_Process+0x60>
 80052f8:	f241 0139 	movw	r1, #4153	; 0x1039
 80052fc:	f44f 7371 	mov.w	r3, #964	; 0x3c4
 8005300:	5c62      	ldrb	r2, [r4, r1]
 8005302:	f102 38ff 	add.w	r8, r2, #4294967295
 8005306:	fb03 f308 	mul.w	r3, r3, r8
 800530a:	18e6      	adds	r6, r4, r3
 800530c:	f896 012d 	ldrb.w	r0, [r6, #301]	; 0x12d
 8005310:	b398      	cbz	r0, 800537a <USBH_HUB_Process+0x10a>
 8005312:	f503 7394 	add.w	r3, r3, #296	; 0x128
 8005316:	f04f 0900 	mov.w	r9, #0
 800531a:	f8d6 0134 	ldr.w	r0, [r6, #308]	; 0x134
 800531e:	18e7      	adds	r7, r4, r3
 8005320:	f001 ff8a 	bl	8007238 <free>
 8005324:	f8d6 0138 	ldr.w	r0, [r6, #312]	; 0x138
 8005328:	f8c6 9134 	str.w	r9, [r6, #308]	; 0x134
 800532c:	f001 ff84 	bl	8007238 <free>
 8005330:	f896 120e 	ldrb.w	r1, [r6, #526]	; 0x20e
 8005334:	f8c6 9138 	str.w	r9, [r6, #312]	; 0x138
 8005338:	b111      	cbz	r1, 8005340 <USBH_HUB_Process+0xd0>
 800533a:	4628      	mov	r0, r5
 800533c:	f001 fd1b 	bl	8006d76 <USBH_FreePipe>
 8005340:	f44f 7371 	mov.w	r3, #964	; 0x3c4
 8005344:	fb03 4808 	mla	r8, r3, r8, r4
 8005348:	f898 327a 	ldrb.w	r3, [r8, #634]	; 0x27a
 800534c:	b123      	cbz	r3, 8005358 <USBH_HUB_Process+0xe8>
 800534e:	f898 120e 	ldrb.w	r1, [r8, #526]	; 0x20e
 8005352:	4628      	mov	r0, r5
 8005354:	f001 fd0f 	bl	8006d76 <USBH_FreePipe>
 8005358:	f44f 7571 	mov.w	r5, #964	; 0x3c4
 800535c:	2100      	movs	r1, #0
 800535e:	4638      	mov	r0, r7
 8005360:	462a      	mov	r2, r5
 8005362:	f001 ff71 	bl	8007248 <memset>
 8005366:	f241 0339 	movw	r3, #4153	; 0x1039
 800536a:	2000      	movs	r0, #0
 800536c:	5ce3      	ldrb	r3, [r4, r3]
 800536e:	3b01      	subs	r3, #1
 8005370:	fb05 4403 	mla	r4, r5, r3, r4
 8005374:	f884 012d 	strb.w	r0, [r4, #301]	; 0x12d
 8005378:	e7aa      	b.n	80052d0 <USBH_HUB_Process+0x60>
 800537a:	2a03      	cmp	r2, #3
 800537c:	d802      	bhi.n	8005384 <USBH_HUB_Process+0x114>
 800537e:	3201      	adds	r2, #1
 8005380:	5462      	strb	r2, [r4, r1]
 8005382:	e7a5      	b.n	80052d0 <USBH_HUB_Process+0x60>
 8005384:	2301      	movs	r3, #1
 8005386:	5463      	strb	r3, [r4, r1]
 8005388:	2303      	movs	r3, #3
 800538a:	e7b3      	b.n	80052f4 <USBH_HUB_Process+0x84>
 800538c:	f241 0739 	movw	r7, #4153	; 0x1039
 8005390:	f44f 7671 	mov.w	r6, #964	; 0x3c4
 8005394:	5de3      	ldrb	r3, [r4, r7]
 8005396:	1e59      	subs	r1, r3, #1
 8005398:	4371      	muls	r1, r6
 800539a:	1862      	adds	r2, r4, r1
 800539c:	f892 012c 	ldrb.w	r0, [r2, #300]	; 0x12c
 80053a0:	b170      	cbz	r0, 80053c0 <USBH_HUB_Process+0x150>
 80053a2:	f501 7194 	add.w	r1, r1, #296	; 0x128
 80053a6:	4628      	mov	r0, r5
 80053a8:	4421      	add	r1, r4
 80053aa:	f000 fc73 	bl	8005c94 <USBH_HUB_Device_Enum>
 80053ae:	2800      	cmp	r0, #0
 80053b0:	d18e      	bne.n	80052d0 <USBH_HUB_Process+0x60>
 80053b2:	5de2      	ldrb	r2, [r4, r7]
 80053b4:	3a01      	subs	r2, #1
 80053b6:	fb06 4402 	mla	r4, r6, r2, r4
 80053ba:	f884 012c 	strb.w	r0, [r4, #300]	; 0x12c
 80053be:	e787      	b.n	80052d0 <USBH_HUB_Process+0x60>
 80053c0:	2b03      	cmp	r3, #3
 80053c2:	d802      	bhi.n	80053ca <USBH_HUB_Process+0x15a>
 80053c4:	3301      	adds	r3, #1
 80053c6:	55e3      	strb	r3, [r4, r7]
 80053c8:	e782      	b.n	80052d0 <USBH_HUB_Process+0x60>
 80053ca:	2301      	movs	r3, #1
 80053cc:	55e3      	strb	r3, [r4, r7]
 80053ce:	2304      	movs	r3, #4
 80053d0:	e790      	b.n	80052f4 <USBH_HUB_Process+0x84>
 80053d2:	f000 ff3c 	bl	800624e <USBH_HUB_Device_Process>
 80053d6:	2000      	movs	r0, #0
 80053d8:	7020      	strb	r0, [r4, #0]
 80053da:	e779      	b.n	80052d0 <USBH_HUB_Process+0x60>
 80053dc:	2002      	movs	r0, #2
 80053de:	e777      	b.n	80052d0 <USBH_HUB_Process+0x60>
 80053e0:	20000088 	.word	0x20000088

080053e4 <USBH_HUB_InterfaceDeInit>:
 80053e4:	f8d0 3380 	ldr.w	r3, [r0, #896]	; 0x380
 80053e8:	e92d 41f0 	stmdb	sp!, {r4, r5, r6, r7, r8, lr}
 80053ec:	6a1e      	ldr	r6, [r3, #32]
 80053ee:	4605      	mov	r5, r0
 80053f0:	2700      	movs	r7, #0
 80053f2:	4634      	mov	r4, r6
 80053f4:	f506 6871 	add.w	r8, r6, #3856	; 0xf10
 80053f8:	f8d4 0134 	ldr.w	r0, [r4, #308]	; 0x134
 80053fc:	b118      	cbz	r0, 8005406 <USBH_HUB_InterfaceDeInit+0x22>
 80053fe:	f001 ff1b 	bl	8007238 <free>
 8005402:	f8c4 7134 	str.w	r7, [r4, #308]	; 0x134
 8005406:	f8d4 0138 	ldr.w	r0, [r4, #312]	; 0x138
 800540a:	b118      	cbz	r0, 8005414 <USBH_HUB_InterfaceDeInit+0x30>
 800540c:	f001 ff14 	bl	8007238 <free>
 8005410:	f8c4 7138 	str.w	r7, [r4, #312]	; 0x138
 8005414:	f504 7471 	add.w	r4, r4, #964	; 0x3c4
 8005418:	45a0      	cmp	r8, r4
 800541a:	d1ed      	bne.n	80053f8 <USBH_HUB_InterfaceDeInit+0x14>
 800541c:	f8d5 3380 	ldr.w	r3, [r5, #896]	; 0x380
 8005420:	6a18      	ldr	r0, [r3, #32]
 8005422:	b128      	cbz	r0, 8005430 <USBH_HUB_InterfaceDeInit+0x4c>
 8005424:	f001 ff08 	bl	8007238 <free>
 8005428:	f8d5 3380 	ldr.w	r3, [r5, #896]	; 0x380
 800542c:	2200      	movs	r2, #0
 800542e:	621a      	str	r2, [r3, #32]
 8005430:	f241 023c 	movw	r2, #4156	; 0x103c
 8005434:	2100      	movs	r1, #0
 8005436:	4630      	mov	r0, r6
 8005438:	f001 ff06 	bl	8007248 <memset>
 800543c:	2000      	movs	r0, #0
 800543e:	e8bd 81f0 	ldmia.w	sp!, {r4, r5, r6, r7, r8, pc}

08005442 <USBH_HUB_ClassRequest>:
 8005442:	f8d0 3380 	ldr.w	r3, [r0, #896]	; 0x380
 8005446:	b570      	push	{r4, r5, r6, lr}
 8005448:	6a1e      	ldr	r6, [r3, #32]
 800544a:	4605      	mov	r5, r0
 800544c:	78f4      	ldrb	r4, [r6, #3]
 800544e:	2c07      	cmp	r4, #7
 8005450:	d810      	bhi.n	8005474 <USBH_HUB_ClassRequest+0x32>
 8005452:	e8df f004 	tbb	[pc, r4]
 8005456:	0c04      	.short	0x0c04
 8005458:	332b231a 	.word	0x332b231a
 800545c:	403b      	.short	0x403b
 800545e:	2401      	movs	r4, #1
 8005460:	f8d0 33d8 	ldr.w	r3, [r0, #984]	; 0x3d8
 8005464:	2102      	movs	r1, #2
 8005466:	4798      	blx	r3
 8005468:	70f4      	strb	r4, [r6, #3]
 800546a:	4620      	mov	r0, r4
 800546c:	bd70      	pop	{r4, r5, r6, pc}
 800546e:	f000 fb25 	bl	8005abc <USBH_HUB_GetDescriptor>
 8005472:	b108      	cbz	r0, 8005478 <USBH_HUB_ClassRequest+0x36>
 8005474:	2401      	movs	r4, #1
 8005476:	e7f8      	b.n	800546a <USBH_HUB_ClassRequest+0x28>
 8005478:	f505 718e 	add.w	r1, r5, #284	; 0x11c
 800547c:	f106 0016 	add.w	r0, r6, #22
 8005480:	f000 fbdb 	bl	8005c3a <USBH_HUB_ParseHubDescriptor>
 8005484:	2302      	movs	r3, #2
 8005486:	70f3      	strb	r3, [r6, #3]
 8005488:	e7ef      	b.n	800546a <USBH_HUB_ClassRequest+0x28>
 800548a:	2201      	movs	r2, #1
 800548c:	2108      	movs	r1, #8
 800548e:	f000 fb5b 	bl	8005b48 <USBH_HUB_SetPortFeature>
 8005492:	2800      	cmp	r0, #0
 8005494:	d1ee      	bne.n	8005474 <USBH_HUB_ClassRequest+0x32>
 8005496:	2303      	movs	r3, #3
 8005498:	70f3      	strb	r3, [r6, #3]
 800549a:	e7eb      	b.n	8005474 <USBH_HUB_ClassRequest+0x32>
 800549c:	2202      	movs	r2, #2
 800549e:	2108      	movs	r1, #8
 80054a0:	f000 fb52 	bl	8005b48 <USBH_HUB_SetPortFeature>
 80054a4:	2800      	cmp	r0, #0
 80054a6:	d1e5      	bne.n	8005474 <USBH_HUB_ClassRequest+0x32>
 80054a8:	2304      	movs	r3, #4
 80054aa:	e7f5      	b.n	8005498 <USBH_HUB_ClassRequest+0x56>
 80054ac:	2203      	movs	r2, #3
 80054ae:	2108      	movs	r1, #8
 80054b0:	f000 fb4a 	bl	8005b48 <USBH_HUB_SetPortFeature>
 80054b4:	2800      	cmp	r0, #0
 80054b6:	d1dd      	bne.n	8005474 <USBH_HUB_ClassRequest+0x32>
 80054b8:	2305      	movs	r3, #5
 80054ba:	e7ed      	b.n	8005498 <USBH_HUB_ClassRequest+0x56>
 80054bc:	2204      	movs	r2, #4
 80054be:	2108      	movs	r1, #8
 80054c0:	f000 fb42 	bl	8005b48 <USBH_HUB_SetPortFeature>
 80054c4:	2800      	cmp	r0, #0
 80054c6:	d1d5      	bne.n	8005474 <USBH_HUB_ClassRequest+0x32>
 80054c8:	2306      	movs	r3, #6
 80054ca:	e7e5      	b.n	8005498 <USBH_HUB_ClassRequest+0x56>
 80054cc:	7f30      	ldrb	r0, [r6, #28]
 80054ce:	f7fb ff91 	bl	80013f4 <HAL_Delay>
 80054d2:	2307      	movs	r3, #7
 80054d4:	e7e0      	b.n	8005498 <USBH_HUB_ClassRequest+0x56>
 80054d6:	f890 332d 	ldrb.w	r3, [r0, #813]	; 0x32d
 80054da:	2400      	movs	r4, #0
 80054dc:	7183      	strb	r3, [r0, #6]
 80054de:	f241 033a 	movw	r3, #4154	; 0x103a
 80054e2:	52f4      	strh	r4, [r6, r3]
 80054e4:	e7c1      	b.n	800546a <USBH_HUB_ClassRequest+0x28>

080054e6 <USBH_HUB_InterfaceInit>:
 80054e6:	f8d0 1380 	ldr.w	r1, [r0, #896]	; 0x380
 80054ea:	2300      	movs	r3, #0
 80054ec:	e92d 41f0 	stmdb	sp!, {r4, r5, r6, r7, r8, lr}
 80054f0:	461a      	mov	r2, r3
 80054f2:	7909      	ldrb	r1, [r1, #4]
 80054f4:	4607      	mov	r7, r0
 80054f6:	f000 ff7c 	bl	80063f2 <USBH_FindInterface>
 80054fa:	2801      	cmp	r0, #1
 80054fc:	4605      	mov	r5, r0
 80054fe:	d903      	bls.n	8005508 <USBH_HUB_InterfaceInit+0x22>
 8005500:	2602      	movs	r6, #2
 8005502:	4630      	mov	r0, r6
 8005504:	e8bd 81f0 	ldmia.w	sp!, {r4, r5, r6, r7, r8, pc}
 8005508:	4601      	mov	r1, r0
 800550a:	4638      	mov	r0, r7
 800550c:	f000 ff68 	bl	80063e0 <USBH_SelectInterface>
 8005510:	4606      	mov	r6, r0
 8005512:	2800      	cmp	r0, #0
 8005514:	d1f4      	bne.n	8005500 <USBH_HUB_InterfaceInit+0x1a>
 8005516:	f8d7 8380 	ldr.w	r8, [r7, #896]	; 0x380
 800551a:	f241 003c 	movw	r0, #4156	; 0x103c
 800551e:	f001 fe83 	bl	8007228 <malloc>
 8005522:	4604      	mov	r4, r0
 8005524:	f8c8 0020 	str.w	r0, [r8, #32]
 8005528:	2800      	cmp	r0, #0
 800552a:	d0e9      	beq.n	8005500 <USBH_HUB_InterfaceInit+0x1a>
 800552c:	f241 023c 	movw	r2, #4156	; 0x103c
 8005530:	4631      	mov	r1, r6
 8005532:	f001 fe89 	bl	8007248 <memset>
 8005536:	201a      	movs	r0, #26
 8005538:	7026      	strb	r6, [r4, #0]
 800553a:	fb00 7505 	mla	r5, r0, r5, r7
 800553e:	70e6      	strb	r6, [r4, #3]
 8005540:	f895 334e 	ldrb.w	r3, [r5, #846]	; 0x34e
 8005544:	f8b5 2350 	ldrh.w	r2, [r5, #848]	; 0x350
 8005548:	72a3      	strb	r3, [r4, #10]
 800554a:	70a3      	strb	r3, [r4, #2]
 800554c:	f895 3352 	ldrb.w	r3, [r5, #850]	; 0x352
 8005550:	8122      	strh	r2, [r4, #8]
 8005552:	2201      	movs	r2, #1
 8005554:	81a3      	strh	r3, [r4, #12]
 8005556:	f241 0339 	movw	r3, #4153	; 0x1039
 800555a:	54e2      	strb	r2, [r4, r3]
 800555c:	e7d1      	b.n	8005502 <USBH_HUB_InterfaceInit+0x1c>

0800555e <USBH_Next_Interface_Port>:
 800555e:	f891 202a 	ldrb.w	r2, [r1, #42]	; 0x2a
 8005562:	f8d0 3380 	ldr.w	r3, [r0, #896]	; 0x380
 8005566:	2a01      	cmp	r2, #1
 8005568:	6a1b      	ldr	r3, [r3, #32]
 800556a:	d90f      	bls.n	800558c <USBH_Next_Interface_Port+0x2e>
 800556c:	f241 023b 	movw	r2, #4155	; 0x103b
 8005570:	5c99      	ldrb	r1, [r3, r2]
 8005572:	b911      	cbnz	r1, 800557a <USBH_Next_Interface_Port+0x1c>
 8005574:	2101      	movs	r1, #1
 8005576:	5499      	strb	r1, [r3, r2]
 8005578:	4770      	bx	lr
 800557a:	2000      	movs	r0, #0
 800557c:	f241 013a 	movw	r1, #4154	; 0x103a
 8005580:	5498      	strb	r0, [r3, r2]
 8005582:	5c5a      	ldrb	r2, [r3, r1]
 8005584:	2a03      	cmp	r2, #3
 8005586:	d109      	bne.n	800559c <USBH_Next_Interface_Port+0x3e>
 8005588:	5458      	strb	r0, [r3, r1]
 800558a:	4770      	bx	lr
 800558c:	f241 013a 	movw	r1, #4154	; 0x103a
 8005590:	5c5a      	ldrb	r2, [r3, r1]
 8005592:	2a03      	cmp	r2, #3
 8005594:	d102      	bne.n	800559c <USBH_Next_Interface_Port+0x3e>
 8005596:	2200      	movs	r2, #0
 8005598:	545a      	strb	r2, [r3, r1]
 800559a:	4770      	bx	lr
 800559c:	3201      	adds	r2, #1
 800559e:	e7fb      	b.n	8005598 <USBH_Next_Interface_Port+0x3a>

080055a0 <USBH_HUB_SOFProcess>:
 80055a0:	b538      	push	{r3, r4, r5, lr}
 80055a2:	f8d0 3380 	ldr.w	r3, [r0, #896]	; 0x380
 80055a6:	f44f 7271 	mov.w	r2, #964	; 0x3c4
 80055aa:	6a19      	ldr	r1, [r3, #32]
 80055ac:	f241 033a 	movw	r3, #4154	; 0x103a
 80055b0:	5ccb      	ldrb	r3, [r1, r3]
 80055b2:	435a      	muls	r2, r3
 80055b4:	188b      	adds	r3, r1, r2
 80055b6:	f893 312e 	ldrb.w	r3, [r3, #302]	; 0x12e
 80055ba:	2b16      	cmp	r3, #22
 80055bc:	d11b      	bne.n	80055f6 <USBH_HUB_SOFProcess+0x56>
 80055be:	f241 033b 	movw	r3, #4155	; 0x103b
 80055c2:	256c      	movs	r5, #108	; 0x6c
 80055c4:	5ccb      	ldrb	r3, [r1, r3]
 80055c6:	fb05 2303 	mla	r3, r5, r3, r2
 80055ca:	440b      	add	r3, r1
 80055cc:	f893 5210 	ldrb.w	r5, [r3, #528]	; 0x210
 80055d0:	2d02      	cmp	r5, #2
 80055d2:	d110      	bne.n	80055f6 <USBH_HUB_SOFProcess+0x56>
 80055d4:	f8d3 5218 	ldr.w	r5, [r3, #536]	; 0x218
 80055d8:	f8d0 43c8 	ldr.w	r4, [r0, #968]	; 0x3c8
 80055dc:	1b64      	subs	r4, r4, r5
 80055de:	f8b3 5216 	ldrh.w	r5, [r3, #534]	; 0x216
 80055e2:	42ac      	cmp	r4, r5
 80055e4:	d907      	bls.n	80055f6 <USBH_HUB_SOFProcess+0x56>
 80055e6:	2401      	movs	r4, #1
 80055e8:	f502 7294 	add.w	r2, r2, #296	; 0x128
 80055ec:	f883 4210 	strb.w	r4, [r3, #528]	; 0x210
 80055f0:	4411      	add	r1, r2
 80055f2:	f7ff ffb4 	bl	800555e <USBH_Next_Interface_Port>
 80055f6:	2000      	movs	r0, #0
 80055f8:	bd38      	pop	{r3, r4, r5, pc}
	...

080055fc <USBH_HUB_GamepadInit>:
 80055fc:	b538      	push	{r3, r4, r5, lr}
 80055fe:	6e83      	ldr	r3, [r0, #104]	; 0x68
 8005600:	4604      	mov	r4, r0
 8005602:	7b1d      	ldrb	r5, [r3, #12]
 8005604:	eb05 0085 	add.w	r0, r5, r5, lsl #2
 8005608:	eb05 0585 	add.w	r5, r5, r5, lsl #2
 800560c:	0040      	lsls	r0, r0, #1
 800560e:	f001 fe0b 	bl	8007228 <malloc>
 8005612:	f104 0218 	add.w	r2, r4, #24
 8005616:	4b06      	ldr	r3, [pc, #24]	; (8005630 <USBH_HUB_GamepadInit+0x34>)
 8005618:	4601      	mov	r1, r0
 800561a:	6660      	str	r0, [r4, #100]	; 0x64
 800561c:	f104 0058 	add.w	r0, r4, #88	; 0x58
 8005620:	601a      	str	r2, [r3, #0]
 8005622:	006a      	lsls	r2, r5, #1
 8005624:	f7ff f8a4 	bl	8004770 <USBH_HID_FifoInit>
 8005628:	2303      	movs	r3, #3
 800562a:	2000      	movs	r0, #0
 800562c:	7063      	strb	r3, [r4, #1]
 800562e:	bd38      	pop	{r3, r4, r5, pc}
 8005630:	20000118 	.word	0x20000118

08005634 <USBH_HUB_GetGamepadInfo>:
 8005634:	88c2      	ldrh	r2, [r0, #6]
 8005636:	e92d 4ff0 	stmdb	sp!, {r4, r5, r6, r7, r8, r9, sl, fp, lr}
 800563a:	4604      	mov	r4, r0
 800563c:	b091      	sub	sp, #68	; 0x44
 800563e:	b91a      	cbnz	r2, 8005648 <USBH_HUB_GetGamepadInfo+0x14>
 8005640:	2000      	movs	r0, #0
 8005642:	b011      	add	sp, #68	; 0x44
 8005644:	e8bd 8ff0 	ldmia.w	sp!, {r4, r5, r6, r7, r8, r9, sl, fp, pc}
 8005648:	4d6f      	ldr	r5, [pc, #444]	; (8005808 <USBH_HUB_GetGamepadInfo+0x1d4>)
 800564a:	3058      	adds	r0, #88	; 0x58
 800564c:	6829      	ldr	r1, [r5, #0]
 800564e:	f7ff f895 	bl	800477c <USBH_HID_FifoRead>
 8005652:	88e3      	ldrh	r3, [r4, #6]
 8005654:	4283      	cmp	r3, r0
 8005656:	d1f3      	bne.n	8005640 <USBH_HUB_GetGamepadInfo+0xc>
 8005658:	6ea7      	ldr	r7, [r4, #104]	; 0x68
 800565a:	aa02      	add	r2, sp, #8
 800565c:	f107 030a 	add.w	r3, r7, #10
 8005660:	f107 0c3a 	add.w	ip, r7, #58	; 0x3a
 8005664:	4614      	mov	r4, r2
 8005666:	6818      	ldr	r0, [r3, #0]
 8005668:	3308      	adds	r3, #8
 800566a:	f853 1c04 	ldr.w	r1, [r3, #-4]
 800566e:	4616      	mov	r6, r2
 8005670:	4563      	cmp	r3, ip
 8005672:	c603      	stmia	r6!, {r0, r1}
 8005674:	4632      	mov	r2, r6
 8005676:	d1f6      	bne.n	8005666 <USBH_HUB_GetGamepadInfo+0x32>
 8005678:	6818      	ldr	r0, [r3, #0]
 800567a:	6030      	str	r0, [r6, #0]
 800567c:	889b      	ldrh	r3, [r3, #4]
 800567e:	80b3      	strh	r3, [r6, #4]
 8005680:	682e      	ldr	r6, [r5, #0]
 8005682:	7afb      	ldrb	r3, [r7, #11]
 8005684:	2701      	movs	r7, #1
 8005686:	f8bd 2016 	ldrh.w	r2, [sp, #22]
 800568a:	2b00      	cmp	r3, #0
 800568c:	bf18      	it	ne
 800568e:	3601      	addne	r6, #1
 8005690:	f8bd 3014 	ldrh.w	r3, [sp, #20]
 8005694:	f8bd 1010 	ldrh.w	r1, [sp, #16]
 8005698:	429a      	cmp	r2, r3
 800569a:	4630      	mov	r0, r6
 800569c:	f89d 2012 	ldrb.w	r2, [sp, #18]
 80056a0:	bf2c      	ite	cs
 80056a2:	2300      	movcs	r3, #0
 80056a4:	2301      	movcc	r3, #1
 80056a6:	f7ff fac3 	bl	8004c30 <collect_bits>
 80056aa:	f8bd 301e 	ldrh.w	r3, [sp, #30]
 80056ae:	f8bd 201c 	ldrh.w	r2, [sp, #28]
 80056b2:	f8bd 1018 	ldrh.w	r1, [sp, #24]
 80056b6:	429a      	cmp	r2, r3
 80056b8:	f8ad 0004 	strh.w	r0, [sp, #4]
 80056bc:	f89d 201a 	ldrb.w	r2, [sp, #26]
 80056c0:	4630      	mov	r0, r6
 80056c2:	bf94      	ite	ls
 80056c4:	2300      	movls	r3, #0
 80056c6:	2301      	movhi	r3, #1
 80056c8:	f7ff fab2 	bl	8004c30 <collect_bits>
 80056cc:	2200      	movs	r2, #0
 80056ce:	f8ad 0006 	strh.w	r0, [sp, #6]
 80056d2:	4621      	mov	r1, r4
 80056d4:	4620      	mov	r0, r4
 80056d6:	4615      	mov	r5, r2
 80056d8:	7e0b      	ldrb	r3, [r1, #24]
 80056da:	3102      	adds	r1, #2
 80056dc:	f816 c003 	ldrb.w	ip, [r6, r3]
 80056e0:	7dcb      	ldrb	r3, [r1, #23]
 80056e2:	ea1c 0f03 	tst.w	ip, r3
 80056e6:	bf18      	it	ne
 80056e8:	fa07 f302 	lslne.w	r3, r7, r2
 80056ec:	f102 0201 	add.w	r2, r2, #1
 80056f0:	bf1c      	itt	ne
 80056f2:	432b      	orrne	r3, r5
 80056f4:	b2dd      	uxtbne	r5, r3
 80056f6:	2a04      	cmp	r2, #4
 80056f8:	d1ee      	bne.n	80056d8 <USBH_HUB_GetGamepadInfo+0xa4>
 80056fa:	2300      	movs	r3, #0
 80056fc:	4622      	mov	r2, r4
 80056fe:	2701      	movs	r7, #1
 8005700:	461c      	mov	r4, r3
 8005702:	f892 1020 	ldrb.w	r1, [r2, #32]
 8005706:	3202      	adds	r2, #2
 8005708:	f816 c001 	ldrb.w	ip, [r6, r1]
 800570c:	7fd1      	ldrb	r1, [r2, #31]
 800570e:	ea1c 0f01 	tst.w	ip, r1
 8005712:	bf18      	it	ne
 8005714:	fa07 f103 	lslne.w	r1, r7, r3
 8005718:	f103 0301 	add.w	r3, r3, #1
 800571c:	bf1c      	itt	ne
 800571e:	430c      	orrne	r4, r1
 8005720:	b2e4      	uxtbne	r4, r4
 8005722:	2b08      	cmp	r3, #8
 8005724:	d1ed      	bne.n	8005702 <USBH_HUB_GetGamepadInfo+0xce>
 8005726:	2600      	movs	r6, #0
 8005728:	ab01      	add	r3, sp, #4
 800572a:	277e      	movs	r7, #126	; 0x7e
 800572c:	f04f 0e7f 	mov.w	lr, #127	; 0x7f
 8005730:	46b4      	mov	ip, r6
 8005732:	f64f 7881 	movw	r8, #65409	; 0xff81
 8005736:	f8b0 b00c 	ldrh.w	fp, [r0, #12]
 800573a:	f8b0 900e 	ldrh.w	r9, [r0, #14]
 800573e:	f933 ab02 	ldrsh.w	sl, [r3], #2
 8005742:	eba9 010b 	sub.w	r1, r9, fp
 8005746:	45d3      	cmp	fp, sl
 8005748:	eb01 72d1 	add.w	r2, r1, r1, lsr #31
 800574c:	fb91 f1f7 	sdiv	r1, r1, r7
 8005750:	ea4f 0262 	mov.w	r2, r2, asr #1
 8005754:	dd3c      	ble.n	80057d0 <USBH_HUB_GetGamepadInfo+0x19c>
 8005756:	f823 bc02 	strh.w	fp, [r3, #-2]
 800575a:	eb09 0a0b 	add.w	sl, r9, fp
 800575e:	f833 9c02 	ldrh.w	r9, [r3, #-2]
 8005762:	eba9 095a 	sub.w	r9, r9, sl, lsr #1
 8005766:	eba2 0a01 	sub.w	sl, r2, r1
 800576a:	424a      	negs	r2, r1
 800576c:	fa1f fb89 	uxth.w	fp, r9
 8005770:	fa0f f989 	sxth.w	r9, r9
 8005774:	4591      	cmp	r9, r2
 8005776:	da30      	bge.n	80057da <USBH_HUB_GetGamepadInfo+0x1a6>
 8005778:	4459      	add	r1, fp
 800577a:	f823 1c02 	strh.w	r1, [r3, #-2]
 800577e:	f933 2c02 	ldrsh.w	r2, [r3, #-2]
 8005782:	ebc2 12c2 	rsb	r2, r2, r2, lsl #7
 8005786:	fb92 f2fa 	sdiv	r2, r2, sl
 800578a:	b212      	sxth	r2, r2
 800578c:	f112 0f7f 	cmn.w	r2, #127	; 0x7f
 8005790:	da2b      	bge.n	80057ea <USBH_HUB_GetGamepadInfo+0x1b6>
 8005792:	f823 8c02 	strh.w	r8, [r3, #-2]
 8005796:	f833 2c02 	ldrh.w	r2, [r3, #-2]
 800579a:	3008      	adds	r0, #8
 800579c:	327f      	adds	r2, #127	; 0x7f
 800579e:	f823 2c02 	strh.w	r2, [r3, #-2]
 80057a2:	b19e      	cbz	r6, 80057cc <USBH_HUB_GetGamepadInfo+0x198>
 80057a4:	f9bd 3004 	ldrsh.w	r3, [sp, #4]
 80057a8:	2b3f      	cmp	r3, #63	; 0x3f
 80057aa:	dd25      	ble.n	80057f8 <USBH_HUB_GetGamepadInfo+0x1c4>
 80057ac:	2bc0      	cmp	r3, #192	; 0xc0
 80057ae:	bfd4      	ite	le
 80057b0:	2300      	movle	r3, #0
 80057b2:	2301      	movgt	r3, #1
 80057b4:	f9bd 2006 	ldrsh.w	r2, [sp, #6]
 80057b8:	2a3f      	cmp	r2, #63	; 0x3f
 80057ba:	dc1f      	bgt.n	80057fc <USBH_HUB_GetGamepadInfo+0x1c8>
 80057bc:	f043 0308 	orr.w	r3, r3, #8
 80057c0:	4812      	ldr	r0, [pc, #72]	; (800580c <USBH_HUB_GetGamepadInfo+0x1d8>)
 80057c2:	ea43 1305 	orr.w	r3, r3, r5, lsl #4
 80057c6:	7044      	strb	r4, [r0, #1]
 80057c8:	7003      	strb	r3, [r0, #0]
 80057ca:	e73a      	b.n	8005642 <USBH_HUB_GetGamepadInfo+0xe>
 80057cc:	2601      	movs	r6, #1
 80057ce:	e7b2      	b.n	8005736 <USBH_HUB_GetGamepadInfo+0x102>
 80057d0:	45d1      	cmp	r9, sl
 80057d2:	bfb8      	it	lt
 80057d4:	f823 9c02 	strhlt.w	r9, [r3, #-2]
 80057d8:	e7bf      	b.n	800575a <USBH_HUB_GetGamepadInfo+0x126>
 80057da:	4549      	cmp	r1, r9
 80057dc:	da02      	bge.n	80057e4 <USBH_HUB_GetGamepadInfo+0x1b0>
 80057de:	ebab 0101 	sub.w	r1, fp, r1
 80057e2:	e7ca      	b.n	800577a <USBH_HUB_GetGamepadInfo+0x146>
 80057e4:	f823 cc02 	strh.w	ip, [r3, #-2]
 80057e8:	e7c9      	b.n	800577e <USBH_HUB_GetGamepadInfo+0x14a>
 80057ea:	2a7f      	cmp	r2, #127	; 0x7f
 80057ec:	bfd4      	ite	le
 80057ee:	f823 2c02 	strhle.w	r2, [r3, #-2]
 80057f2:	f823 ec02 	strhgt.w	lr, [r3, #-2]
 80057f6:	e7ce      	b.n	8005796 <USBH_HUB_GetGamepadInfo+0x162>
 80057f8:	2302      	movs	r3, #2
 80057fa:	e7db      	b.n	80057b4 <USBH_HUB_GetGamepadInfo+0x180>
 80057fc:	2ac0      	cmp	r2, #192	; 0xc0
 80057fe:	bfc8      	it	gt
 8005800:	f043 0304 	orrgt.w	r3, r3, #4
 8005804:	e7dc      	b.n	80057c0 <USBH_HUB_GetGamepadInfo+0x18c>
 8005806:	bf00      	nop
 8005808:	20000118 	.word	0x20000118
 800580c:	20000550 	.word	0x20000550

08005810 <USBH_HUB_KeybdInit>:
 8005810:	2300      	movs	r3, #0
 8005812:	4a13      	ldr	r2, [pc, #76]	; (8005860 <USBH_HUB_KeybdInit+0x50>)
 8005814:	4913      	ldr	r1, [pc, #76]	; (8005864 <USBH_HUB_KeybdInit+0x54>)
 8005816:	b510      	push	{r4, lr}
 8005818:	7193      	strb	r3, [r2, #6]
 800581a:	4604      	mov	r4, r0
 800581c:	71d3      	strb	r3, [r2, #7]
 800581e:	7213      	strb	r3, [r2, #8]
 8005820:	7093      	strb	r3, [r2, #2]
 8005822:	7053      	strb	r3, [r2, #1]
 8005824:	7113      	strb	r3, [r2, #4]
 8005826:	70d3      	strb	r3, [r2, #3]
 8005828:	7153      	strb	r3, [r2, #5]
 800582a:	4a0f      	ldr	r2, [pc, #60]	; (8005868 <USBH_HUB_KeybdInit+0x58>)
 800582c:	600b      	str	r3, [r1, #0]
 800582e:	6013      	str	r3, [r2, #0]
 8005830:	604b      	str	r3, [r1, #4]
 8005832:	6053      	str	r3, [r2, #4]
 8005834:	88c3      	ldrh	r3, [r0, #6]
 8005836:	2b08      	cmp	r3, #8
 8005838:	bf84      	itt	hi
 800583a:	2308      	movhi	r3, #8
 800583c:	80c3      	strhhi	r3, [r0, #6]
 800583e:	88c3      	ldrh	r3, [r0, #6]
 8005840:	200a      	movs	r0, #10
 8005842:	4358      	muls	r0, r3
 8005844:	f001 fcf0 	bl	8007228 <malloc>
 8005848:	2250      	movs	r2, #80	; 0x50
 800584a:	4601      	mov	r1, r0
 800584c:	6660      	str	r0, [r4, #100]	; 0x64
 800584e:	f104 0058 	add.w	r0, r4, #88	; 0x58
 8005852:	f7fe ff8d 	bl	8004770 <USBH_HID_FifoInit>
 8005856:	2301      	movs	r3, #1
 8005858:	2000      	movs	r0, #0
 800585a:	7063      	strb	r3, [r4, #1]
 800585c:	bd10      	pop	{r4, pc}
 800585e:	bf00      	nop
 8005860:	20000554 	.word	0x20000554
 8005864:	2000056c 	.word	0x2000056c
 8005868:	20000564 	.word	0x20000564

0800586c <USBH_HUB_KeybdDecode>:
 800586c:	88c2      	ldrh	r2, [r0, #6]
 800586e:	b570      	push	{r4, r5, r6, lr}
 8005870:	4604      	mov	r4, r0
 8005872:	2a00      	cmp	r2, #0
 8005874:	d04d      	beq.n	8005912 <USBH_HUB_KeybdDecode+0xa6>
 8005876:	4d28      	ldr	r5, [pc, #160]	; (8005918 <USBH_HUB_KeybdDecode+0xac>)
 8005878:	3058      	adds	r0, #88	; 0x58
 800587a:	4629      	mov	r1, r5
 800587c:	f7fe ff7e 	bl	800477c <USBH_HID_FifoRead>
 8005880:	88e3      	ldrh	r3, [r4, #6]
 8005882:	4283      	cmp	r3, r0
 8005884:	d145      	bne.n	8005912 <USBH_HUB_KeybdDecode+0xa6>
 8005886:	682a      	ldr	r2, [r5, #0]
 8005888:	4b24      	ldr	r3, [pc, #144]	; (800591c <USBH_HUB_KeybdDecode+0xb0>)
 800588a:	429a      	cmp	r2, r3
 800588c:	d103      	bne.n	8005896 <USBH_HUB_KeybdDecode+0x2a>
 800588e:	686b      	ldr	r3, [r5, #4]
 8005890:	f1b3 3f01 	cmp.w	r3, #16843009	; 0x1010101
 8005894:	d03d      	beq.n	8005912 <USBH_HUB_KeybdDecode+0xa6>
 8005896:	4c22      	ldr	r4, [pc, #136]	; (8005920 <USBH_HUB_KeybdDecode+0xb4>)
 8005898:	2100      	movs	r1, #0
 800589a:	4822      	ldr	r0, [pc, #136]	; (8005924 <USBH_HUB_KeybdDecode+0xb8>)
 800589c:	2500      	movs	r5, #0
 800589e:	f7ff facb 	bl	8004e38 <HID_ReadItem>
 80058a2:	2100      	movs	r1, #0
 80058a4:	7060      	strb	r0, [r4, #1]
 80058a6:	3409      	adds	r4, #9
 80058a8:	481f      	ldr	r0, [pc, #124]	; (8005928 <USBH_HUB_KeybdDecode+0xbc>)
 80058aa:	f7ff fac5 	bl	8004e38 <HID_ReadItem>
 80058ae:	2100      	movs	r1, #0
 80058b0:	f804 0c07 	strb.w	r0, [r4, #-7]
 80058b4:	481d      	ldr	r0, [pc, #116]	; (800592c <USBH_HUB_KeybdDecode+0xc0>)
 80058b6:	f7ff fabf 	bl	8004e38 <HID_ReadItem>
 80058ba:	2100      	movs	r1, #0
 80058bc:	f804 0c06 	strb.w	r0, [r4, #-6]
 80058c0:	481b      	ldr	r0, [pc, #108]	; (8005930 <USBH_HUB_KeybdDecode+0xc4>)
 80058c2:	f7ff fab9 	bl	8004e38 <HID_ReadItem>
 80058c6:	2100      	movs	r1, #0
 80058c8:	f804 0c05 	strb.w	r0, [r4, #-5]
 80058cc:	4819      	ldr	r0, [pc, #100]	; (8005934 <USBH_HUB_KeybdDecode+0xc8>)
 80058ce:	f7ff fab3 	bl	8004e38 <HID_ReadItem>
 80058d2:	2100      	movs	r1, #0
 80058d4:	f804 0c04 	strb.w	r0, [r4, #-4]
 80058d8:	4817      	ldr	r0, [pc, #92]	; (8005938 <USBH_HUB_KeybdDecode+0xcc>)
 80058da:	f7ff faad 	bl	8004e38 <HID_ReadItem>
 80058de:	2100      	movs	r1, #0
 80058e0:	f804 0c03 	strb.w	r0, [r4, #-3]
 80058e4:	4815      	ldr	r0, [pc, #84]	; (800593c <USBH_HUB_KeybdDecode+0xd0>)
 80058e6:	f7ff faa7 	bl	8004e38 <HID_ReadItem>
 80058ea:	2100      	movs	r1, #0
 80058ec:	f804 0c02 	strb.w	r0, [r4, #-2]
 80058f0:	4813      	ldr	r0, [pc, #76]	; (8005940 <USBH_HUB_KeybdDecode+0xd4>)
 80058f2:	f7ff faa1 	bl	8004e38 <HID_ReadItem>
 80058f6:	4e13      	ldr	r6, [pc, #76]	; (8005944 <USBH_HUB_KeybdDecode+0xd8>)
 80058f8:	f804 0c01 	strb.w	r0, [r4, #-1]
 80058fc:	b2e9      	uxtb	r1, r5
 80058fe:	3501      	adds	r5, #1
 8005900:	4630      	mov	r0, r6
 8005902:	f7ff fa99 	bl	8004e38 <HID_ReadItem>
 8005906:	2d06      	cmp	r5, #6
 8005908:	f804 0b01 	strb.w	r0, [r4], #1
 800590c:	d1f6      	bne.n	80058fc <USBH_HUB_KeybdDecode+0x90>
 800590e:	2000      	movs	r0, #0
 8005910:	bd70      	pop	{r4, r5, r6, pc}
 8005912:	2002      	movs	r0, #2
 8005914:	e7fc      	b.n	8005910 <USBH_HUB_KeybdDecode+0xa4>
 8005916:	bf00      	nop
 8005918:	2000056c 	.word	0x2000056c
 800591c:	01010000 	.word	0x01010000
 8005920:	20000554 	.word	0x20000554
 8005924:	080076ac 	.word	0x080076ac
 8005928:	080076ec 	.word	0x080076ec
 800592c:	0800768c 	.word	0x0800768c
 8005930:	080076cc 	.word	0x080076cc
 8005934:	0800772c 	.word	0x0800772c
 8005938:	0800776c 	.word	0x0800776c
 800593c:	0800770c 	.word	0x0800770c
 8005940:	0800774c 	.word	0x0800774c
 8005944:	0800766c 	.word	0x0800766c

08005948 <USBH_HUB_GetKeybdInfo>:
 8005948:	b508      	push	{r3, lr}
 800594a:	f7ff ff8f 	bl	800586c <USBH_HUB_KeybdDecode>
 800594e:	2800      	cmp	r0, #0
 8005950:	4801      	ldr	r0, [pc, #4]	; (8005958 <USBH_HUB_GetKeybdInfo+0x10>)
 8005952:	bf18      	it	ne
 8005954:	2000      	movne	r0, #0
 8005956:	bd08      	pop	{r3, pc}
 8005958:	20000554 	.word	0x20000554

0800595c <USBH_HUB_MouseInit>:
 800595c:	b570      	push	{r4, r5, r6, lr}
 800595e:	4b10      	ldr	r3, [pc, #64]	; (80059a0 <USBH_HUB_MouseInit+0x44>)
 8005960:	2400      	movs	r4, #0
 8005962:	4a10      	ldr	r2, [pc, #64]	; (80059a4 <USBH_HUB_MouseInit+0x48>)
 8005964:	4606      	mov	r6, r0
 8005966:	719c      	strb	r4, [r3, #6]
 8005968:	7014      	strb	r4, [r2, #0]
 800596a:	7054      	strb	r4, [r2, #1]
 800596c:	88c5      	ldrh	r5, [r0, #6]
 800596e:	200a      	movs	r0, #10
 8005970:	801c      	strh	r4, [r3, #0]
 8005972:	805c      	strh	r4, [r3, #2]
 8005974:	809c      	strh	r4, [r3, #4]
 8005976:	4b0c      	ldr	r3, [pc, #48]	; (80059a8 <USBH_HUB_MouseInit+0x4c>)
 8005978:	4368      	muls	r0, r5
 800597a:	601c      	str	r4, [r3, #0]
 800597c:	605c      	str	r4, [r3, #4]
 800597e:	f001 fc53 	bl	8007228 <malloc>
 8005982:	eb05 0285 	add.w	r2, r5, r5, lsl #2
 8005986:	4601      	mov	r1, r0
 8005988:	6670      	str	r0, [r6, #100]	; 0x64
 800598a:	f106 0058 	add.w	r0, r6, #88	; 0x58
 800598e:	0052      	lsls	r2, r2, #1
 8005990:	b292      	uxth	r2, r2
 8005992:	f7fe feed 	bl	8004770 <USBH_HID_FifoInit>
 8005996:	2302      	movs	r3, #2
 8005998:	4620      	mov	r0, r4
 800599a:	7073      	strb	r3, [r6, #1]
 800599c:	bd70      	pop	{r4, r5, r6, pc}
 800599e:	bf00      	nop
 80059a0:	2000057c 	.word	0x2000057c
 80059a4:	20000574 	.word	0x20000574
 80059a8:	20000584 	.word	0x20000584

080059ac <USBH_HUB_MouseDecode>:
 80059ac:	88c3      	ldrh	r3, [r0, #6]
 80059ae:	b5f7      	push	{r0, r1, r2, r4, r5, r6, r7, lr}
 80059b0:	4606      	mov	r6, r0
 80059b2:	b913      	cbnz	r3, 80059ba <USBH_HUB_MouseDecode+0xe>
 80059b4:	2002      	movs	r0, #2
 80059b6:	b003      	add	sp, #12
 80059b8:	bdf0      	pop	{r4, r5, r6, r7, pc}
 80059ba:	4d39      	ldr	r5, [pc, #228]	; (8005aa0 <USBH_HUB_MouseDecode+0xf4>)
 80059bc:	2400      	movs	r4, #0
 80059be:	3058      	adds	r0, #88	; 0x58
 80059c0:	602c      	str	r4, [r5, #0]
 80059c2:	4629      	mov	r1, r5
 80059c4:	606c      	str	r4, [r5, #4]
 80059c6:	f830 2c52 	ldrh.w	r2, [r0, #-82]
 80059ca:	f7fe fed7 	bl	800477c <USBH_HID_FifoRead>
 80059ce:	2800      	cmp	r0, #0
 80059d0:	d0f0      	beq.n	80059b4 <USBH_HUB_MouseDecode+0x8>
 80059d2:	6eb0      	ldr	r0, [r6, #104]	; 0x68
 80059d4:	8ac3      	ldrh	r3, [r0, #22]
 80059d6:	7ac1      	ldrb	r1, [r0, #11]
 80059d8:	8b02      	ldrh	r2, [r0, #24]
 80059da:	42a1      	cmp	r1, r4
 80059dc:	bf18      	it	ne
 80059de:	3501      	addne	r5, #1
 80059e0:	8a41      	ldrh	r1, [r0, #18]
 80059e2:	429a      	cmp	r2, r3
 80059e4:	7d02      	ldrb	r2, [r0, #20]
 80059e6:	4628      	mov	r0, r5
 80059e8:	bf2c      	ite	cs
 80059ea:	2300      	movcs	r3, #0
 80059ec:	2301      	movcc	r3, #1
 80059ee:	f7ff f91f 	bl	8004c30 <collect_bits>
 80059f2:	6eb1      	ldr	r1, [r6, #104]	; 0x68
 80059f4:	b207      	sxth	r7, r0
 80059f6:	4628      	mov	r0, r5
 80059f8:	8c0b      	ldrh	r3, [r1, #32]
 80059fa:	8bca      	ldrh	r2, [r1, #30]
 80059fc:	f8ad 7004 	strh.w	r7, [sp, #4]
 8005a00:	429a      	cmp	r2, r3
 8005a02:	7f0a      	ldrb	r2, [r1, #28]
 8005a04:	8b49      	ldrh	r1, [r1, #26]
 8005a06:	bf94      	ite	ls
 8005a08:	2300      	movls	r3, #0
 8005a0a:	2301      	movhi	r3, #1
 8005a0c:	f7ff f910 	bl	8004c30 <collect_bits>
 8005a10:	6eb6      	ldr	r6, [r6, #104]	; 0x68
 8005a12:	b200      	sxth	r0, r0
 8005a14:	4623      	mov	r3, r4
 8005a16:	4631      	mov	r1, r6
 8005a18:	4622      	mov	r2, r4
 8005a1a:	f04f 0c01 	mov.w	ip, #1
 8005a1e:	f8ad 0006 	strh.w	r0, [sp, #6]
 8005a22:	f891 4022 	ldrb.w	r4, [r1, #34]	; 0x22
 8005a26:	3102      	adds	r1, #2
 8005a28:	f815 e004 	ldrb.w	lr, [r5, r4]
 8005a2c:	f891 4021 	ldrb.w	r4, [r1, #33]	; 0x21
 8005a30:	ea1e 0f04 	tst.w	lr, r4
 8005a34:	bf18      	it	ne
 8005a36:	fa0c f403 	lslne.w	r4, ip, r3
 8005a3a:	f103 0301 	add.w	r3, r3, #1
 8005a3e:	bf1c      	itt	ne
 8005a40:	4322      	orrne	r2, r4
 8005a42:	b2d2      	uxtbne	r2, r2
 8005a44:	2b04      	cmp	r3, #4
 8005a46:	d1ec      	bne.n	8005a22 <USBH_HUB_MouseDecode+0x76>
 8005a48:	7ab3      	ldrb	r3, [r6, #10]
 8005a4a:	f003 0303 	and.w	r3, r3, #3
 8005a4e:	2b01      	cmp	r3, #1
 8005a50:	d119      	bne.n	8005a86 <USBH_HUB_MouseDecode+0xda>
 8005a52:	2f7f      	cmp	r7, #127	; 0x7f
 8005a54:	dd19      	ble.n	8005a8a <USBH_HUB_MouseDecode+0xde>
 8005a56:	237f      	movs	r3, #127	; 0x7f
 8005a58:	f8ad 3004 	strh.w	r3, [sp, #4]
 8005a5c:	287f      	cmp	r0, #127	; 0x7f
 8005a5e:	dd19      	ble.n	8005a94 <USBH_HUB_MouseDecode+0xe8>
 8005a60:	237f      	movs	r3, #127	; 0x7f
 8005a62:	f8ad 3006 	strh.w	r3, [sp, #6]
 8005a66:	4b0f      	ldr	r3, [pc, #60]	; (8005aa4 <USBH_HUB_MouseDecode+0xf8>)
 8005a68:	f8bd 1004 	ldrh.w	r1, [sp, #4]
 8005a6c:	8019      	strh	r1, [r3, #0]
 8005a6e:	f8bd 1006 	ldrh.w	r1, [sp, #6]
 8005a72:	8059      	strh	r1, [r3, #2]
 8005a74:	f002 0101 	and.w	r1, r2, #1
 8005a78:	7119      	strb	r1, [r3, #4]
 8005a7a:	f3c2 0140 	ubfx	r1, r2, #1, #1
 8005a7e:	f3c2 0280 	ubfx	r2, r2, #2, #1
 8005a82:	7159      	strb	r1, [r3, #5]
 8005a84:	719a      	strb	r2, [r3, #6]
 8005a86:	2000      	movs	r0, #0
 8005a88:	e795      	b.n	80059b6 <USBH_HUB_MouseDecode+0xa>
 8005a8a:	3780      	adds	r7, #128	; 0x80
 8005a8c:	dae6      	bge.n	8005a5c <USBH_HUB_MouseDecode+0xb0>
 8005a8e:	f64f 7380 	movw	r3, #65408	; 0xff80
 8005a92:	e7e1      	b.n	8005a58 <USBH_HUB_MouseDecode+0xac>
 8005a94:	3080      	adds	r0, #128	; 0x80
 8005a96:	dae6      	bge.n	8005a66 <USBH_HUB_MouseDecode+0xba>
 8005a98:	f64f 7380 	movw	r3, #65408	; 0xff80
 8005a9c:	e7e1      	b.n	8005a62 <USBH_HUB_MouseDecode+0xb6>
 8005a9e:	bf00      	nop
 8005aa0:	20000574 	.word	0x20000574
 8005aa4:	2000057c 	.word	0x2000057c

08005aa8 <USBH_HUB_GetMouseInfo>:
 8005aa8:	b508      	push	{r3, lr}
 8005aaa:	f7ff ff7f 	bl	80059ac <USBH_HUB_MouseDecode>
 8005aae:	2800      	cmp	r0, #0
 8005ab0:	4801      	ldr	r0, [pc, #4]	; (8005ab8 <USBH_HUB_GetMouseInfo+0x10>)
 8005ab2:	bf18      	it	ne
 8005ab4:	2000      	movne	r0, #0
 8005ab6:	bd08      	pop	{r3, pc}
 8005ab8:	2000057c 	.word	0x2000057c

08005abc <USBH_HUB_GetDescriptor>:
 8005abc:	7883      	ldrb	r3, [r0, #2]
 8005abe:	f500 718e 	add.w	r1, r0, #284	; 0x11c
 8005ac2:	2b01      	cmp	r3, #1
 8005ac4:	bf02      	ittt	eq
 8005ac6:	4a04      	ldreq	r2, [pc, #16]	; (8005ad8 <USBH_HUB_GetDescriptor+0x1c>)
 8005ac8:	f44f 2320 	moveq.w	r3, #655360	; 0xa0000
 8005acc:	e9c0 2304 	strdeq	r2, r3, [r0, #16]
 8005ad0:	220a      	movs	r2, #10
 8005ad2:	f000 bf8c 	b.w	80069ee <USBH_CtlReq>
 8005ad6:	bf00      	nop
 8005ad8:	290006a0 	.word	0x290006a0

08005adc <USBH_HUB_GetPortStatus>:
 8005adc:	f8d0 3380 	ldr.w	r3, [r0, #896]	; 0x380
 8005ae0:	2204      	movs	r2, #4
 8005ae2:	b570      	push	{r4, r5, r6, lr}
 8005ae4:	6a1e      	ldr	r6, [r3, #32]
 8005ae6:	23a3      	movs	r3, #163	; 0xa3
 8005ae8:	7501      	strb	r1, [r0, #20]
 8005aea:	460c      	mov	r4, r1
 8005aec:	6103      	str	r3, [r0, #16]
 8005aee:	f106 0528 	add.w	r5, r6, #40	; 0x28
 8005af2:	2300      	movs	r3, #0
 8005af4:	82c2      	strh	r2, [r0, #22]
 8005af6:	4629      	mov	r1, r5
 8005af8:	7543      	strb	r3, [r0, #21]
 8005afa:	f000 ff78 	bl	80069ee <USBH_CtlReq>
 8005afe:	4602      	mov	r2, r0
 8005b00:	b9c8      	cbnz	r0, 8005b36 <USBH_HUB_GetPortStatus+0x5a>
 8005b02:	1e63      	subs	r3, r4, #1
 8005b04:	f44f 7171 	mov.w	r1, #964	; 0x3c4
 8005b08:	6ab0      	ldr	r0, [r6, #40]	; 0x28
 8005b0a:	fb01 6303 	mla	r3, r1, r3, r6
 8005b0e:	f8b3 4128 	ldrh.w	r4, [r3, #296]	; 0x128
 8005b12:	f8c3 0128 	str.w	r0, [r3, #296]	; 0x128
 8005b16:	b280      	uxth	r0, r0
 8005b18:	42a0      	cmp	r0, r4
 8005b1a:	d00c      	beq.n	8005b36 <USBH_HUB_GetPortStatus+0x5a>
 8005b1c:	f241 0138 	movw	r1, #4152	; 0x1038
 8005b20:	2001      	movs	r0, #1
 8005b22:	f014 0f01 	tst.w	r4, #1
 8005b26:	5470      	strb	r0, [r6, r1]
 8005b28:	f893 1128 	ldrb.w	r1, [r3, #296]	; 0x128
 8005b2c:	d005      	beq.n	8005b3a <USBH_HUB_GetPortStatus+0x5e>
 8005b2e:	07cc      	lsls	r4, r1, #31
 8005b30:	d401      	bmi.n	8005b36 <USBH_HUB_GetPortStatus+0x5a>
 8005b32:	f883 012d 	strb.w	r0, [r3, #301]	; 0x12d
 8005b36:	4610      	mov	r0, r2
 8005b38:	bd70      	pop	{r4, r5, r6, pc}
 8005b3a:	f3c1 0000 	ubfx	r0, r1, #0, #1
 8005b3e:	07c9      	lsls	r1, r1, #31
 8005b40:	d5f9      	bpl.n	8005b36 <USBH_HUB_GetPortStatus+0x5a>
 8005b42:	f883 012c 	strb.w	r0, [r3, #300]	; 0x12c
 8005b46:	e7f6      	b.n	8005b36 <USBH_HUB_GetPortStatus+0x5a>

08005b48 <USBH_HUB_SetPortFeature>:
 8005b48:	7883      	ldrb	r3, [r0, #2]
 8005b4a:	2b01      	cmp	r3, #1
 8005b4c:	d108      	bne.n	8005b60 <USBH_HUB_SetPortFeature+0x18>
 8005b4e:	f240 3323 	movw	r3, #803	; 0x323
 8005b52:	7481      	strb	r1, [r0, #18]
 8005b54:	7502      	strb	r2, [r0, #20]
 8005b56:	8203      	strh	r3, [r0, #16]
 8005b58:	2300      	movs	r3, #0
 8005b5a:	74c3      	strb	r3, [r0, #19]
 8005b5c:	7543      	strb	r3, [r0, #21]
 8005b5e:	82c3      	strh	r3, [r0, #22]
 8005b60:	2200      	movs	r2, #0
 8005b62:	4611      	mov	r1, r2
 8005b64:	f000 bf43 	b.w	80069ee <USBH_CtlReq>

08005b68 <USBH_HUB_Get_CfgDesc>:
 8005b68:	f8d0 3380 	ldr.w	r3, [r0, #896]	; 0x380
 8005b6c:	b5f7      	push	{r0, r1, r2, r4, r5, r6, r7, lr}
 8005b6e:	6a1d      	ldr	r5, [r3, #32]
 8005b70:	2300      	movs	r3, #0
 8005b72:	460e      	mov	r6, r1
 8005b74:	4617      	mov	r7, r2
 8005b76:	3528      	adds	r5, #40	; 0x28
 8005b78:	f44f 7200 	mov.w	r2, #512	; 0x200
 8005b7c:	e9cd 5100 	strd	r5, r1, [sp]
 8005b80:	4619      	mov	r1, r3
 8005b82:	f000 ffef 	bl	8006b64 <USBH_GetDescriptor>
 8005b86:	4604      	mov	r4, r0
 8005b88:	b928      	cbnz	r0, 8005b96 <USBH_HUB_Get_CfgDesc+0x2e>
 8005b8a:	4632      	mov	r2, r6
 8005b8c:	4629      	mov	r1, r5
 8005b8e:	f107 0026 	add.w	r0, r7, #38	; 0x26
 8005b92:	f000 fed0 	bl	8006936 <USBH_ParseCfgDesc>
 8005b96:	4620      	mov	r0, r4
 8005b98:	b003      	add	sp, #12
 8005b9a:	bdf0      	pop	{r4, r5, r6, r7, pc}

08005b9c <USBH_HUB_Get_StringDesc>:
 8005b9c:	b5f7      	push	{r0, r1, r2, r4, r5, r6, r7, lr}
 8005b9e:	9d08      	ldr	r5, [sp, #32]
 8005ba0:	461e      	mov	r6, r3
 8005ba2:	4617      	mov	r7, r2
 8005ba4:	f441 7240 	orr.w	r2, r1, #768	; 0x300
 8005ba8:	f505 75de 	add.w	r5, r5, #444	; 0x1bc
 8005bac:	e9cd 5300 	strd	r5, r3, [sp]
 8005bb0:	2300      	movs	r3, #0
 8005bb2:	4619      	mov	r1, r3
 8005bb4:	f000 ffd6 	bl	8006b64 <USBH_GetDescriptor>
 8005bb8:	4604      	mov	r4, r0
 8005bba:	b920      	cbnz	r0, 8005bc6 <USBH_HUB_Get_StringDesc+0x2a>
 8005bbc:	4632      	mov	r2, r6
 8005bbe:	4639      	mov	r1, r7
 8005bc0:	4628      	mov	r0, r5
 8005bc2:	f000 fefd 	bl	80069c0 <USBH_ParseStringDesc>
 8005bc6:	4620      	mov	r0, r4
 8005bc8:	b003      	add	sp, #12
 8005bca:	bdf0      	pop	{r4, r5, r6, r7, pc}

08005bcc <USBH_HUB_ParseDevDesc>:
 8005bcc:	780b      	ldrb	r3, [r1, #0]
 8005bce:	2a08      	cmp	r2, #8
 8005bd0:	7003      	strb	r3, [r0, #0]
 8005bd2:	784b      	ldrb	r3, [r1, #1]
 8005bd4:	7043      	strb	r3, [r0, #1]
 8005bd6:	884b      	ldrh	r3, [r1, #2]
 8005bd8:	8043      	strh	r3, [r0, #2]
 8005bda:	790b      	ldrb	r3, [r1, #4]
 8005bdc:	7103      	strb	r3, [r0, #4]
 8005bde:	794b      	ldrb	r3, [r1, #5]
 8005be0:	7143      	strb	r3, [r0, #5]
 8005be2:	798b      	ldrb	r3, [r1, #6]
 8005be4:	7183      	strb	r3, [r0, #6]
 8005be6:	79cb      	ldrb	r3, [r1, #7]
 8005be8:	71c3      	strb	r3, [r0, #7]
 8005bea:	d90d      	bls.n	8005c08 <USBH_HUB_ParseDevDesc+0x3c>
 8005bec:	890b      	ldrh	r3, [r1, #8]
 8005bee:	8103      	strh	r3, [r0, #8]
 8005bf0:	894b      	ldrh	r3, [r1, #10]
 8005bf2:	8143      	strh	r3, [r0, #10]
 8005bf4:	898b      	ldrh	r3, [r1, #12]
 8005bf6:	8183      	strh	r3, [r0, #12]
 8005bf8:	7b8b      	ldrb	r3, [r1, #14]
 8005bfa:	7383      	strb	r3, [r0, #14]
 8005bfc:	7bcb      	ldrb	r3, [r1, #15]
 8005bfe:	73c3      	strb	r3, [r0, #15]
 8005c00:	7c0b      	ldrb	r3, [r1, #16]
 8005c02:	7403      	strb	r3, [r0, #16]
 8005c04:	7c4b      	ldrb	r3, [r1, #17]
 8005c06:	7443      	strb	r3, [r0, #17]
 8005c08:	4770      	bx	lr

08005c0a <USBH_HUB_Get_DevDesc>:
 8005c0a:	b5f7      	push	{r0, r1, r2, r4, r5, r6, r7, lr}
 8005c0c:	2300      	movs	r3, #0
 8005c0e:	f502 77de 	add.w	r7, r2, #444	; 0x1bc
 8005c12:	4615      	mov	r5, r2
 8005c14:	460e      	mov	r6, r1
 8005c16:	f44f 7280 	mov.w	r2, #256	; 0x100
 8005c1a:	e9cd 7100 	strd	r7, r1, [sp]
 8005c1e:	4619      	mov	r1, r3
 8005c20:	f000 ffa0 	bl	8006b64 <USBH_GetDescriptor>
 8005c24:	4604      	mov	r4, r0
 8005c26:	b928      	cbnz	r0, 8005c34 <USBH_HUB_Get_DevDesc+0x2a>
 8005c28:	4632      	mov	r2, r6
 8005c2a:	4639      	mov	r1, r7
 8005c2c:	f105 0014 	add.w	r0, r5, #20
 8005c30:	f7ff ffcc 	bl	8005bcc <USBH_HUB_ParseDevDesc>
 8005c34:	4620      	mov	r0, r4
 8005c36:	b003      	add	sp, #12
 8005c38:	bdf0      	pop	{r4, r5, r6, r7, pc}

08005c3a <USBH_HUB_ParseHubDescriptor>:
 8005c3a:	780b      	ldrb	r3, [r1, #0]
 8005c3c:	7003      	strb	r3, [r0, #0]
 8005c3e:	784b      	ldrb	r3, [r1, #1]
 8005c40:	7043      	strb	r3, [r0, #1]
 8005c42:	788b      	ldrb	r3, [r1, #2]
 8005c44:	7083      	strb	r3, [r0, #2]
 8005c46:	f8b1 3003 	ldrh.w	r3, [r1, #3]
 8005c4a:	8083      	strh	r3, [r0, #4]
 8005c4c:	794b      	ldrb	r3, [r1, #5]
 8005c4e:	7183      	strb	r3, [r0, #6]
 8005c50:	798b      	ldrb	r3, [r1, #6]
 8005c52:	71c3      	strb	r3, [r0, #7]
 8005c54:	79cb      	ldrb	r3, [r1, #7]
 8005c56:	7203      	strb	r3, [r0, #8]
 8005c58:	7a0b      	ldrb	r3, [r1, #8]
 8005c5a:	7243      	strb	r3, [r0, #9]
 8005c5c:	4770      	bx	lr

08005c5e <USBH_HUB_GetHIDDescriptor>:
 8005c5e:	b507      	push	{r0, r1, r2, lr}
 8005c60:	9101      	str	r1, [sp, #4]
 8005c62:	f500 718e 	add.w	r1, r0, #284	; 0x11c
 8005c66:	4613      	mov	r3, r2
 8005c68:	f44f 5204 	mov.w	r2, #8448	; 0x2100
 8005c6c:	9100      	str	r1, [sp, #0]
 8005c6e:	2101      	movs	r1, #1
 8005c70:	f000 ff78 	bl	8006b64 <USBH_GetDescriptor>
 8005c74:	b003      	add	sp, #12
 8005c76:	f85d fb04 	ldr.w	pc, [sp], #4

08005c7a <USBH_HUB_GetHIDReportDescriptor>:
 8005c7a:	b507      	push	{r0, r1, r2, lr}
 8005c7c:	e9cd 3100 	strd	r3, r1, [sp]
 8005c80:	4613      	mov	r3, r2
 8005c82:	2101      	movs	r1, #1
 8005c84:	f44f 5208 	mov.w	r2, #8704	; 0x2200
 8005c88:	f000 ff6c 	bl	8006b64 <USBH_GetDescriptor>
 8005c8c:	b003      	add	sp, #12
 8005c8e:	f85d fb04 	ldr.w	pc, [sp], #4
	...

08005c94 <USBH_HUB_Device_Enum>:
 8005c94:	e92d 41ff 	stmdb	sp!, {r0, r1, r2, r3, r4, r5, r6, r7, r8, lr}
 8005c98:	f8d0 3380 	ldr.w	r3, [r0, #896]	; 0x380
 8005c9c:	4606      	mov	r6, r0
 8005c9e:	f891 8006 	ldrb.w	r8, [r1, #6]
 8005ca2:	460c      	mov	r4, r1
 8005ca4:	6a1f      	ldr	r7, [r3, #32]
 8005ca6:	f1b8 0f16 	cmp.w	r8, #22
 8005caa:	d850      	bhi.n	8005d4e <USBH_HUB_Device_Enum+0xba>
 8005cac:	e8df f018 	tbh	[pc, r8, lsl #1]
 8005cb0:	00510017 	.word	0x00510017
 8005cb4:	00880063 	.word	0x00880063
 8005cb8:	00a900c7 	.word	0x00a900c7
 8005cbc:	00d900d0 	.word	0x00d900d0
 8005cc0:	00f000e3 	.word	0x00f000e3
 8005cc4:	012d0117 	.word	0x012d0117
 8005cc8:	015b0149 	.word	0x015b0149
 8005ccc:	010a00fd 	.word	0x010a00fd
 8005cd0:	017b0170 	.word	0x017b0170
 8005cd4:	01a9019e 	.word	0x01a9019e
 8005cd8:	024201c8 	.word	0x024201c8
 8005cdc:	02b4      	.short	0x02b4
 8005cde:	7983      	ldrb	r3, [r0, #6]
 8005ce0:	2500      	movs	r5, #0
 8005ce2:	2280      	movs	r2, #128	; 0x80
 8005ce4:	9302      	str	r3, [sp, #8]
 8005ce6:	9501      	str	r5, [sp, #4]
 8005ce8:	f890 331d 	ldrb.w	r3, [r0, #797]	; 0x31d
 8005cec:	9300      	str	r3, [sp, #0]
 8005cee:	f890 331c 	ldrb.w	r3, [r0, #796]	; 0x31c
 8005cf2:	7901      	ldrb	r1, [r0, #4]
 8005cf4:	f001 f814 	bl	8006d20 <USBH_OpenPipe>
 8005cf8:	79b3      	ldrb	r3, [r6, #6]
 8005cfa:	462a      	mov	r2, r5
 8005cfc:	7971      	ldrb	r1, [r6, #5]
 8005cfe:	4630      	mov	r0, r6
 8005d00:	e9cd 5301 	strd	r5, r3, [sp, #4]
 8005d04:	f896 331d 	ldrb.w	r3, [r6, #797]	; 0x31d
 8005d08:	9300      	str	r3, [sp, #0]
 8005d0a:	f896 331c 	ldrb.w	r3, [r6, #796]	; 0x31c
 8005d0e:	f001 f807 	bl	8006d20 <USBH_OpenPipe>
 8005d12:	f8d6 33c8 	ldr.w	r3, [r6, #968]	; 0x3c8
 8005d16:	20ff      	movs	r0, #255	; 0xff
 8005d18:	71e5      	strb	r5, [r4, #7]
 8005d1a:	f8c4 33bc 	str.w	r3, [r4, #956]	; 0x3bc
 8005d1e:	f001 fa83 	bl	8007228 <malloc>
 8005d22:	60e0      	str	r0, [r4, #12]
 8005d24:	20ff      	movs	r0, #255	; 0xff
 8005d26:	f001 fa7f 	bl	8007228 <malloc>
 8005d2a:	7863      	ldrb	r3, [r4, #1]
 8005d2c:	6120      	str	r0, [r4, #16]
 8005d2e:	2001      	movs	r0, #1
 8005d30:	f013 0f02 	tst.w	r3, #2
 8005d34:	bf14      	ite	ne
 8005d36:	2302      	movne	r3, #2
 8005d38:	2301      	moveq	r3, #1
 8005d3a:	7263      	strb	r3, [r4, #9]
 8005d3c:	f241 0339 	movw	r3, #4153	; 0x1039
 8005d40:	5cfb      	ldrb	r3, [r7, r3]
 8005d42:	330a      	adds	r3, #10
 8005d44:	7223      	strb	r3, [r4, #8]
 8005d46:	f896 332d 	ldrb.w	r3, [r6, #813]	; 0x32d
 8005d4a:	71b3      	strb	r3, [r6, #6]
 8005d4c:	71a0      	strb	r0, [r4, #6]
 8005d4e:	2501      	movs	r5, #1
 8005d50:	e00d      	b.n	8005d6e <USBH_HUB_Device_Enum+0xda>
 8005d52:	f241 0339 	movw	r3, #4153	; 0x1039
 8005d56:	2104      	movs	r1, #4
 8005d58:	5cfa      	ldrb	r2, [r7, r3]
 8005d5a:	f7ff fef5 	bl	8005b48 <USBH_HUB_SetPortFeature>
 8005d5e:	4605      	mov	r5, r0
 8005d60:	b928      	cbnz	r0, 8005d6e <USBH_HUB_Device_Enum+0xda>
 8005d62:	2064      	movs	r0, #100	; 0x64
 8005d64:	4645      	mov	r5, r8
 8005d66:	f7fb fb45 	bl	80013f4 <HAL_Delay>
 8005d6a:	2302      	movs	r3, #2
 8005d6c:	71a3      	strb	r3, [r4, #6]
 8005d6e:	4628      	mov	r0, r5
 8005d70:	b004      	add	sp, #16
 8005d72:	e8bd 81f0 	ldmia.w	sp!, {r4, r5, r6, r7, r8, pc}
 8005d76:	f241 0339 	movw	r3, #4153	; 0x1039
 8005d7a:	2104      	movs	r1, #4
 8005d7c:	5cfa      	ldrb	r2, [r7, r3]
 8005d7e:	f7ff fee3 	bl	8005b48 <USBH_HUB_SetPortFeature>
 8005d82:	4605      	mov	r5, r0
 8005d84:	2800      	cmp	r0, #0
 8005d86:	d1f2      	bne.n	8005d6e <USBH_HUB_Device_Enum+0xda>
 8005d88:	20c8      	movs	r0, #200	; 0xc8
 8005d8a:	2740      	movs	r7, #64	; 0x40
 8005d8c:	f7fb fb32 	bl	80013f4 <HAL_Delay>
 8005d90:	7a63      	ldrb	r3, [r4, #9]
 8005d92:	2280      	movs	r2, #128	; 0x80
 8005d94:	7931      	ldrb	r1, [r6, #4]
 8005d96:	9300      	str	r3, [sp, #0]
 8005d98:	4630      	mov	r0, r6
 8005d9a:	462b      	mov	r3, r5
 8005d9c:	e9cd 5701 	strd	r5, r7, [sp, #4]
 8005da0:	f000 ffbe 	bl	8006d20 <USBH_OpenPipe>
 8005da4:	7a63      	ldrb	r3, [r4, #9]
 8005da6:	462a      	mov	r2, r5
 8005da8:	7971      	ldrb	r1, [r6, #5]
 8005daa:	9300      	str	r3, [sp, #0]
 8005dac:	4630      	mov	r0, r6
 8005dae:	462b      	mov	r3, r5
 8005db0:	e9cd 5701 	strd	r5, r7, [sp, #4]
 8005db4:	f000 ffb4 	bl	8006d20 <USBH_OpenPipe>
 8005db8:	2303      	movs	r3, #3
 8005dba:	71b7      	strb	r7, [r6, #6]
 8005dbc:	71a3      	strb	r3, [r4, #6]
 8005dbe:	e7c6      	b.n	8005d4e <USBH_HUB_Device_Enum+0xba>
 8005dc0:	460a      	mov	r2, r1
 8005dc2:	2108      	movs	r1, #8
 8005dc4:	f7ff ff21 	bl	8005c0a <USBH_HUB_Get_DevDesc>
 8005dc8:	4605      	mov	r5, r0
 8005dca:	2800      	cmp	r0, #0
 8005dcc:	d1cf      	bne.n	8005d6e <USBH_HUB_Device_Enum+0xda>
 8005dce:	7ee3      	ldrb	r3, [r4, #27]
 8005dd0:	2280      	movs	r2, #128	; 0x80
 8005dd2:	71e0      	strb	r0, [r4, #7]
 8005dd4:	71b3      	strb	r3, [r6, #6]
 8005dd6:	7931      	ldrb	r1, [r6, #4]
 8005dd8:	e9cd 0301 	strd	r0, r3, [sp, #4]
 8005ddc:	7a63      	ldrb	r3, [r4, #9]
 8005dde:	9300      	str	r3, [sp, #0]
 8005de0:	4603      	mov	r3, r0
 8005de2:	4630      	mov	r0, r6
 8005de4:	f000 ff9c 	bl	8006d20 <USBH_OpenPipe>
 8005de8:	7ee3      	ldrb	r3, [r4, #27]
 8005dea:	462a      	mov	r2, r5
 8005dec:	7971      	ldrb	r1, [r6, #5]
 8005dee:	4630      	mov	r0, r6
 8005df0:	e9cd 5301 	strd	r5, r3, [sp, #4]
 8005df4:	7a63      	ldrb	r3, [r4, #9]
 8005df6:	9300      	str	r3, [sp, #0]
 8005df8:	462b      	mov	r3, r5
 8005dfa:	f000 ff91 	bl	8006d20 <USBH_OpenPipe>
 8005dfe:	2305      	movs	r3, #5
 8005e00:	e7dc      	b.n	8005dbc <USBH_HUB_Device_Enum+0x128>
 8005e02:	7a09      	ldrb	r1, [r1, #8]
 8005e04:	f000 ff11 	bl	8006c2a <USBH_SetAddress>
 8005e08:	4605      	mov	r5, r0
 8005e0a:	2800      	cmp	r0, #0
 8005e0c:	d1af      	bne.n	8005d6e <USBH_HUB_Device_Enum+0xda>
 8005e0e:	7ee3      	ldrb	r3, [r4, #27]
 8005e10:	2280      	movs	r2, #128	; 0x80
 8005e12:	7931      	ldrb	r1, [r6, #4]
 8005e14:	e9cd 0301 	strd	r0, r3, [sp, #4]
 8005e18:	7a63      	ldrb	r3, [r4, #9]
 8005e1a:	4630      	mov	r0, r6
 8005e1c:	9300      	str	r3, [sp, #0]
 8005e1e:	7a23      	ldrb	r3, [r4, #8]
 8005e20:	f000 ff7e 	bl	8006d20 <USBH_OpenPipe>
 8005e24:	7ee3      	ldrb	r3, [r4, #27]
 8005e26:	462a      	mov	r2, r5
 8005e28:	7971      	ldrb	r1, [r6, #5]
 8005e2a:	4630      	mov	r0, r6
 8005e2c:	e9cd 5301 	strd	r5, r3, [sp, #4]
 8005e30:	7a63      	ldrb	r3, [r4, #9]
 8005e32:	9300      	str	r3, [sp, #0]
 8005e34:	7a23      	ldrb	r3, [r4, #8]
 8005e36:	f000 ff73 	bl	8006d20 <USBH_OpenPipe>
 8005e3a:	2304      	movs	r3, #4
 8005e3c:	e7be      	b.n	8005dbc <USBH_HUB_Device_Enum+0x128>
 8005e3e:	460a      	mov	r2, r1
 8005e40:	7d09      	ldrb	r1, [r1, #20]
 8005e42:	f7ff fee2 	bl	8005c0a <USBH_HUB_Get_DevDesc>
 8005e46:	4605      	mov	r5, r0
 8005e48:	2800      	cmp	r0, #0
 8005e4a:	d190      	bne.n	8005d6e <USBH_HUB_Device_Enum+0xda>
 8005e4c:	2306      	movs	r3, #6
 8005e4e:	e7b5      	b.n	8005dbc <USBH_HUB_Device_Enum+0x128>
 8005e50:	460a      	mov	r2, r1
 8005e52:	2109      	movs	r1, #9
 8005e54:	f7ff fe88 	bl	8005b68 <USBH_HUB_Get_CfgDesc>
 8005e58:	4605      	mov	r5, r0
 8005e5a:	2800      	cmp	r0, #0
 8005e5c:	d187      	bne.n	8005d6e <USBH_HUB_Device_Enum+0xda>
 8005e5e:	2307      	movs	r3, #7
 8005e60:	e7ac      	b.n	8005dbc <USBH_HUB_Device_Enum+0x128>
 8005e62:	460a      	mov	r2, r1
 8005e64:	8d09      	ldrh	r1, [r1, #40]	; 0x28
 8005e66:	f7ff fe7f 	bl	8005b68 <USBH_HUB_Get_CfgDesc>
 8005e6a:	4605      	mov	r5, r0
 8005e6c:	2800      	cmp	r0, #0
 8005e6e:	f47f af7e 	bne.w	8005d6e <USBH_HUB_Device_Enum+0xda>
 8005e72:	2308      	movs	r3, #8
 8005e74:	e7a2      	b.n	8005dbc <USBH_HUB_Device_Enum+0x128>
 8005e76:	9100      	str	r1, [sp, #0]
 8005e78:	23ff      	movs	r3, #255	; 0xff
 8005e7a:	68ca      	ldr	r2, [r1, #12]
 8005e7c:	f891 1022 	ldrb.w	r1, [r1, #34]	; 0x22
 8005e80:	f7ff fe8c 	bl	8005b9c <USBH_HUB_Get_StringDesc>
 8005e84:	4605      	mov	r5, r0
 8005e86:	2800      	cmp	r0, #0
 8005e88:	f47f af71 	bne.w	8005d6e <USBH_HUB_Device_Enum+0xda>
 8005e8c:	2309      	movs	r3, #9
 8005e8e:	e795      	b.n	8005dbc <USBH_HUB_Device_Enum+0x128>
 8005e90:	9100      	str	r1, [sp, #0]
 8005e92:	23ff      	movs	r3, #255	; 0xff
 8005e94:	690a      	ldr	r2, [r1, #16]
 8005e96:	f891 1023 	ldrb.w	r1, [r1, #35]	; 0x23
 8005e9a:	f7ff fe7f 	bl	8005b9c <USBH_HUB_Get_StringDesc>
 8005e9e:	4605      	mov	r5, r0
 8005ea0:	2800      	cmp	r0, #0
 8005ea2:	f47f af64 	bne.w	8005d6e <USBH_HUB_Device_Enum+0xda>
 8005ea6:	230e      	movs	r3, #14
 8005ea8:	e788      	b.n	8005dbc <USBH_HUB_Device_Enum+0x128>
 8005eaa:	f891 102b 	ldrb.w	r1, [r1, #43]	; 0x2b
 8005eae:	f000 fec9 	bl	8006c44 <USBH_SetCfg>
 8005eb2:	4605      	mov	r5, r0
 8005eb4:	2800      	cmp	r0, #0
 8005eb6:	f47f af5a 	bne.w	8005d6e <USBH_HUB_Device_Enum+0xda>
 8005eba:	2005      	movs	r0, #5
 8005ebc:	f7fb fa9a 	bl	80013f4 <HAL_Delay>
 8005ec0:	230f      	movs	r3, #15
 8005ec2:	e77b      	b.n	8005dbc <USBH_HUB_Device_Enum+0x128>
 8005ec4:	f891 302d 	ldrb.w	r3, [r1, #45]	; 0x2d
 8005ec8:	069b      	lsls	r3, r3, #26
 8005eca:	d506      	bpl.n	8005eda <USBH_HUB_Device_Enum+0x246>
 8005ecc:	2101      	movs	r1, #1
 8005ece:	f000 fec6 	bl	8006c5e <USBH_SetFeature>
 8005ed2:	4605      	mov	r5, r0
 8005ed4:	2800      	cmp	r0, #0
 8005ed6:	f47f af4a 	bne.w	8005d6e <USBH_HUB_Device_Enum+0xda>
 8005eda:	230a      	movs	r3, #10
 8005edc:	e76e      	b.n	8005dbc <USBH_HUB_Device_Enum+0x128>
 8005ede:	f501 77de 	add.w	r7, r1, #444	; 0x1bc
 8005ee2:	2200      	movs	r2, #0
 8005ee4:	2109      	movs	r1, #9
 8005ee6:	463b      	mov	r3, r7
 8005ee8:	f7ff feb9 	bl	8005c5e <USBH_HUB_GetHIDDescriptor>
 8005eec:	4605      	mov	r5, r0
 8005eee:	2800      	cmp	r0, #0
 8005ef0:	f47f af3d 	bne.w	8005d6e <USBH_HUB_Device_Enum+0xda>
 8005ef4:	f104 0064 	add.w	r0, r4, #100	; 0x64
 8005ef8:	4639      	mov	r1, r7
 8005efa:	f7fe faca 	bl	8004492 <USBH_HID_ParseHIDDesc>
 8005efe:	230b      	movs	r3, #11
 8005f00:	2005      	movs	r0, #5
 8005f02:	71a3      	strb	r3, [r4, #6]
 8005f04:	f7fb fa76 	bl	80013f4 <HAL_Delay>
 8005f08:	e721      	b.n	8005d4e <USBH_HUB_Device_Enum+0xba>
 8005f0a:	f501 77de 	add.w	r7, r1, #444	; 0x1bc
 8005f0e:	2200      	movs	r2, #0
 8005f10:	f8b1 106c 	ldrh.w	r1, [r1, #108]	; 0x6c
 8005f14:	463b      	mov	r3, r7
 8005f16:	f7ff feb0 	bl	8005c7a <USBH_HUB_GetHIDReportDescriptor>
 8005f1a:	4605      	mov	r5, r0
 8005f1c:	2800      	cmp	r0, #0
 8005f1e:	f47f af26 	bne.w	8005d6e <USBH_HUB_Device_Enum+0xda>
 8005f22:	2005      	movs	r0, #5
 8005f24:	f7fb fa66 	bl	80013f4 <HAL_Delay>
 8005f28:	f104 026e 	add.w	r2, r4, #110	; 0x6e
 8005f2c:	f8b4 106c 	ldrh.w	r1, [r4, #108]	; 0x6c
 8005f30:	4638      	mov	r0, r7
 8005f32:	f7fe ffd3 	bl	8004edc <parse_report_descriptor>
 8005f36:	f894 302a 	ldrb.w	r3, [r4, #42]	; 0x2a
 8005f3a:	2b01      	cmp	r3, #1
 8005f3c:	d926      	bls.n	8005f8c <USBH_HUB_Device_Enum+0x2f8>
 8005f3e:	230c      	movs	r3, #12
 8005f40:	e73c      	b.n	8005dbc <USBH_HUB_Device_Enum+0x128>
 8005f42:	f501 77de 	add.w	r7, r1, #444	; 0x1bc
 8005f46:	2201      	movs	r2, #1
 8005f48:	2109      	movs	r1, #9
 8005f4a:	463b      	mov	r3, r7
 8005f4c:	f7ff fe87 	bl	8005c5e <USBH_HUB_GetHIDDescriptor>
 8005f50:	4605      	mov	r5, r0
 8005f52:	2800      	cmp	r0, #0
 8005f54:	f47f af0b 	bne.w	8005d6e <USBH_HUB_Device_Enum+0xda>
 8005f58:	4639      	mov	r1, r7
 8005f5a:	f104 00a4 	add.w	r0, r4, #164	; 0xa4
 8005f5e:	f7fe fa98 	bl	8004492 <USBH_HID_ParseHIDDesc>
 8005f62:	230d      	movs	r3, #13
 8005f64:	e72a      	b.n	8005dbc <USBH_HUB_Device_Enum+0x128>
 8005f66:	f501 77de 	add.w	r7, r1, #444	; 0x1bc
 8005f6a:	2201      	movs	r2, #1
 8005f6c:	f8b1 10ac 	ldrh.w	r1, [r1, #172]	; 0xac
 8005f70:	463b      	mov	r3, r7
 8005f72:	f7ff fe82 	bl	8005c7a <USBH_HUB_GetHIDReportDescriptor>
 8005f76:	4605      	mov	r5, r0
 8005f78:	2800      	cmp	r0, #0
 8005f7a:	f47f aef8 	bne.w	8005d6e <USBH_HUB_Device_Enum+0xda>
 8005f7e:	f104 02ae 	add.w	r2, r4, #174	; 0xae
 8005f82:	f8b4 10ac 	ldrh.w	r1, [r4, #172]	; 0xac
 8005f86:	4638      	mov	r0, r7
 8005f88:	f7fe ffa8 	bl	8004edc <parse_report_descriptor>
 8005f8c:	2310      	movs	r3, #16
 8005f8e:	e715      	b.n	8005dbc <USBH_HUB_Device_Enum+0x128>
 8005f90:	2200      	movs	r2, #0
 8005f92:	2101      	movs	r1, #1
 8005f94:	f7fe fa70 	bl	8004478 <USBH_HID_SetProtocol>
 8005f98:	4605      	mov	r5, r0
 8005f9a:	b110      	cbz	r0, 8005fa2 <USBH_HUB_Device_Enum+0x30e>
 8005f9c:	2803      	cmp	r0, #3
 8005f9e:	f47f aee6 	bne.w	8005d6e <USBH_HUB_Device_Enum+0xda>
 8005fa2:	2311      	movs	r3, #17
 8005fa4:	e70a      	b.n	8005dbc <USBH_HUB_Device_Enum+0x128>
 8005fa6:	6b4b      	ldr	r3, [r1, #52]	; 0x34
 8005fa8:	4a9c      	ldr	r2, [pc, #624]	; (800621c <USBH_HUB_Device_Enum+0x588>)
 8005faa:	f023 437f 	bic.w	r3, r3, #4278190080	; 0xff000000
 8005fae:	f023 03ff 	bic.w	r3, r3, #255	; 0xff
 8005fb2:	4293      	cmp	r3, r2
 8005fb4:	d114      	bne.n	8005fe0 <USBH_HUB_Device_Enum+0x34c>
 8005fb6:	f891 3037 	ldrb.w	r3, [r1, #55]	; 0x37
 8005fba:	2b01      	cmp	r3, #1
 8005fbc:	d005      	beq.n	8005fca <USBH_HUB_Device_Enum+0x336>
 8005fbe:	f891 306e 	ldrb.w	r3, [r1, #110]	; 0x6e
 8005fc2:	f003 0303 	and.w	r3, r3, #3
 8005fc6:	2b02      	cmp	r3, #2
 8005fc8:	d10a      	bne.n	8005fe0 <USBH_HUB_Device_Enum+0x34c>
 8005fca:	2300      	movs	r3, #0
 8005fcc:	4630      	mov	r0, r6
 8005fce:	461a      	mov	r2, r3
 8005fd0:	4619      	mov	r1, r3
 8005fd2:	f7fe fa33 	bl	800443c <USBH_HID_SetIdle>
 8005fd6:	4605      	mov	r5, r0
 8005fd8:	b110      	cbz	r0, 8005fe0 <USBH_HUB_Device_Enum+0x34c>
 8005fda:	2803      	cmp	r0, #3
 8005fdc:	f47f aec7 	bne.w	8005d6e <USBH_HUB_Device_Enum+0xda>
 8005fe0:	f894 302a 	ldrb.w	r3, [r4, #42]	; 0x2a
 8005fe4:	2b01      	cmp	r3, #1
 8005fe6:	d929      	bls.n	800603c <USBH_HUB_Device_Enum+0x3a8>
 8005fe8:	2312      	movs	r3, #18
 8005fea:	e6e7      	b.n	8005dbc <USBH_HUB_Device_Enum+0x128>
 8005fec:	2201      	movs	r2, #1
 8005fee:	4611      	mov	r1, r2
 8005ff0:	f7fe fa42 	bl	8004478 <USBH_HID_SetProtocol>
 8005ff4:	4605      	mov	r5, r0
 8005ff6:	b110      	cbz	r0, 8005ffe <USBH_HUB_Device_Enum+0x36a>
 8005ff8:	2803      	cmp	r0, #3
 8005ffa:	f47f aeb8 	bne.w	8005d6e <USBH_HUB_Device_Enum+0xda>
 8005ffe:	2313      	movs	r3, #19
 8006000:	e6dc      	b.n	8005dbc <USBH_HUB_Device_Enum+0x128>
 8006002:	f891 304f 	ldrb.w	r3, [r1, #79]	; 0x4f
 8006006:	2b03      	cmp	r3, #3
 8006008:	d118      	bne.n	800603c <USBH_HUB_Device_Enum+0x3a8>
 800600a:	f891 3050 	ldrb.w	r3, [r1, #80]	; 0x50
 800600e:	2b01      	cmp	r3, #1
 8006010:	d114      	bne.n	800603c <USBH_HUB_Device_Enum+0x3a8>
 8006012:	f891 3051 	ldrb.w	r3, [r1, #81]	; 0x51
 8006016:	2b01      	cmp	r3, #1
 8006018:	d005      	beq.n	8006026 <USBH_HUB_Device_Enum+0x392>
 800601a:	f891 30ae 	ldrb.w	r3, [r1, #174]	; 0xae
 800601e:	f003 0303 	and.w	r3, r3, #3
 8006022:	2b02      	cmp	r3, #2
 8006024:	d10a      	bne.n	800603c <USBH_HUB_Device_Enum+0x3a8>
 8006026:	2200      	movs	r2, #0
 8006028:	2301      	movs	r3, #1
 800602a:	4630      	mov	r0, r6
 800602c:	4611      	mov	r1, r2
 800602e:	f7fe fa05 	bl	800443c <USBH_HID_SetIdle>
 8006032:	4605      	mov	r5, r0
 8006034:	b110      	cbz	r0, 800603c <USBH_HUB_Device_Enum+0x3a8>
 8006036:	2803      	cmp	r0, #3
 8006038:	f47f ae99 	bne.w	8005d6e <USBH_HUB_Device_Enum+0xda>
 800603c:	2314      	movs	r3, #20
 800603e:	e6bd      	b.n	8005dbc <USBH_HUB_Device_Enum+0x128>
 8006040:	f891 2070 	ldrb.w	r2, [r1, #112]	; 0x70
 8006044:	2300      	movs	r3, #0
 8006046:	f8a1 20ea 	strh.w	r2, [r1, #234]	; 0xea
 800604a:	f891 2040 	ldrb.w	r2, [r1, #64]	; 0x40
 800604e:	f881 30e4 	strb.w	r3, [r1, #228]	; 0xe4
 8006052:	f8a1 20ee 	strh.w	r2, [r1, #238]	; 0xee
 8006056:	f891 203c 	ldrb.w	r2, [r1, #60]	; 0x3c
 800605a:	f881 20ec 	strb.w	r2, [r1, #236]	; 0xec
 800605e:	f104 023c 	add.w	r2, r4, #60	; 0x3c
 8006062:	f891 1034 	ldrb.w	r1, [r1, #52]	; 0x34
 8006066:	b2d8      	uxtb	r0, r3
 8006068:	4288      	cmp	r0, r1
 800606a:	d359      	bcc.n	8006120 <USBH_HUB_Device_Enum+0x48c>
 800606c:	f894 10e7 	ldrb.w	r1, [r4, #231]	; 0xe7
 8006070:	4630      	mov	r0, r6
 8006072:	f000 fe69 	bl	8006d48 <USBH_AllocPipe>
 8006076:	6b63      	ldr	r3, [r4, #52]	; 0x34
 8006078:	4a68      	ldr	r2, [pc, #416]	; (800621c <USBH_HUB_Device_Enum+0x588>)
 800607a:	f023 437f 	bic.w	r3, r3, #4278190080	; 0xff000000
 800607e:	f884 00e6 	strb.w	r0, [r4, #230]	; 0xe6
 8006082:	f023 03ff 	bic.w	r3, r3, #255	; 0xff
 8006086:	4293      	cmp	r3, r2
 8006088:	d103      	bne.n	8006092 <USBH_HUB_Device_Enum+0x3fe>
 800608a:	f894 3037 	ldrb.w	r3, [r4, #55]	; 0x37
 800608e:	2b01      	cmp	r3, #1
 8006090:	d005      	beq.n	800609e <USBH_HUB_Device_Enum+0x40a>
 8006092:	f894 306e 	ldrb.w	r3, [r4, #110]	; 0x6e
 8006096:	f003 0303 	and.w	r3, r3, #3
 800609a:	2b02      	cmp	r3, #2
 800609c:	d103      	bne.n	80060a6 <USBH_HUB_Device_Enum+0x412>
 800609e:	f104 00e4 	add.w	r0, r4, #228	; 0xe4
 80060a2:	f7ff fbb5 	bl	8005810 <USBH_HUB_KeybdInit>
 80060a6:	f894 304f 	ldrb.w	r3, [r4, #79]	; 0x4f
 80060aa:	2b03      	cmp	r3, #3
 80060ac:	d104      	bne.n	80060b8 <USBH_HUB_Device_Enum+0x424>
 80060ae:	8ee2      	ldrh	r2, [r4, #54]	; 0x36
 80060b0:	f240 2301 	movw	r3, #513	; 0x201
 80060b4:	429a      	cmp	r2, r3
 80060b6:	d005      	beq.n	80060c4 <USBH_HUB_Device_Enum+0x430>
 80060b8:	f894 306e 	ldrb.w	r3, [r4, #110]	; 0x6e
 80060bc:	f003 0303 	and.w	r3, r3, #3
 80060c0:	2b01      	cmp	r3, #1
 80060c2:	d110      	bne.n	80060e6 <USBH_HUB_Device_Enum+0x452>
 80060c4:	f894 206f 	ldrb.w	r2, [r4, #111]	; 0x6f
 80060c8:	f104 00e4 	add.w	r0, r4, #228	; 0xe4
 80060cc:	f894 3070 	ldrb.w	r3, [r4, #112]	; 0x70
 80060d0:	2a00      	cmp	r2, #0
 80060d2:	bf18      	it	ne
 80060d4:	3301      	addne	r3, #1
 80060d6:	f8a4 30ea 	strh.w	r3, [r4, #234]	; 0xea
 80060da:	f104 0364 	add.w	r3, r4, #100	; 0x64
 80060de:	f8c4 314c 	str.w	r3, [r4, #332]	; 0x14c
 80060e2:	f7ff fc3b 	bl	800595c <USBH_HUB_MouseInit>
 80060e6:	f894 306e 	ldrb.w	r3, [r4, #110]	; 0x6e
 80060ea:	f003 0303 	and.w	r3, r3, #3
 80060ee:	2b03      	cmp	r3, #3
 80060f0:	d110      	bne.n	8006114 <USBH_HUB_Device_Enum+0x480>
 80060f2:	f894 206f 	ldrb.w	r2, [r4, #111]	; 0x6f
 80060f6:	f104 00e4 	add.w	r0, r4, #228	; 0xe4
 80060fa:	f894 3070 	ldrb.w	r3, [r4, #112]	; 0x70
 80060fe:	2a00      	cmp	r2, #0
 8006100:	bf18      	it	ne
 8006102:	3301      	addne	r3, #1
 8006104:	f8a4 30ea 	strh.w	r3, [r4, #234]	; 0xea
 8006108:	f104 0364 	add.w	r3, r4, #100	; 0x64
 800610c:	f8c4 314c 	str.w	r3, [r4, #332]	; 0x14c
 8006110:	f7ff fa74 	bl	80055fc <USBH_HUB_GamepadInit>
 8006114:	f894 302a 	ldrb.w	r3, [r4, #42]	; 0x2a
 8006118:	2b01      	cmp	r3, #1
 800611a:	d971      	bls.n	8006200 <USBH_HUB_Device_Enum+0x56c>
 800611c:	2315      	movs	r3, #21
 800611e:	e64d      	b.n	8005dbc <USBH_HUB_Device_Enum+0x128>
 8006120:	f912 5033 	ldrsb.w	r5, [r2, r3, lsl #3]
 8006124:	f812 0033 	ldrb.w	r0, [r2, r3, lsl #3]
 8006128:	3301      	adds	r3, #1
 800612a:	2d00      	cmp	r5, #0
 800612c:	bfb8      	it	lt
 800612e:	f884 00e7 	strblt.w	r0, [r4, #231]	; 0xe7
 8006132:	e798      	b.n	8006066 <USBH_HUB_Device_Enum+0x3d2>
 8006134:	2301      	movs	r3, #1
 8006136:	f891 004e 	ldrb.w	r0, [r1, #78]	; 0x4e
 800613a:	f101 0256 	add.w	r2, r1, #86	; 0x56
 800613e:	f881 3150 	strb.w	r3, [r1, #336]	; 0x150
 8006142:	f891 30b0 	ldrb.w	r3, [r1, #176]	; 0xb0
 8006146:	f8a1 3156 	strh.w	r3, [r1, #342]	; 0x156
 800614a:	f891 305a 	ldrb.w	r3, [r1, #90]	; 0x5a
 800614e:	f8a1 315a 	strh.w	r3, [r1, #346]	; 0x15a
 8006152:	f891 3056 	ldrb.w	r3, [r1, #86]	; 0x56
 8006156:	f881 3158 	strb.w	r3, [r1, #344]	; 0x158
 800615a:	2300      	movs	r3, #0
 800615c:	b2d9      	uxtb	r1, r3
 800615e:	4288      	cmp	r0, r1
 8006160:	d850      	bhi.n	8006204 <USBH_HUB_Device_Enum+0x570>
 8006162:	f894 1153 	ldrb.w	r1, [r4, #339]	; 0x153
 8006166:	4630      	mov	r0, r6
 8006168:	f000 fdee 	bl	8006d48 <USBH_AllocPipe>
 800616c:	f894 304f 	ldrb.w	r3, [r4, #79]	; 0x4f
 8006170:	f884 0152 	strb.w	r0, [r4, #338]	; 0x152
 8006174:	2b03      	cmp	r3, #3
 8006176:	d105      	bne.n	8006184 <USBH_HUB_Device_Enum+0x4f0>
 8006178:	f8b4 2050 	ldrh.w	r2, [r4, #80]	; 0x50
 800617c:	f240 1301 	movw	r3, #257	; 0x101
 8006180:	429a      	cmp	r2, r3
 8006182:	d005      	beq.n	8006190 <USBH_HUB_Device_Enum+0x4fc>
 8006184:	f894 30ae 	ldrb.w	r3, [r4, #174]	; 0xae
 8006188:	f003 0303 	and.w	r3, r3, #3
 800618c:	2b02      	cmp	r3, #2
 800618e:	d103      	bne.n	8006198 <USBH_HUB_Device_Enum+0x504>
 8006190:	f504 70a8 	add.w	r0, r4, #336	; 0x150
 8006194:	f7ff fb3c 	bl	8005810 <USBH_HUB_KeybdInit>
 8006198:	f894 304f 	ldrb.w	r3, [r4, #79]	; 0x4f
 800619c:	2b03      	cmp	r3, #3
 800619e:	d105      	bne.n	80061ac <USBH_HUB_Device_Enum+0x518>
 80061a0:	f8b4 2050 	ldrh.w	r2, [r4, #80]	; 0x50
 80061a4:	f240 2301 	movw	r3, #513	; 0x201
 80061a8:	429a      	cmp	r2, r3
 80061aa:	d005      	beq.n	80061b8 <USBH_HUB_Device_Enum+0x524>
 80061ac:	f894 30ae 	ldrb.w	r3, [r4, #174]	; 0xae
 80061b0:	f003 0303 	and.w	r3, r3, #3
 80061b4:	2b01      	cmp	r3, #1
 80061b6:	d110      	bne.n	80061da <USBH_HUB_Device_Enum+0x546>
 80061b8:	f894 20af 	ldrb.w	r2, [r4, #175]	; 0xaf
 80061bc:	f504 70a8 	add.w	r0, r4, #336	; 0x150
 80061c0:	f894 30b0 	ldrb.w	r3, [r4, #176]	; 0xb0
 80061c4:	2a00      	cmp	r2, #0
 80061c6:	bf18      	it	ne
 80061c8:	3301      	addne	r3, #1
 80061ca:	f8a4 3156 	strh.w	r3, [r4, #342]	; 0x156
 80061ce:	f104 03a4 	add.w	r3, r4, #164	; 0xa4
 80061d2:	f8c4 31b8 	str.w	r3, [r4, #440]	; 0x1b8
 80061d6:	f7ff fbc1 	bl	800595c <USBH_HUB_MouseInit>
 80061da:	f894 30ae 	ldrb.w	r3, [r4, #174]	; 0xae
 80061de:	f003 0303 	and.w	r3, r3, #3
 80061e2:	2b03      	cmp	r3, #3
 80061e4:	d10c      	bne.n	8006200 <USBH_HUB_Device_Enum+0x56c>
 80061e6:	f894 20af 	ldrb.w	r2, [r4, #175]	; 0xaf
 80061ea:	f504 70a8 	add.w	r0, r4, #336	; 0x150
 80061ee:	f894 30b0 	ldrb.w	r3, [r4, #176]	; 0xb0
 80061f2:	2a00      	cmp	r2, #0
 80061f4:	bf18      	it	ne
 80061f6:	3301      	addne	r3, #1
 80061f8:	f8a4 3156 	strh.w	r3, [r4, #342]	; 0x156
 80061fc:	f7ff f9fe 	bl	80055fc <USBH_HUB_GamepadInit>
 8006200:	2316      	movs	r3, #22
 8006202:	e5db      	b.n	8005dbc <USBH_HUB_Device_Enum+0x128>
 8006204:	f912 5033 	ldrsb.w	r5, [r2, r3, lsl #3]
 8006208:	f812 1033 	ldrb.w	r1, [r2, r3, lsl #3]
 800620c:	3301      	adds	r3, #1
 800620e:	2d00      	cmp	r5, #0
 8006210:	bfb8      	it	lt
 8006212:	f884 1153 	strblt.w	r1, [r4, #339]	; 0x153
 8006216:	e7a1      	b.n	800615c <USBH_HUB_Device_Enum+0x4c8>
 8006218:	2500      	movs	r5, #0
 800621a:	e5a8      	b.n	8005d6e <USBH_HUB_Device_Enum+0xda>
 800621c:	00010300 	.word	0x00010300

08006220 <USBH_HUB_SETUP_PIPES>:
 8006220:	b530      	push	{r4, r5, lr}
 8006222:	461c      	mov	r4, r3
 8006224:	b085      	sub	sp, #20
 8006226:	88db      	ldrh	r3, [r3, #6]
 8006228:	4605      	mov	r5, r0
 800622a:	78a1      	ldrb	r1, [r4, #2]
 800622c:	9302      	str	r3, [sp, #8]
 800622e:	2303      	movs	r3, #3
 8006230:	9301      	str	r3, [sp, #4]
 8006232:	7a53      	ldrb	r3, [r2, #9]
 8006234:	9300      	str	r3, [sp, #0]
 8006236:	7a13      	ldrb	r3, [r2, #8]
 8006238:	78e2      	ldrb	r2, [r4, #3]
 800623a:	f000 fd71 	bl	8006d20 <USBH_OpenPipe>
 800623e:	2200      	movs	r2, #0
 8006240:	78a1      	ldrb	r1, [r4, #2]
 8006242:	4628      	mov	r0, r5
 8006244:	b005      	add	sp, #20
 8006246:	e8bd 4030 	ldmia.w	sp!, {r4, r5, lr}
 800624a:	f000 bfb1 	b.w	80071b0 <USBH_LL_SetToggle>

0800624e <USBH_HUB_Device_Process>:
 800624e:	e92d 43f8 	stmdb	sp!, {r3, r4, r5, r6, r7, r8, r9, lr}
 8006252:	f8d0 3380 	ldr.w	r3, [r0, #896]	; 0x380
 8006256:	f241 023a 	movw	r2, #4154	; 0x103a
 800625a:	f44f 7671 	mov.w	r6, #964	; 0x3c4
 800625e:	4607      	mov	r7, r0
 8006260:	6a1d      	ldr	r5, [r3, #32]
 8006262:	5cab      	ldrb	r3, [r5, r2]
 8006264:	435e      	muls	r6, r3
 8006266:	19a9      	adds	r1, r5, r6
 8006268:	f891 112e 	ldrb.w	r1, [r1, #302]	; 0x12e
 800626c:	2916      	cmp	r1, #22
 800626e:	d007      	beq.n	8006280 <USBH_HUB_Device_Process+0x32>
 8006270:	2b03      	cmp	r3, #3
 8006272:	bf0c      	ite	eq
 8006274:	2300      	moveq	r3, #0
 8006276:	3301      	addne	r3, #1
 8006278:	54ab      	strb	r3, [r5, r2]
 800627a:	2001      	movs	r0, #1
 800627c:	e8bd 83f8 	ldmia.w	sp!, {r3, r4, r5, r6, r7, r8, r9, pc}
 8006280:	f241 033b 	movw	r3, #4155	; 0x103b
 8006284:	f506 7894 	add.w	r8, r6, #296	; 0x128
 8006288:	5cec      	ldrb	r4, [r5, r3]
 800628a:	236c      	movs	r3, #108	; 0x6c
 800628c:	44a8      	add	r8, r5
 800628e:	fb04 6903 	mla	r9, r4, r3, r6
 8006292:	464c      	mov	r4, r9
 8006294:	442c      	add	r4, r5
 8006296:	f894 3210 	ldrb.w	r3, [r4, #528]	; 0x210
 800629a:	2b01      	cmp	r3, #1
 800629c:	d00c      	beq.n	80062b8 <USBH_HUB_Device_Process+0x6a>
 800629e:	2b02      	cmp	r3, #2
 80062a0:	d01e      	beq.n	80062e0 <USBH_HUB_Device_Process+0x92>
 80062a2:	2b00      	cmp	r3, #0
 80062a4:	d1e9      	bne.n	800627a <USBH_HUB_Device_Process+0x2c>
 80062a6:	f509 7303 	add.w	r3, r9, #524	; 0x20c
 80062aa:	4642      	mov	r2, r8
 80062ac:	4629      	mov	r1, r5
 80062ae:	442b      	add	r3, r5
 80062b0:	f7ff ffb6 	bl	8006220 <USBH_HUB_SETUP_PIPES>
 80062b4:	2301      	movs	r3, #1
 80062b6:	e010      	b.n	80062da <USBH_HUB_Device_Process+0x8c>
 80062b8:	f509 7109 	add.w	r1, r9, #548	; 0x224
 80062bc:	f894 320e 	ldrb.w	r3, [r4, #526]	; 0x20e
 80062c0:	f894 2212 	ldrb.w	r2, [r4, #530]	; 0x212
 80062c4:	4429      	add	r1, r5
 80062c6:	f000 fd1b 	bl	8006d00 <USBH_InterruptReceiveData>
 80062ca:	f8d7 33c8 	ldr.w	r3, [r7, #968]	; 0x3c8
 80062ce:	f8c4 3218 	str.w	r3, [r4, #536]	; 0x218
 80062d2:	2300      	movs	r3, #0
 80062d4:	f884 321c 	strb.w	r3, [r4, #540]	; 0x21c
 80062d8:	2302      	movs	r3, #2
 80062da:	f884 3210 	strb.w	r3, [r4, #528]	; 0x210
 80062de:	e7cc      	b.n	800627a <USBH_HUB_Device_Process+0x2c>
 80062e0:	f894 120e 	ldrb.w	r1, [r4, #526]	; 0x20e
 80062e4:	f000 ff5a 	bl	800719c <USBH_LL_GetURBState>
 80062e8:	2801      	cmp	r0, #1
 80062ea:	4606      	mov	r6, r0
 80062ec:	d11e      	bne.n	800632c <USBH_HUB_Device_Process+0xde>
 80062ee:	f894 120e 	ldrb.w	r1, [r4, #526]	; 0x20e
 80062f2:	4638      	mov	r0, r7
 80062f4:	f000 ff0e 	bl	8007114 <USBH_LL_GetLastXferSize>
 80062f8:	f894 321c 	ldrb.w	r3, [r4, #540]	; 0x21c
 80062fc:	2b00      	cmp	r3, #0
 80062fe:	d1bc      	bne.n	800627a <USBH_HUB_Device_Process+0x2c>
 8006300:	f010 0fff 	tst.w	r0, #255	; 0xff
 8006304:	d0b9      	beq.n	800627a <USBH_HUB_Device_Process+0x2c>
 8006306:	f509 7109 	add.w	r1, r9, #548	; 0x224
 800630a:	f509 7019 	add.w	r0, r9, #612	; 0x264
 800630e:	f8b4 2212 	ldrh.w	r2, [r4, #530]	; 0x212
 8006312:	4429      	add	r1, r5
 8006314:	4428      	add	r0, r5
 8006316:	f7fe fa53 	bl	80047c0 <USBH_HID_FifoWrite>
 800631a:	4641      	mov	r1, r8
 800631c:	4638      	mov	r0, r7
 800631e:	f884 621c 	strb.w	r6, [r4, #540]	; 0x21c
 8006322:	f884 6210 	strb.w	r6, [r4, #528]	; 0x210
 8006326:	f7ff f91a 	bl	800555e <USBH_Next_Interface_Port>
 800632a:	e7a6      	b.n	800627a <USBH_HUB_Device_Process+0x2c>
 800632c:	2805      	cmp	r0, #5
 800632e:	d107      	bne.n	8006340 <USBH_HUB_Device_Process+0xf2>
 8006330:	f894 1214 	ldrb.w	r1, [r4, #532]	; 0x214
 8006334:	4638      	mov	r0, r7
 8006336:	f000 fc9f 	bl	8006c78 <USBH_ClrFeature>
 800633a:	2800      	cmp	r0, #0
 800633c:	d0f8      	beq.n	8006330 <USBH_HUB_Device_Process+0xe2>
 800633e:	e7b9      	b.n	80062b4 <USBH_HUB_Device_Process+0x66>
 8006340:	2804      	cmp	r0, #4
 8006342:	d19a      	bne.n	800627a <USBH_HUB_Device_Process+0x2c>
 8006344:	e7b6      	b.n	80062b4 <USBH_HUB_Device_Process+0x66>

08006346 <DeInitStateMachine>:
 8006346:	f500 7362 	add.w	r3, r0, #904	; 0x388
 800634a:	f500 7271 	add.w	r2, r0, #964	; 0x3c4
 800634e:	2100      	movs	r1, #0
 8006350:	f843 1b04 	str.w	r1, [r3], #4
 8006354:	4293      	cmp	r3, r2
 8006356:	d1fb      	bne.n	8006350 <DeInitStateMachine+0xa>
 8006358:	f500 728e 	add.w	r2, r0, #284	; 0x11c
 800635c:	f500 7147 	add.w	r1, r0, #796	; 0x31c
 8006360:	2300      	movs	r3, #0
 8006362:	f802 3b01 	strb.w	r3, [r2], #1
 8006366:	428a      	cmp	r2, r1
 8006368:	d1fb      	bne.n	8006362 <DeInitStateMachine+0x1c>
 800636a:	7003      	strb	r3, [r0, #0]
 800636c:	2201      	movs	r2, #1
 800636e:	7043      	strb	r3, [r0, #1]
 8006370:	f8c0 33c8 	str.w	r3, [r0, #968]	; 0x3c8
 8006374:	2340      	movs	r3, #64	; 0x40
 8006376:	7082      	strb	r2, [r0, #2]
 8006378:	7183      	strb	r3, [r0, #6]
 800637a:	f44f 7380 	mov.w	r3, #256	; 0x100
 800637e:	8302      	strh	r2, [r0, #24]
 8006380:	f8c0 331c 	str.w	r3, [r0, #796]	; 0x31c
 8006384:	2000      	movs	r0, #0
 8006386:	4770      	bx	lr

08006388 <USBH_Init>:
 8006388:	b570      	push	{r4, r5, r6, lr}
 800638a:	460e      	mov	r6, r1
 800638c:	4604      	mov	r4, r0
 800638e:	b1b0      	cbz	r0, 80063be <USBH_Init+0x36>
 8006390:	2500      	movs	r5, #0
 8006392:	f880 23d0 	strb.w	r2, [r0, #976]	; 0x3d0
 8006396:	e9c0 55e0 	strd	r5, r5, [r0, #896]	; 0x380
 800639a:	f7ff ffd4 	bl	8006346 <DeInitStateMachine>
 800639e:	f884 5320 	strb.w	r5, [r4, #800]	; 0x320
 80063a2:	f884 5323 	strb.w	r5, [r4, #803]	; 0x323
 80063a6:	f884 5321 	strb.w	r5, [r4, #801]	; 0x321
 80063aa:	f884 5322 	strb.w	r5, [r4, #802]	; 0x322
 80063ae:	b10e      	cbz	r6, 80063b4 <USBH_Init+0x2c>
 80063b0:	f8c4 63d8 	str.w	r6, [r4, #984]	; 0x3d8
 80063b4:	4620      	mov	r0, r4
 80063b6:	f000 fe2b 	bl	8007010 <USBH_LL_Init>
 80063ba:	2000      	movs	r0, #0
 80063bc:	bd70      	pop	{r4, r5, r6, pc}
 80063be:	2002      	movs	r0, #2
 80063c0:	e7fc      	b.n	80063bc <USBH_Init+0x34>

080063c2 <USBH_RegisterClass>:
 80063c2:	b159      	cbz	r1, 80063dc <USBH_RegisterClass+0x1a>
 80063c4:	f8d0 3384 	ldr.w	r3, [r0, #900]	; 0x384
 80063c8:	2b01      	cmp	r3, #1
 80063ca:	d807      	bhi.n	80063dc <USBH_RegisterClass+0x1a>
 80063cc:	1c5a      	adds	r2, r3, #1
 80063ce:	33de      	adds	r3, #222	; 0xde
 80063d0:	f8c0 2384 	str.w	r2, [r0, #900]	; 0x384
 80063d4:	f840 1023 	str.w	r1, [r0, r3, lsl #2]
 80063d8:	2000      	movs	r0, #0
 80063da:	4770      	bx	lr
 80063dc:	2002      	movs	r0, #2
 80063de:	4770      	bx	lr

080063e0 <USBH_SelectInterface>:
 80063e0:	f890 333c 	ldrb.w	r3, [r0, #828]	; 0x33c
 80063e4:	428b      	cmp	r3, r1
 80063e6:	bf86      	itte	hi
 80063e8:	f880 1324 	strbhi.w	r1, [r0, #804]	; 0x324
 80063ec:	2000      	movhi	r0, #0
 80063ee:	2002      	movls	r0, #2
 80063f0:	4770      	bx	lr

080063f2 <USBH_FindInterface>:
 80063f2:	b570      	push	{r4, r5, r6, lr}
 80063f4:	2400      	movs	r4, #0
 80063f6:	f890 6347 	ldrb.w	r6, [r0, #839]	; 0x347
 80063fa:	b2e5      	uxtb	r5, r4
 80063fc:	428e      	cmp	r6, r1
 80063fe:	d001      	beq.n	8006404 <USBH_FindInterface+0x12>
 8006400:	29ff      	cmp	r1, #255	; 0xff
 8006402:	d10b      	bne.n	800641c <USBH_FindInterface+0x2a>
 8006404:	f890 6348 	ldrb.w	r6, [r0, #840]	; 0x348
 8006408:	4296      	cmp	r6, r2
 800640a:	d001      	beq.n	8006410 <USBH_FindInterface+0x1e>
 800640c:	2aff      	cmp	r2, #255	; 0xff
 800640e:	d105      	bne.n	800641c <USBH_FindInterface+0x2a>
 8006410:	f890 6349 	ldrb.w	r6, [r0, #841]	; 0x349
 8006414:	429e      	cmp	r6, r3
 8006416:	d004      	beq.n	8006422 <USBH_FindInterface+0x30>
 8006418:	2bff      	cmp	r3, #255	; 0xff
 800641a:	d002      	beq.n	8006422 <USBH_FindInterface+0x30>
 800641c:	301a      	adds	r0, #26
 800641e:	b114      	cbz	r4, 8006426 <USBH_FindInterface+0x34>
 8006420:	25ff      	movs	r5, #255	; 0xff
 8006422:	4628      	mov	r0, r5
 8006424:	bd70      	pop	{r4, r5, r6, pc}
 8006426:	2401      	movs	r4, #1
 8006428:	e7e5      	b.n	80063f6 <USBH_FindInterface+0x4>

0800642a <USBH_Start>:
 800642a:	b510      	push	{r4, lr}
 800642c:	4604      	mov	r4, r0
 800642e:	f000 fe3d 	bl	80070ac <USBH_LL_Start>
 8006432:	2101      	movs	r1, #1
 8006434:	4620      	mov	r0, r4
 8006436:	f000 feb5 	bl	80071a4 <USBH_LL_DriverVBUS>
 800643a:	2000      	movs	r0, #0
 800643c:	bd10      	pop	{r4, pc}

0800643e <USBH_Process>:
 800643e:	b570      	push	{r4, r5, r6, lr}
 8006440:	2302      	movs	r3, #2
 8006442:	b086      	sub	sp, #24
 8006444:	4604      	mov	r4, r0
 8006446:	f88d 3017 	strb.w	r3, [sp, #23]
 800644a:	f890 3321 	ldrb.w	r3, [r0, #801]	; 0x321
 800644e:	2b01      	cmp	r3, #1
 8006450:	d101      	bne.n	8006456 <USBH_Process+0x18>
 8006452:	2303      	movs	r3, #3
 8006454:	7003      	strb	r3, [r0, #0]
 8006456:	7823      	ldrb	r3, [r4, #0]
 8006458:	2b0b      	cmp	r3, #11
 800645a:	d81d      	bhi.n	8006498 <USBH_Process+0x5a>
 800645c:	e8df f013 	tbh	[pc, r3, lsl #1]
 8006460:	001f000c 	.word	0x001f000c
 8006464:	01d00041 	.word	0x01d00041
 8006468:	0077001c 	.word	0x0077001c
 800646c:	016301b2 	.word	0x016301b2
 8006470:	0176016c 	.word	0x0176016c
 8006474:	01c70183 	.word	0x01c70183
 8006478:	f894 3320 	ldrb.w	r3, [r4, #800]	; 0x320
 800647c:	b163      	cbz	r3, 8006498 <USBH_Process+0x5a>
 800647e:	2301      	movs	r3, #1
 8006480:	20c8      	movs	r0, #200	; 0xc8
 8006482:	7023      	strb	r3, [r4, #0]
 8006484:	f000 fea3 	bl	80071ce <USBH_Delay>
 8006488:	4620      	mov	r0, r4
 800648a:	f000 fe35 	bl	80070f8 <USBH_LL_ResetPort>
 800648e:	2300      	movs	r3, #0
 8006490:	f884 331c 	strb.w	r3, [r4, #796]	; 0x31c
 8006494:	f8c4 33cc 	str.w	r3, [r4, #972]	; 0x3cc
 8006498:	2000      	movs	r0, #0
 800649a:	b006      	add	sp, #24
 800649c:	bd70      	pop	{r4, r5, r6, pc}
 800649e:	f894 3323 	ldrb.w	r3, [r4, #803]	; 0x323
 80064a2:	2b01      	cmp	r3, #1
 80064a4:	d105      	bne.n	80064b2 <USBH_Process+0x74>
 80064a6:	2300      	movs	r3, #0
 80064a8:	f884 331f 	strb.w	r3, [r4, #799]	; 0x31f
 80064ac:	2302      	movs	r3, #2
 80064ae:	7023      	strb	r3, [r4, #0]
 80064b0:	e7f2      	b.n	8006498 <USBH_Process+0x5a>
 80064b2:	f8d4 33cc 	ldr.w	r3, [r4, #972]	; 0x3cc
 80064b6:	f5b3 7f7a 	cmp.w	r3, #1000	; 0x3e8
 80064ba:	d90b      	bls.n	80064d4 <USBH_Process+0x96>
 80064bc:	f894 331f 	ldrb.w	r3, [r4, #799]	; 0x31f
 80064c0:	3301      	adds	r3, #1
 80064c2:	b2db      	uxtb	r3, r3
 80064c4:	2b03      	cmp	r3, #3
 80064c6:	f884 331f 	strb.w	r3, [r4, #799]	; 0x31f
 80064ca:	d901      	bls.n	80064d0 <USBH_Process+0x92>
 80064cc:	230d      	movs	r3, #13
 80064ce:	e7ee      	b.n	80064ae <USBH_Process+0x70>
 80064d0:	2300      	movs	r3, #0
 80064d2:	e7ec      	b.n	80064ae <USBH_Process+0x70>
 80064d4:	330a      	adds	r3, #10
 80064d6:	200a      	movs	r0, #10
 80064d8:	f8c4 33cc 	str.w	r3, [r4, #972]	; 0x3cc
 80064dc:	f000 fe77 	bl	80071ce <USBH_Delay>
 80064e0:	e7da      	b.n	8006498 <USBH_Process+0x5a>
 80064e2:	f8d4 33d8 	ldr.w	r3, [r4, #984]	; 0x3d8
 80064e6:	b113      	cbz	r3, 80064ee <USBH_Process+0xb0>
 80064e8:	2104      	movs	r1, #4
 80064ea:	4620      	mov	r0, r4
 80064ec:	4798      	blx	r3
 80064ee:	2064      	movs	r0, #100	; 0x64
 80064f0:	2500      	movs	r5, #0
 80064f2:	f000 fe6c 	bl	80071ce <USBH_Delay>
 80064f6:	4620      	mov	r0, r4
 80064f8:	f000 fdf4 	bl	80070e4 <USBH_LL_GetSpeed>
 80064fc:	2305      	movs	r3, #5
 80064fe:	f884 031d 	strb.w	r0, [r4, #797]	; 0x31d
 8006502:	2100      	movs	r1, #0
 8006504:	7023      	strb	r3, [r4, #0]
 8006506:	4620      	mov	r0, r4
 8006508:	f000 fc1e 	bl	8006d48 <USBH_AllocPipe>
 800650c:	2180      	movs	r1, #128	; 0x80
 800650e:	7160      	strb	r0, [r4, #5]
 8006510:	4620      	mov	r0, r4
 8006512:	f000 fc19 	bl	8006d48 <USBH_AllocPipe>
 8006516:	79a3      	ldrb	r3, [r4, #6]
 8006518:	4601      	mov	r1, r0
 800651a:	7120      	strb	r0, [r4, #4]
 800651c:	9302      	str	r3, [sp, #8]
 800651e:	2280      	movs	r2, #128	; 0x80
 8006520:	f894 331d 	ldrb.w	r3, [r4, #797]	; 0x31d
 8006524:	4620      	mov	r0, r4
 8006526:	9501      	str	r5, [sp, #4]
 8006528:	9300      	str	r3, [sp, #0]
 800652a:	f894 331c 	ldrb.w	r3, [r4, #796]	; 0x31c
 800652e:	f000 fbf7 	bl	8006d20 <USBH_OpenPipe>
 8006532:	79a3      	ldrb	r3, [r4, #6]
 8006534:	462a      	mov	r2, r5
 8006536:	7961      	ldrb	r1, [r4, #5]
 8006538:	4620      	mov	r0, r4
 800653a:	e9cd 5301 	strd	r5, r3, [sp, #4]
 800653e:	f894 331d 	ldrb.w	r3, [r4, #797]	; 0x31d
 8006542:	9300      	str	r3, [sp, #0]
 8006544:	f894 331c 	ldrb.w	r3, [r4, #796]	; 0x31c
 8006548:	f000 fbea 	bl	8006d20 <USBH_OpenPipe>
 800654c:	e7a4      	b.n	8006498 <USBH_Process+0x5a>
 800654e:	7865      	ldrb	r5, [r4, #1]
 8006550:	2d07      	cmp	r5, #7
 8006552:	d82c      	bhi.n	80065ae <USBH_Process+0x170>
 8006554:	e8df f005 	tbb	[pc, r5]
 8006558:	90734204 	.word	0x90734204
 800655c:	d4c4b497 	.word	0xd4c4b497
 8006560:	2108      	movs	r1, #8
 8006562:	4620      	mov	r0, r4
 8006564:	f000 fb1a 	bl	8006b9c <USBH_Get_DevDesc>
 8006568:	4606      	mov	r6, r0
 800656a:	b9f0      	cbnz	r0, 80065aa <USBH_Process+0x16c>
 800656c:	f894 332d 	ldrb.w	r3, [r4, #813]	; 0x32d
 8006570:	2501      	movs	r5, #1
 8006572:	71a3      	strb	r3, [r4, #6]
 8006574:	7065      	strb	r5, [r4, #1]
 8006576:	e9cd 0301 	strd	r0, r3, [sp, #4]
 800657a:	f894 331d 	ldrb.w	r3, [r4, #797]	; 0x31d
 800657e:	9300      	str	r3, [sp, #0]
 8006580:	f894 331c 	ldrb.w	r3, [r4, #796]	; 0x31c
 8006584:	7921      	ldrb	r1, [r4, #4]
 8006586:	2280      	movs	r2, #128	; 0x80
 8006588:	4620      	mov	r0, r4
 800658a:	f000 fbc9 	bl	8006d20 <USBH_OpenPipe>
 800658e:	79a3      	ldrb	r3, [r4, #6]
 8006590:	4632      	mov	r2, r6
 8006592:	7961      	ldrb	r1, [r4, #5]
 8006594:	4620      	mov	r0, r4
 8006596:	e9cd 6301 	strd	r6, r3, [sp, #4]
 800659a:	f894 331d 	ldrb.w	r3, [r4, #797]	; 0x31d
 800659e:	9300      	str	r3, [sp, #0]
 80065a0:	f894 331c 	ldrb.w	r3, [r4, #796]	; 0x31c
 80065a4:	f000 fbbc 	bl	8006d20 <USBH_OpenPipe>
 80065a8:	e01f      	b.n	80065ea <USBH_Process+0x1ac>
 80065aa:	2803      	cmp	r0, #3
 80065ac:	d001      	beq.n	80065b2 <USBH_Process+0x174>
 80065ae:	2501      	movs	r5, #1
 80065b0:	e01b      	b.n	80065ea <USBH_Process+0x1ac>
 80065b2:	f894 331e 	ldrb.w	r3, [r4, #798]	; 0x31e
 80065b6:	3301      	adds	r3, #1
 80065b8:	b2db      	uxtb	r3, r3
 80065ba:	2b03      	cmp	r3, #3
 80065bc:	f884 331e 	strb.w	r3, [r4, #798]	; 0x31e
 80065c0:	d901      	bls.n	80065c6 <USBH_Process+0x188>
 80065c2:	230d      	movs	r3, #13
 80065c4:	e008      	b.n	80065d8 <USBH_Process+0x19a>
 80065c6:	7961      	ldrb	r1, [r4, #5]
 80065c8:	4620      	mov	r0, r4
 80065ca:	f000 fbd4 	bl	8006d76 <USBH_FreePipe>
 80065ce:	7921      	ldrb	r1, [r4, #4]
 80065d0:	4620      	mov	r0, r4
 80065d2:	f000 fbd0 	bl	8006d76 <USBH_FreePipe>
 80065d6:	2300      	movs	r3, #0
 80065d8:	7023      	strb	r3, [r4, #0]
 80065da:	e7e8      	b.n	80065ae <USBH_Process+0x170>
 80065dc:	2112      	movs	r1, #18
 80065de:	4620      	mov	r0, r4
 80065e0:	f000 fadc 	bl	8006b9c <USBH_Get_DevDesc>
 80065e4:	b998      	cbnz	r0, 800660e <USBH_Process+0x1d0>
 80065e6:	2302      	movs	r3, #2
 80065e8:	7063      	strb	r3, [r4, #1]
 80065ea:	f88d 5017 	strb.w	r5, [sp, #23]
 80065ee:	f89d 3017 	ldrb.w	r3, [sp, #23]
 80065f2:	f003 02ff 	and.w	r2, r3, #255	; 0xff
 80065f6:	2b00      	cmp	r3, #0
 80065f8:	f47f af4e 	bne.w	8006498 <USBH_Process+0x5a>
 80065fc:	f894 3337 	ldrb.w	r3, [r4, #823]	; 0x337
 8006600:	f884 2324 	strb.w	r2, [r4, #804]	; 0x324
 8006604:	2b01      	cmp	r3, #1
 8006606:	f040 808c 	bne.w	8006722 <USBH_Process+0x2e4>
 800660a:	2308      	movs	r3, #8
 800660c:	e74f      	b.n	80064ae <USBH_Process+0x70>
 800660e:	2803      	cmp	r0, #3
 8006610:	d1cd      	bne.n	80065ae <USBH_Process+0x170>
 8006612:	f894 331e 	ldrb.w	r3, [r4, #798]	; 0x31e
 8006616:	3301      	adds	r3, #1
 8006618:	b2db      	uxtb	r3, r3
 800661a:	2b03      	cmp	r3, #3
 800661c:	f884 331e 	strb.w	r3, [r4, #798]	; 0x31e
 8006620:	d902      	bls.n	8006628 <USBH_Process+0x1ea>
 8006622:	230d      	movs	r3, #13
 8006624:	7023      	strb	r3, [r4, #0]
 8006626:	e7e0      	b.n	80065ea <USBH_Process+0x1ac>
 8006628:	7961      	ldrb	r1, [r4, #5]
 800662a:	4620      	mov	r0, r4
 800662c:	f000 fba3 	bl	8006d76 <USBH_FreePipe>
 8006630:	7921      	ldrb	r1, [r4, #4]
 8006632:	4620      	mov	r0, r4
 8006634:	f000 fb9f 	bl	8006d76 <USBH_FreePipe>
 8006638:	2300      	movs	r3, #0
 800663a:	7063      	strb	r3, [r4, #1]
 800663c:	e7f2      	b.n	8006624 <USBH_Process+0x1e6>
 800663e:	2101      	movs	r1, #1
 8006640:	4620      	mov	r0, r4
 8006642:	f000 faf2 	bl	8006c2a <USBH_SetAddress>
 8006646:	4606      	mov	r6, r0
 8006648:	b978      	cbnz	r0, 800666a <USBH_Process+0x22c>
 800664a:	2002      	movs	r0, #2
 800664c:	2501      	movs	r5, #1
 800664e:	f000 fdbe 	bl	80071ce <USBH_Delay>
 8006652:	2303      	movs	r3, #3
 8006654:	f884 531c 	strb.w	r5, [r4, #796]	; 0x31c
 8006658:	7063      	strb	r3, [r4, #1]
 800665a:	79a3      	ldrb	r3, [r4, #6]
 800665c:	e9cd 6301 	strd	r6, r3, [sp, #4]
 8006660:	f894 331d 	ldrb.w	r3, [r4, #797]	; 0x31d
 8006664:	9300      	str	r3, [sp, #0]
 8006666:	462b      	mov	r3, r5
 8006668:	e78c      	b.n	8006584 <USBH_Process+0x146>
 800666a:	2803      	cmp	r0, #3
 800666c:	d19f      	bne.n	80065ae <USBH_Process+0x170>
 800666e:	230d      	movs	r3, #13
 8006670:	7023      	strb	r3, [r4, #0]
 8006672:	2300      	movs	r3, #0
 8006674:	7063      	strb	r3, [r4, #1]
 8006676:	e79a      	b.n	80065ae <USBH_Process+0x170>
 8006678:	2109      	movs	r1, #9
 800667a:	4620      	mov	r0, r4
 800667c:	f000 faa6 	bl	8006bcc <USBH_Get_CfgDesc>
 8006680:	b948      	cbnz	r0, 8006696 <USBH_Process+0x258>
 8006682:	2304      	movs	r3, #4
 8006684:	e7f6      	b.n	8006674 <USBH_Process+0x236>
 8006686:	f8b4 133a 	ldrh.w	r1, [r4, #826]	; 0x33a
 800668a:	4620      	mov	r0, r4
 800668c:	f000 fa9e 	bl	8006bcc <USBH_Get_CfgDesc>
 8006690:	b908      	cbnz	r0, 8006696 <USBH_Process+0x258>
 8006692:	2305      	movs	r3, #5
 8006694:	e7ee      	b.n	8006674 <USBH_Process+0x236>
 8006696:	2803      	cmp	r0, #3
 8006698:	d189      	bne.n	80065ae <USBH_Process+0x170>
 800669a:	f894 331e 	ldrb.w	r3, [r4, #798]	; 0x31e
 800669e:	3301      	adds	r3, #1
 80066a0:	b2db      	uxtb	r3, r3
 80066a2:	2b03      	cmp	r3, #3
 80066a4:	f884 331e 	strb.w	r3, [r4, #798]	; 0x31e
 80066a8:	d88b      	bhi.n	80065c2 <USBH_Process+0x184>
 80066aa:	7961      	ldrb	r1, [r4, #5]
 80066ac:	4620      	mov	r0, r4
 80066ae:	f000 fb62 	bl	8006d76 <USBH_FreePipe>
 80066b2:	7921      	ldrb	r1, [r4, #4]
 80066b4:	4620      	mov	r0, r4
 80066b6:	f000 fb5e 	bl	8006d76 <USBH_FreePipe>
 80066ba:	2300      	movs	r3, #0
 80066bc:	7063      	strb	r3, [r4, #1]
 80066be:	e78b      	b.n	80065d8 <USBH_Process+0x19a>
 80066c0:	f894 1334 	ldrb.w	r1, [r4, #820]	; 0x334
 80066c4:	b131      	cbz	r1, 80066d4 <USBH_Process+0x296>
 80066c6:	23ff      	movs	r3, #255	; 0xff
 80066c8:	f504 728e 	add.w	r2, r4, #284	; 0x11c
 80066cc:	4620      	mov	r0, r4
 80066ce:	f000 fa95 	bl	8006bfc <USBH_Get_StringDesc>
 80066d2:	b908      	cbnz	r0, 80066d8 <USBH_Process+0x29a>
 80066d4:	2306      	movs	r3, #6
 80066d6:	e7cd      	b.n	8006674 <USBH_Process+0x236>
 80066d8:	2803      	cmp	r0, #3
 80066da:	f47f af68 	bne.w	80065ae <USBH_Process+0x170>
 80066de:	e7f9      	b.n	80066d4 <USBH_Process+0x296>
 80066e0:	f894 1335 	ldrb.w	r1, [r4, #821]	; 0x335
 80066e4:	b131      	cbz	r1, 80066f4 <USBH_Process+0x2b6>
 80066e6:	23ff      	movs	r3, #255	; 0xff
 80066e8:	f504 728e 	add.w	r2, r4, #284	; 0x11c
 80066ec:	4620      	mov	r0, r4
 80066ee:	f000 fa85 	bl	8006bfc <USBH_Get_StringDesc>
 80066f2:	b908      	cbnz	r0, 80066f8 <USBH_Process+0x2ba>
 80066f4:	2307      	movs	r3, #7
 80066f6:	e7bd      	b.n	8006674 <USBH_Process+0x236>
 80066f8:	2803      	cmp	r0, #3
 80066fa:	f47f af58 	bne.w	80065ae <USBH_Process+0x170>
 80066fe:	e7f9      	b.n	80066f4 <USBH_Process+0x2b6>
 8006700:	f894 1336 	ldrb.w	r1, [r4, #822]	; 0x336
 8006704:	b909      	cbnz	r1, 800670a <USBH_Process+0x2cc>
 8006706:	2500      	movs	r5, #0
 8006708:	e76f      	b.n	80065ea <USBH_Process+0x1ac>
 800670a:	23ff      	movs	r3, #255	; 0xff
 800670c:	f504 728e 	add.w	r2, r4, #284	; 0x11c
 8006710:	4620      	mov	r0, r4
 8006712:	f000 fa73 	bl	8006bfc <USBH_Get_StringDesc>
 8006716:	2800      	cmp	r0, #0
 8006718:	d0f5      	beq.n	8006706 <USBH_Process+0x2c8>
 800671a:	1ec5      	subs	r5, r0, #3
 800671c:	bf18      	it	ne
 800671e:	2501      	movne	r5, #1
 8006720:	e763      	b.n	80065ea <USBH_Process+0x1ac>
 8006722:	2307      	movs	r3, #7
 8006724:	e6c3      	b.n	80064ae <USBH_Process+0x70>
 8006726:	f8d4 33d8 	ldr.w	r3, [r4, #984]	; 0x3d8
 800672a:	2b00      	cmp	r3, #0
 800672c:	f43f aeb4 	beq.w	8006498 <USBH_Process+0x5a>
 8006730:	2101      	movs	r1, #1
 8006732:	4620      	mov	r0, r4
 8006734:	4798      	blx	r3
 8006736:	e768      	b.n	800660a <USBH_Process+0x1cc>
 8006738:	f894 133d 	ldrb.w	r1, [r4, #829]	; 0x33d
 800673c:	4620      	mov	r0, r4
 800673e:	f000 fa81 	bl	8006c44 <USBH_SetCfg>
 8006742:	2800      	cmp	r0, #0
 8006744:	f47f aea8 	bne.w	8006498 <USBH_Process+0x5a>
 8006748:	2309      	movs	r3, #9
 800674a:	e6b0      	b.n	80064ae <USBH_Process+0x70>
 800674c:	f894 333f 	ldrb.w	r3, [r4, #831]	; 0x33f
 8006750:	069b      	lsls	r3, r3, #26
 8006752:	d506      	bpl.n	8006762 <USBH_Process+0x324>
 8006754:	2101      	movs	r1, #1
 8006756:	4620      	mov	r0, r4
 8006758:	f000 fa81 	bl	8006c5e <USBH_SetFeature>
 800675c:	2800      	cmp	r0, #0
 800675e:	f47f ae9b 	bne.w	8006498 <USBH_Process+0x5a>
 8006762:	230a      	movs	r3, #10
 8006764:	e6a3      	b.n	80064ae <USBH_Process+0x70>
 8006766:	f8d4 3384 	ldr.w	r3, [r4, #900]	; 0x384
 800676a:	2b00      	cmp	r3, #0
 800676c:	f43f ae94 	beq.w	8006498 <USBH_Process+0x5a>
 8006770:	2300      	movs	r3, #0
 8006772:	f8d4 1378 	ldr.w	r1, [r4, #888]	; 0x378
 8006776:	f894 2347 	ldrb.w	r2, [r4, #839]	; 0x347
 800677a:	f8c4 3380 	str.w	r3, [r4, #896]	; 0x380
 800677e:	7909      	ldrb	r1, [r1, #4]
 8006780:	4291      	cmp	r1, r2
 8006782:	d005      	beq.n	8006790 <USBH_Process+0x352>
 8006784:	f8d4 337c 	ldr.w	r3, [r4, #892]	; 0x37c
 8006788:	791b      	ldrb	r3, [r3, #4]
 800678a:	4293      	cmp	r3, r2
 800678c:	d105      	bne.n	800679a <USBH_Process+0x35c>
 800678e:	2301      	movs	r3, #1
 8006790:	33de      	adds	r3, #222	; 0xde
 8006792:	f854 3023 	ldr.w	r3, [r4, r3, lsl #2]
 8006796:	f8c4 3380 	str.w	r3, [r4, #896]	; 0x380
 800679a:	f8d4 3380 	ldr.w	r3, [r4, #896]	; 0x380
 800679e:	2b00      	cmp	r3, #0
 80067a0:	f43f ae94 	beq.w	80064cc <USBH_Process+0x8e>
 80067a4:	689b      	ldr	r3, [r3, #8]
 80067a6:	4620      	mov	r0, r4
 80067a8:	4798      	blx	r3
 80067aa:	b938      	cbnz	r0, 80067bc <USBH_Process+0x37e>
 80067ac:	2306      	movs	r3, #6
 80067ae:	2103      	movs	r1, #3
 80067b0:	4620      	mov	r0, r4
 80067b2:	7023      	strb	r3, [r4, #0]
 80067b4:	f8d4 33d8 	ldr.w	r3, [r4, #984]	; 0x3d8
 80067b8:	4798      	blx	r3
 80067ba:	e66d      	b.n	8006498 <USBH_Process+0x5a>
 80067bc:	2801      	cmp	r0, #1
 80067be:	f47f ae85 	bne.w	80064cc <USBH_Process+0x8e>
 80067c2:	e669      	b.n	8006498 <USBH_Process+0x5a>
 80067c4:	f8d4 3380 	ldr.w	r3, [r4, #896]	; 0x380
 80067c8:	2b00      	cmp	r3, #0
 80067ca:	f43f ae7f 	beq.w	80064cc <USBH_Process+0x8e>
 80067ce:	691b      	ldr	r3, [r3, #16]
 80067d0:	4620      	mov	r0, r4
 80067d2:	4798      	blx	r3
 80067d4:	f88d 0017 	strb.w	r0, [sp, #23]
 80067d8:	f89d 3017 	ldrb.w	r3, [sp, #23]
 80067dc:	b90b      	cbnz	r3, 80067e2 <USBH_Process+0x3a4>
 80067de:	230b      	movs	r3, #11
 80067e0:	e665      	b.n	80064ae <USBH_Process+0x70>
 80067e2:	f89d 3017 	ldrb.w	r3, [sp, #23]
 80067e6:	2b02      	cmp	r3, #2
 80067e8:	f47f ae56 	bne.w	8006498 <USBH_Process+0x5a>
 80067ec:	e66e      	b.n	80064cc <USBH_Process+0x8e>
 80067ee:	f8d4 3380 	ldr.w	r3, [r4, #896]	; 0x380
 80067f2:	2b00      	cmp	r3, #0
 80067f4:	f43f ae50 	beq.w	8006498 <USBH_Process+0x5a>
 80067f8:	695b      	ldr	r3, [r3, #20]
 80067fa:	4620      	mov	r0, r4
 80067fc:	4798      	blx	r3
 80067fe:	e64b      	b.n	8006498 <USBH_Process+0x5a>
 8006800:	2500      	movs	r5, #0
 8006802:	4620      	mov	r0, r4
 8006804:	f884 5321 	strb.w	r5, [r4, #801]	; 0x321
 8006808:	f7ff fd9d 	bl	8006346 <DeInitStateMachine>
 800680c:	f8d4 3380 	ldr.w	r3, [r4, #896]	; 0x380
 8006810:	b123      	cbz	r3, 800681c <USBH_Process+0x3de>
 8006812:	68db      	ldr	r3, [r3, #12]
 8006814:	4620      	mov	r0, r4
 8006816:	4798      	blx	r3
 8006818:	f8c4 5380 	str.w	r5, [r4, #896]	; 0x380
 800681c:	f8d4 33d8 	ldr.w	r3, [r4, #984]	; 0x3d8
 8006820:	b113      	cbz	r3, 8006828 <USBH_Process+0x3ea>
 8006822:	2105      	movs	r1, #5
 8006824:	4620      	mov	r0, r4
 8006826:	4798      	blx	r3
 8006828:	f894 3322 	ldrb.w	r3, [r4, #802]	; 0x322
 800682c:	2b01      	cmp	r3, #1
 800682e:	d106      	bne.n	800683e <USBH_Process+0x400>
 8006830:	2300      	movs	r3, #0
 8006832:	4620      	mov	r0, r4
 8006834:	f884 3322 	strb.w	r3, [r4, #802]	; 0x322
 8006838:	f7ff fdf7 	bl	800642a <USBH_Start>
 800683c:	e62c      	b.n	8006498 <USBH_Process+0x5a>
 800683e:	4620      	mov	r0, r4
 8006840:	f000 fc34 	bl	80070ac <USBH_LL_Start>
 8006844:	e628      	b.n	8006498 <USBH_Process+0x5a>

08006846 <USBH_LL_SetTimer>:
 8006846:	f8c0 13c8 	str.w	r1, [r0, #968]	; 0x3c8
 800684a:	4770      	bx	lr

0800684c <USBH_LL_IncTimer>:
 800684c:	f8d0 23c8 	ldr.w	r2, [r0, #968]	; 0x3c8
 8006850:	3201      	adds	r2, #1
 8006852:	f8c0 23c8 	str.w	r2, [r0, #968]	; 0x3c8
 8006856:	7802      	ldrb	r2, [r0, #0]
 8006858:	2a0b      	cmp	r2, #11
 800685a:	d104      	bne.n	8006866 <USBH_LL_IncTimer+0x1a>
 800685c:	f8d0 3380 	ldr.w	r3, [r0, #896]	; 0x380
 8006860:	b10b      	cbz	r3, 8006866 <USBH_LL_IncTimer+0x1a>
 8006862:	699b      	ldr	r3, [r3, #24]
 8006864:	4718      	bx	r3
 8006866:	4770      	bx	lr

08006868 <USBH_LL_PortEnabled>:
 8006868:	2301      	movs	r3, #1
 800686a:	f880 3323 	strb.w	r3, [r0, #803]	; 0x323
 800686e:	4770      	bx	lr

08006870 <USBH_LL_PortDisabled>:
 8006870:	2300      	movs	r3, #0
 8006872:	f880 3323 	strb.w	r3, [r0, #803]	; 0x323
 8006876:	4770      	bx	lr

08006878 <USBH_LL_Connect>:
 8006878:	2301      	movs	r3, #1
 800687a:	f880 3320 	strb.w	r3, [r0, #800]	; 0x320
 800687e:	2300      	movs	r3, #0
 8006880:	f880 3321 	strb.w	r3, [r0, #801]	; 0x321
 8006884:	f880 3322 	strb.w	r3, [r0, #802]	; 0x322
 8006888:	4618      	mov	r0, r3
 800688a:	4770      	bx	lr

0800688c <USBH_LL_Disconnect>:
 800688c:	b538      	push	{r3, r4, r5, lr}
 800688e:	2301      	movs	r3, #1
 8006890:	2500      	movs	r5, #0
 8006892:	4604      	mov	r4, r0
 8006894:	f880 3321 	strb.w	r3, [r0, #801]	; 0x321
 8006898:	f880 5323 	strb.w	r5, [r0, #803]	; 0x323
 800689c:	f880 5320 	strb.w	r5, [r0, #800]	; 0x320
 80068a0:	f000 fc12 	bl	80070c8 <USBH_LL_Stop>
 80068a4:	7921      	ldrb	r1, [r4, #4]
 80068a6:	4620      	mov	r0, r4
 80068a8:	f000 fa65 	bl	8006d76 <USBH_FreePipe>
 80068ac:	7961      	ldrb	r1, [r4, #5]
 80068ae:	4620      	mov	r0, r4
 80068b0:	f000 fa61 	bl	8006d76 <USBH_FreePipe>
 80068b4:	4628      	mov	r0, r5
 80068b6:	bd38      	pop	{r3, r4, r5, pc}

080068b8 <USBH_ParseDevDesc>:
 80068b8:	780b      	ldrb	r3, [r1, #0]
 80068ba:	2a08      	cmp	r2, #8
 80068bc:	7003      	strb	r3, [r0, #0]
 80068be:	784b      	ldrb	r3, [r1, #1]
 80068c0:	7043      	strb	r3, [r0, #1]
 80068c2:	884b      	ldrh	r3, [r1, #2]
 80068c4:	8043      	strh	r3, [r0, #2]
 80068c6:	790b      	ldrb	r3, [r1, #4]
 80068c8:	7103      	strb	r3, [r0, #4]
 80068ca:	794b      	ldrb	r3, [r1, #5]
 80068cc:	7143      	strb	r3, [r0, #5]
 80068ce:	798b      	ldrb	r3, [r1, #6]
 80068d0:	7183      	strb	r3, [r0, #6]
 80068d2:	79cb      	ldrb	r3, [r1, #7]
 80068d4:	71c3      	strb	r3, [r0, #7]
 80068d6:	d90d      	bls.n	80068f4 <USBH_ParseDevDesc+0x3c>
 80068d8:	890b      	ldrh	r3, [r1, #8]
 80068da:	8103      	strh	r3, [r0, #8]
 80068dc:	894b      	ldrh	r3, [r1, #10]
 80068de:	8143      	strh	r3, [r0, #10]
 80068e0:	898b      	ldrh	r3, [r1, #12]
 80068e2:	8183      	strh	r3, [r0, #12]
 80068e4:	7b8b      	ldrb	r3, [r1, #14]
 80068e6:	7383      	strb	r3, [r0, #14]
 80068e8:	7bcb      	ldrb	r3, [r1, #15]
 80068ea:	73c3      	strb	r3, [r0, #15]
 80068ec:	7c0b      	ldrb	r3, [r1, #16]
 80068ee:	7403      	strb	r3, [r0, #16]
 80068f0:	7c4b      	ldrb	r3, [r1, #17]
 80068f2:	7443      	strb	r3, [r0, #17]
 80068f4:	4770      	bx	lr

080068f6 <USBH_ParseInterfaceDesc>:
 80068f6:	780b      	ldrb	r3, [r1, #0]
 80068f8:	7003      	strb	r3, [r0, #0]
 80068fa:	784b      	ldrb	r3, [r1, #1]
 80068fc:	7043      	strb	r3, [r0, #1]
 80068fe:	788b      	ldrb	r3, [r1, #2]
 8006900:	7083      	strb	r3, [r0, #2]
 8006902:	78cb      	ldrb	r3, [r1, #3]
 8006904:	70c3      	strb	r3, [r0, #3]
 8006906:	790b      	ldrb	r3, [r1, #4]
 8006908:	7103      	strb	r3, [r0, #4]
 800690a:	794b      	ldrb	r3, [r1, #5]
 800690c:	7143      	strb	r3, [r0, #5]
 800690e:	798b      	ldrb	r3, [r1, #6]
 8006910:	7183      	strb	r3, [r0, #6]
 8006912:	79cb      	ldrb	r3, [r1, #7]
 8006914:	71c3      	strb	r3, [r0, #7]
 8006916:	7a0b      	ldrb	r3, [r1, #8]
 8006918:	7203      	strb	r3, [r0, #8]
 800691a:	4770      	bx	lr

0800691c <USBH_ParseEPDesc>:
 800691c:	780b      	ldrb	r3, [r1, #0]
 800691e:	7003      	strb	r3, [r0, #0]
 8006920:	784b      	ldrb	r3, [r1, #1]
 8006922:	7043      	strb	r3, [r0, #1]
 8006924:	788b      	ldrb	r3, [r1, #2]
 8006926:	7083      	strb	r3, [r0, #2]
 8006928:	78cb      	ldrb	r3, [r1, #3]
 800692a:	70c3      	strb	r3, [r0, #3]
 800692c:	888b      	ldrh	r3, [r1, #4]
 800692e:	8083      	strh	r3, [r0, #4]
 8006930:	798b      	ldrb	r3, [r1, #6]
 8006932:	7183      	strb	r3, [r0, #6]
 8006934:	4770      	bx	lr

08006936 <USBH_ParseCfgDesc>:
 8006936:	780b      	ldrb	r3, [r1, #0]
 8006938:	2a09      	cmp	r2, #9
 800693a:	e92d 41f0 	stmdb	sp!, {r4, r5, r6, r7, r8, lr}
 800693e:	7003      	strb	r3, [r0, #0]
 8006940:	4604      	mov	r4, r0
 8006942:	784b      	ldrb	r3, [r1, #1]
 8006944:	7043      	strb	r3, [r0, #1]
 8006946:	884b      	ldrh	r3, [r1, #2]
 8006948:	8043      	strh	r3, [r0, #2]
 800694a:	790b      	ldrb	r3, [r1, #4]
 800694c:	7103      	strb	r3, [r0, #4]
 800694e:	794b      	ldrb	r3, [r1, #5]
 8006950:	7143      	strb	r3, [r0, #5]
 8006952:	798b      	ldrb	r3, [r1, #6]
 8006954:	7183      	strb	r3, [r0, #6]
 8006956:	79cb      	ldrb	r3, [r1, #7]
 8006958:	71c3      	strb	r3, [r0, #7]
 800695a:	7a0b      	ldrb	r3, [r1, #8]
 800695c:	7203      	strb	r3, [r0, #8]
 800695e:	d908      	bls.n	8006972 <USBH_ParseCfgDesc+0x3c>
 8006960:	f100 0834 	add.w	r8, r0, #52	; 0x34
 8006964:	4605      	mov	r5, r0
 8006966:	2209      	movs	r2, #9
 8006968:	45a8      	cmp	r8, r5
 800696a:	d002      	beq.n	8006972 <USBH_ParseCfgDesc+0x3c>
 800696c:	8863      	ldrh	r3, [r4, #2]
 800696e:	4293      	cmp	r3, r2
 8006970:	d801      	bhi.n	8006976 <USBH_ParseCfgDesc+0x40>
 8006972:	e8bd 81f0 	ldmia.w	sp!, {r4, r5, r6, r7, r8, pc}
 8006976:	780b      	ldrb	r3, [r1, #0]
 8006978:	4419      	add	r1, r3
 800697a:	441a      	add	r2, r3
 800697c:	784b      	ldrb	r3, [r1, #1]
 800697e:	b292      	uxth	r2, r2
 8006980:	2b04      	cmp	r3, #4
 8006982:	d1f1      	bne.n	8006968 <USBH_ParseCfgDesc+0x32>
 8006984:	1b2f      	subs	r7, r5, r4
 8006986:	f105 000a 	add.w	r0, r5, #10
 800698a:	f7ff ffb4 	bl	80068f6 <USBH_ParseInterfaceDesc>
 800698e:	2300      	movs	r3, #0
 8006990:	370c      	adds	r7, #12
 8006992:	7ba8      	ldrb	r0, [r5, #14]
 8006994:	4298      	cmp	r0, r3
 8006996:	d902      	bls.n	800699e <USBH_ParseCfgDesc+0x68>
 8006998:	8860      	ldrh	r0, [r4, #2]
 800699a:	4290      	cmp	r0, r2
 800699c:	d801      	bhi.n	80069a2 <USBH_ParseCfgDesc+0x6c>
 800699e:	351a      	adds	r5, #26
 80069a0:	e7e2      	b.n	8006968 <USBH_ParseCfgDesc+0x32>
 80069a2:	7808      	ldrb	r0, [r1, #0]
 80069a4:	4401      	add	r1, r0
 80069a6:	4402      	add	r2, r0
 80069a8:	7848      	ldrb	r0, [r1, #1]
 80069aa:	b292      	uxth	r2, r2
 80069ac:	2805      	cmp	r0, #5
 80069ae:	d1f0      	bne.n	8006992 <USBH_ParseCfgDesc+0x5c>
 80069b0:	1c5e      	adds	r6, r3, #1
 80069b2:	eb07 00c6 	add.w	r0, r7, r6, lsl #3
 80069b6:	4420      	add	r0, r4
 80069b8:	f7ff ffb0 	bl	800691c <USBH_ParseEPDesc>
 80069bc:	b2f3      	uxtb	r3, r6
 80069be:	e7e8      	b.n	8006992 <USBH_ParseCfgDesc+0x5c>

080069c0 <USBH_ParseStringDesc>:
 80069c0:	7843      	ldrb	r3, [r0, #1]
 80069c2:	2b03      	cmp	r3, #3
 80069c4:	b510      	push	{r4, lr}
 80069c6:	d10a      	bne.n	80069de <USBH_ParseStringDesc+0x1e>
 80069c8:	7803      	ldrb	r3, [r0, #0]
 80069ca:	3b02      	subs	r3, #2
 80069cc:	429a      	cmp	r2, r3
 80069ce:	bf28      	it	cs
 80069d0:	461a      	movcs	r2, r3
 80069d2:	2300      	movs	r3, #0
 80069d4:	b292      	uxth	r2, r2
 80069d6:	429a      	cmp	r2, r3
 80069d8:	d802      	bhi.n	80069e0 <USBH_ParseStringDesc+0x20>
 80069da:	2300      	movs	r3, #0
 80069dc:	700b      	strb	r3, [r1, #0]
 80069de:	bd10      	pop	{r4, pc}
 80069e0:	18c4      	adds	r4, r0, r3
 80069e2:	3302      	adds	r3, #2
 80069e4:	78a4      	ldrb	r4, [r4, #2]
 80069e6:	b29b      	uxth	r3, r3
 80069e8:	f801 4b01 	strb.w	r4, [r1], #1
 80069ec:	e7f3      	b.n	80069d6 <USBH_ParseStringDesc+0x16>

080069ee <USBH_CtlReq>:
 80069ee:	b573      	push	{r0, r1, r4, r5, r6, lr}
 80069f0:	7885      	ldrb	r5, [r0, #2]
 80069f2:	4604      	mov	r4, r0
 80069f4:	2d01      	cmp	r5, #1
 80069f6:	d003      	beq.n	8006a00 <USBH_CtlReq+0x12>
 80069f8:	2d02      	cmp	r5, #2
 80069fa:	d007      	beq.n	8006a0c <USBH_CtlReq+0x1e>
 80069fc:	2501      	movs	r5, #1
 80069fe:	e019      	b.n	8006a34 <USBH_CtlReq+0x46>
 8006a00:	2302      	movs	r3, #2
 8006a02:	6081      	str	r1, [r0, #8]
 8006a04:	8182      	strh	r2, [r0, #12]
 8006a06:	7605      	strb	r5, [r0, #24]
 8006a08:	70a3      	strb	r3, [r4, #2]
 8006a0a:	e013      	b.n	8006a34 <USBH_CtlReq+0x46>
 8006a0c:	7e06      	ldrb	r6, [r0, #24]
 8006a0e:	1e73      	subs	r3, r6, #1
 8006a10:	2b0a      	cmp	r3, #10
 8006a12:	d8f3      	bhi.n	80069fc <USBH_CtlReq+0xe>
 8006a14:	e8df f003 	tbb	[pc, r3]
 8006a18:	392f1106 	.word	0x392f1106
 8006a1c:	675d4e42 	.word	0x675d4e42
 8006a20:	8478      	.short	0x8478
 8006a22:	8c          	.byte	0x8c
 8006a23:	00          	.byte	0x00
 8006a24:	7942      	ldrb	r2, [r0, #5]
 8006a26:	f100 0110 	add.w	r1, r0, #16
 8006a2a:	f000 f932 	bl	8006c92 <USBH_CtlSendSetup>
 8006a2e:	4635      	mov	r5, r6
 8006a30:	2302      	movs	r3, #2
 8006a32:	7623      	strb	r3, [r4, #24]
 8006a34:	4628      	mov	r0, r5
 8006a36:	b002      	add	sp, #8
 8006a38:	bd70      	pop	{r4, r5, r6, pc}
 8006a3a:	7941      	ldrb	r1, [r0, #5]
 8006a3c:	f000 fbae 	bl	800719c <USBH_LL_GetURBState>
 8006a40:	2801      	cmp	r0, #1
 8006a42:	4605      	mov	r5, r0
 8006a44:	d111      	bne.n	8006a6a <USBH_CtlReq+0x7c>
 8006a46:	8ae2      	ldrh	r2, [r4, #22]
 8006a48:	f994 3010 	ldrsb.w	r3, [r4, #16]
 8006a4c:	b13a      	cbz	r2, 8006a5e <USBH_CtlReq+0x70>
 8006a4e:	2b00      	cmp	r3, #0
 8006a50:	da02      	bge.n	8006a58 <USBH_CtlReq+0x6a>
 8006a52:	2303      	movs	r3, #3
 8006a54:	7623      	strb	r3, [r4, #24]
 8006a56:	e7ed      	b.n	8006a34 <USBH_CtlReq+0x46>
 8006a58:	2305      	movs	r3, #5
 8006a5a:	7623      	strb	r3, [r4, #24]
 8006a5c:	e7ce      	b.n	80069fc <USBH_CtlReq+0xe>
 8006a5e:	2b00      	cmp	r3, #0
 8006a60:	da01      	bge.n	8006a66 <USBH_CtlReq+0x78>
 8006a62:	2309      	movs	r3, #9
 8006a64:	e7f9      	b.n	8006a5a <USBH_CtlReq+0x6c>
 8006a66:	2307      	movs	r3, #7
 8006a68:	e7f7      	b.n	8006a5a <USBH_CtlReq+0x6c>
 8006a6a:	2804      	cmp	r0, #4
 8006a6c:	d001      	beq.n	8006a72 <USBH_CtlReq+0x84>
 8006a6e:	2802      	cmp	r0, #2
 8006a70:	d1c4      	bne.n	80069fc <USBH_CtlReq+0xe>
 8006a72:	230b      	movs	r3, #11
 8006a74:	e7f1      	b.n	8006a5a <USBH_CtlReq+0x6c>
 8006a76:	f8d0 33c8 	ldr.w	r3, [r0, #968]	; 0x3c8
 8006a7a:	8982      	ldrh	r2, [r0, #12]
 8006a7c:	81c3      	strh	r3, [r0, #14]
 8006a7e:	6881      	ldr	r1, [r0, #8]
 8006a80:	7903      	ldrb	r3, [r0, #4]
 8006a82:	f000 f92d 	bl	8006ce0 <USBH_CtlReceiveData>
 8006a86:	2304      	movs	r3, #4
 8006a88:	e7e7      	b.n	8006a5a <USBH_CtlReq+0x6c>
 8006a8a:	7901      	ldrb	r1, [r0, #4]
 8006a8c:	f000 fb86 	bl	800719c <USBH_LL_GetURBState>
 8006a90:	2801      	cmp	r0, #1
 8006a92:	d0e6      	beq.n	8006a62 <USBH_CtlReq+0x74>
 8006a94:	2805      	cmp	r0, #5
 8006a96:	d035      	beq.n	8006b04 <USBH_CtlReq+0x116>
 8006a98:	2804      	cmp	r0, #4
 8006a9a:	e7e9      	b.n	8006a70 <USBH_CtlReq+0x82>
 8006a9c:	2501      	movs	r5, #1
 8006a9e:	9500      	str	r5, [sp, #0]
 8006aa0:	7943      	ldrb	r3, [r0, #5]
 8006aa2:	8982      	ldrh	r2, [r0, #12]
 8006aa4:	6881      	ldr	r1, [r0, #8]
 8006aa6:	f000 f904 	bl	8006cb2 <USBH_CtlSendData>
 8006aaa:	f8d4 33c8 	ldr.w	r3, [r4, #968]	; 0x3c8
 8006aae:	81e3      	strh	r3, [r4, #14]
 8006ab0:	2306      	movs	r3, #6
 8006ab2:	e7cf      	b.n	8006a54 <USBH_CtlReq+0x66>
 8006ab4:	7941      	ldrb	r1, [r0, #5]
 8006ab6:	f000 fb71 	bl	800719c <USBH_LL_GetURBState>
 8006aba:	2801      	cmp	r0, #1
 8006abc:	d0d3      	beq.n	8006a66 <USBH_CtlReq+0x78>
 8006abe:	2805      	cmp	r0, #5
 8006ac0:	d020      	beq.n	8006b04 <USBH_CtlReq+0x116>
 8006ac2:	2802      	cmp	r0, #2
 8006ac4:	d0c8      	beq.n	8006a58 <USBH_CtlReq+0x6a>
 8006ac6:	2804      	cmp	r0, #4
 8006ac8:	d198      	bne.n	80069fc <USBH_CtlReq+0xe>
 8006aca:	230b      	movs	r3, #11
 8006acc:	7623      	strb	r3, [r4, #24]
 8006ace:	2301      	movs	r3, #1
 8006ad0:	e79a      	b.n	8006a08 <USBH_CtlReq+0x1a>
 8006ad2:	2200      	movs	r2, #0
 8006ad4:	7903      	ldrb	r3, [r0, #4]
 8006ad6:	4611      	mov	r1, r2
 8006ad8:	f000 f902 	bl	8006ce0 <USBH_CtlReceiveData>
 8006adc:	f8d4 33c8 	ldr.w	r3, [r4, #968]	; 0x3c8
 8006ae0:	81e3      	strh	r3, [r4, #14]
 8006ae2:	2308      	movs	r3, #8
 8006ae4:	e7b9      	b.n	8006a5a <USBH_CtlReq+0x6c>
 8006ae6:	7901      	ldrb	r1, [r0, #4]
 8006ae8:	f000 fb58 	bl	800719c <USBH_LL_GetURBState>
 8006aec:	2801      	cmp	r0, #1
 8006aee:	d104      	bne.n	8006afa <USBH_CtlReq+0x10c>
 8006af0:	2500      	movs	r5, #0
 8006af2:	2301      	movs	r3, #1
 8006af4:	70a3      	strb	r3, [r4, #2]
 8006af6:	2300      	movs	r3, #0
 8006af8:	e7ac      	b.n	8006a54 <USBH_CtlReq+0x66>
 8006afa:	2804      	cmp	r0, #4
 8006afc:	d0b9      	beq.n	8006a72 <USBH_CtlReq+0x84>
 8006afe:	2805      	cmp	r0, #5
 8006b00:	f47f af7c 	bne.w	80069fc <USBH_CtlReq+0xe>
 8006b04:	2503      	movs	r5, #3
 8006b06:	e7f4      	b.n	8006af2 <USBH_CtlReq+0x104>
 8006b08:	2200      	movs	r2, #0
 8006b0a:	2501      	movs	r5, #1
 8006b0c:	4611      	mov	r1, r2
 8006b0e:	9500      	str	r5, [sp, #0]
 8006b10:	7943      	ldrb	r3, [r0, #5]
 8006b12:	f000 f8ce 	bl	8006cb2 <USBH_CtlSendData>
 8006b16:	f8d4 33c8 	ldr.w	r3, [r4, #968]	; 0x3c8
 8006b1a:	81e3      	strh	r3, [r4, #14]
 8006b1c:	230a      	movs	r3, #10
 8006b1e:	e799      	b.n	8006a54 <USBH_CtlReq+0x66>
 8006b20:	7941      	ldrb	r1, [r0, #5]
 8006b22:	f000 fb3b 	bl	800719c <USBH_LL_GetURBState>
 8006b26:	2801      	cmp	r0, #1
 8006b28:	d0e2      	beq.n	8006af0 <USBH_CtlReq+0x102>
 8006b2a:	2802      	cmp	r0, #2
 8006b2c:	d1b4      	bne.n	8006a98 <USBH_CtlReq+0xaa>
 8006b2e:	e798      	b.n	8006a62 <USBH_CtlReq+0x74>
 8006b30:	7e43      	ldrb	r3, [r0, #25]
 8006b32:	3301      	adds	r3, #1
 8006b34:	b2db      	uxtb	r3, r3
 8006b36:	2b02      	cmp	r3, #2
 8006b38:	7643      	strb	r3, [r0, #25]
 8006b3a:	d803      	bhi.n	8006b44 <USBH_CtlReq+0x156>
 8006b3c:	2501      	movs	r5, #1
 8006b3e:	7605      	strb	r5, [r0, #24]
 8006b40:	7085      	strb	r5, [r0, #2]
 8006b42:	e777      	b.n	8006a34 <USBH_CtlReq+0x46>
 8006b44:	2600      	movs	r6, #0
 8006b46:	f8d0 33d8 	ldr.w	r3, [r0, #984]	; 0x3d8
 8006b4a:	2106      	movs	r1, #6
 8006b4c:	4798      	blx	r3
 8006b4e:	7961      	ldrb	r1, [r4, #5]
 8006b50:	4620      	mov	r0, r4
 8006b52:	7666      	strb	r6, [r4, #25]
 8006b54:	f000 f90f 	bl	8006d76 <USBH_FreePipe>
 8006b58:	7921      	ldrb	r1, [r4, #4]
 8006b5a:	4620      	mov	r0, r4
 8006b5c:	f000 f90b 	bl	8006d76 <USBH_FreePipe>
 8006b60:	7026      	strb	r6, [r4, #0]
 8006b62:	e7b4      	b.n	8006ace <USBH_CtlReq+0xe0>

08006b64 <USBH_GetDescriptor>:
 8006b64:	b470      	push	{r4, r5, r6}
 8006b66:	7886      	ldrb	r6, [r0, #2]
 8006b68:	460c      	mov	r4, r1
 8006b6a:	f8bd 5010 	ldrh.w	r5, [sp, #16]
 8006b6e:	2e01      	cmp	r6, #1
 8006b70:	9903      	ldr	r1, [sp, #12]
 8006b72:	d10f      	bne.n	8006b94 <USBH_GetDescriptor+0x30>
 8006b74:	f064 047f 	orn	r4, r4, #127	; 0x7f
 8006b78:	8242      	strh	r2, [r0, #18]
 8006b7a:	82c5      	strh	r5, [r0, #22]
 8006b7c:	7404      	strb	r4, [r0, #16]
 8006b7e:	2406      	movs	r4, #6
 8006b80:	7444      	strb	r4, [r0, #17]
 8006b82:	f402 447f 	and.w	r4, r2, #65280	; 0xff00
 8006b86:	f5b4 7f40 	cmp.w	r4, #768	; 0x300
 8006b8a:	bf14      	ite	ne
 8006b8c:	b29b      	uxthne	r3, r3
 8006b8e:	f240 4309 	movweq	r3, #1033	; 0x409
 8006b92:	8283      	strh	r3, [r0, #20]
 8006b94:	462a      	mov	r2, r5
 8006b96:	bc70      	pop	{r4, r5, r6}
 8006b98:	f7ff bf29 	b.w	80069ee <USBH_CtlReq>

08006b9c <USBH_Get_DevDesc>:
 8006b9c:	b5f7      	push	{r0, r1, r2, r4, r5, r6, r7, lr}
 8006b9e:	2300      	movs	r3, #0
 8006ba0:	f500 778e 	add.w	r7, r0, #284	; 0x11c
 8006ba4:	460e      	mov	r6, r1
 8006ba6:	f44f 7280 	mov.w	r2, #256	; 0x100
 8006baa:	4605      	mov	r5, r0
 8006bac:	e9cd 7100 	strd	r7, r1, [sp]
 8006bb0:	4619      	mov	r1, r3
 8006bb2:	f7ff ffd7 	bl	8006b64 <USBH_GetDescriptor>
 8006bb6:	4604      	mov	r4, r0
 8006bb8:	b928      	cbnz	r0, 8006bc6 <USBH_Get_DevDesc+0x2a>
 8006bba:	4632      	mov	r2, r6
 8006bbc:	4639      	mov	r1, r7
 8006bbe:	f205 3026 	addw	r0, r5, #806	; 0x326
 8006bc2:	f7ff fe79 	bl	80068b8 <USBH_ParseDevDesc>
 8006bc6:	4620      	mov	r0, r4
 8006bc8:	b003      	add	sp, #12
 8006bca:	bdf0      	pop	{r4, r5, r6, r7, pc}

08006bcc <USBH_Get_CfgDesc>:
 8006bcc:	b5f7      	push	{r0, r1, r2, r4, r5, r6, r7, lr}
 8006bce:	2300      	movs	r3, #0
 8006bd0:	f100 071c 	add.w	r7, r0, #28
 8006bd4:	460e      	mov	r6, r1
 8006bd6:	f44f 7200 	mov.w	r2, #512	; 0x200
 8006bda:	4605      	mov	r5, r0
 8006bdc:	e9cd 7100 	strd	r7, r1, [sp]
 8006be0:	4619      	mov	r1, r3
 8006be2:	f7ff ffbf 	bl	8006b64 <USBH_GetDescriptor>
 8006be6:	4604      	mov	r4, r0
 8006be8:	b928      	cbnz	r0, 8006bf6 <USBH_Get_CfgDesc+0x2a>
 8006bea:	4632      	mov	r2, r6
 8006bec:	4639      	mov	r1, r7
 8006bee:	f505 704e 	add.w	r0, r5, #824	; 0x338
 8006bf2:	f7ff fea0 	bl	8006936 <USBH_ParseCfgDesc>
 8006bf6:	4620      	mov	r0, r4
 8006bf8:	b003      	add	sp, #12
 8006bfa:	bdf0      	pop	{r4, r5, r6, r7, pc}

08006bfc <USBH_Get_StringDesc>:
 8006bfc:	b5f7      	push	{r0, r1, r2, r4, r5, r6, r7, lr}
 8006bfe:	f500 758e 	add.w	r5, r0, #284	; 0x11c
 8006c02:	461e      	mov	r6, r3
 8006c04:	4617      	mov	r7, r2
 8006c06:	f441 7240 	orr.w	r2, r1, #768	; 0x300
 8006c0a:	e9cd 5300 	strd	r5, r3, [sp]
 8006c0e:	2300      	movs	r3, #0
 8006c10:	4619      	mov	r1, r3
 8006c12:	f7ff ffa7 	bl	8006b64 <USBH_GetDescriptor>
 8006c16:	4604      	mov	r4, r0
 8006c18:	b920      	cbnz	r0, 8006c24 <USBH_Get_StringDesc+0x28>
 8006c1a:	4632      	mov	r2, r6
 8006c1c:	4639      	mov	r1, r7
 8006c1e:	4628      	mov	r0, r5
 8006c20:	f7ff fece 	bl	80069c0 <USBH_ParseStringDesc>
 8006c24:	4620      	mov	r0, r4
 8006c26:	b003      	add	sp, #12
 8006c28:	bdf0      	pop	{r4, r5, r6, r7, pc}

08006c2a <USBH_SetAddress>:
 8006c2a:	7883      	ldrb	r3, [r0, #2]
 8006c2c:	2b01      	cmp	r3, #1
 8006c2e:	d105      	bne.n	8006c3c <USBH_SetAddress+0x12>
 8006c30:	f44f 63a0 	mov.w	r3, #1280	; 0x500
 8006c34:	8241      	strh	r1, [r0, #18]
 8006c36:	8203      	strh	r3, [r0, #16]
 8006c38:	2300      	movs	r3, #0
 8006c3a:	6143      	str	r3, [r0, #20]
 8006c3c:	2200      	movs	r2, #0
 8006c3e:	4611      	mov	r1, r2
 8006c40:	f7ff bed5 	b.w	80069ee <USBH_CtlReq>

08006c44 <USBH_SetCfg>:
 8006c44:	7883      	ldrb	r3, [r0, #2]
 8006c46:	2b01      	cmp	r3, #1
 8006c48:	d105      	bne.n	8006c56 <USBH_SetCfg+0x12>
 8006c4a:	f44f 6310 	mov.w	r3, #2304	; 0x900
 8006c4e:	8241      	strh	r1, [r0, #18]
 8006c50:	8203      	strh	r3, [r0, #16]
 8006c52:	2300      	movs	r3, #0
 8006c54:	6143      	str	r3, [r0, #20]
 8006c56:	2200      	movs	r2, #0
 8006c58:	4611      	mov	r1, r2
 8006c5a:	f7ff bec8 	b.w	80069ee <USBH_CtlReq>

08006c5e <USBH_SetFeature>:
 8006c5e:	7883      	ldrb	r3, [r0, #2]
 8006c60:	2b01      	cmp	r3, #1
 8006c62:	d105      	bne.n	8006c70 <USBH_SetFeature+0x12>
 8006c64:	f44f 7340 	mov.w	r3, #768	; 0x300
 8006c68:	8241      	strh	r1, [r0, #18]
 8006c6a:	8203      	strh	r3, [r0, #16]
 8006c6c:	2300      	movs	r3, #0
 8006c6e:	6143      	str	r3, [r0, #20]
 8006c70:	2200      	movs	r2, #0
 8006c72:	4611      	mov	r1, r2
 8006c74:	f7ff bebb 	b.w	80069ee <USBH_CtlReq>

08006c78 <USBH_ClrFeature>:
 8006c78:	7883      	ldrb	r3, [r0, #2]
 8006c7a:	2b01      	cmp	r3, #1
 8006c7c:	d105      	bne.n	8006c8a <USBH_ClrFeature+0x12>
 8006c7e:	f44f 7381 	mov.w	r3, #258	; 0x102
 8006c82:	8281      	strh	r1, [r0, #20]
 8006c84:	6103      	str	r3, [r0, #16]
 8006c86:	2300      	movs	r3, #0
 8006c88:	82c3      	strh	r3, [r0, #22]
 8006c8a:	2200      	movs	r2, #0
 8006c8c:	4611      	mov	r1, r2
 8006c8e:	f7ff beae 	b.w	80069ee <USBH_CtlReq>

08006c92 <USBH_CtlSendSetup>:
 8006c92:	b51f      	push	{r0, r1, r2, r3, r4, lr}
 8006c94:	2400      	movs	r4, #0
 8006c96:	460b      	mov	r3, r1
 8006c98:	4611      	mov	r1, r2
 8006c9a:	2208      	movs	r2, #8
 8006c9c:	e9cd 4300 	strd	r4, r3, [sp]
 8006ca0:	e9cd 2402 	strd	r2, r4, [sp, #8]
 8006ca4:	4623      	mov	r3, r4
 8006ca6:	4622      	mov	r2, r4
 8006ca8:	f000 fa5e 	bl	8007168 <USBH_LL_SubmitURB>
 8006cac:	4620      	mov	r0, r4
 8006cae:	b004      	add	sp, #16
 8006cb0:	bd10      	pop	{r4, pc}

08006cb2 <USBH_CtlSendData>:
 8006cb2:	b530      	push	{r4, r5, lr}
 8006cb4:	f890 531d 	ldrb.w	r5, [r0, #797]	; 0x31d
 8006cb8:	b085      	sub	sp, #20
 8006cba:	460c      	mov	r4, r1
 8006cbc:	4619      	mov	r1, r3
 8006cbe:	2d00      	cmp	r5, #0
 8006cc0:	f89d 3020 	ldrb.w	r3, [sp, #32]
 8006cc4:	9401      	str	r4, [sp, #4]
 8006cc6:	bf18      	it	ne
 8006cc8:	2300      	movne	r3, #0
 8006cca:	e9cd 2302 	strd	r2, r3, [sp, #8]
 8006cce:	2301      	movs	r3, #1
 8006cd0:	9300      	str	r3, [sp, #0]
 8006cd2:	2300      	movs	r3, #0
 8006cd4:	461a      	mov	r2, r3
 8006cd6:	f000 fa47 	bl	8007168 <USBH_LL_SubmitURB>
 8006cda:	2000      	movs	r0, #0
 8006cdc:	b005      	add	sp, #20
 8006cde:	bd30      	pop	{r4, r5, pc}

08006ce0 <USBH_CtlReceiveData>:
 8006ce0:	b530      	push	{r4, r5, lr}
 8006ce2:	2400      	movs	r4, #0
 8006ce4:	b085      	sub	sp, #20
 8006ce6:	460d      	mov	r5, r1
 8006ce8:	4619      	mov	r1, r3
 8006cea:	4623      	mov	r3, r4
 8006cec:	9501      	str	r5, [sp, #4]
 8006cee:	e9cd 2402 	strd	r2, r4, [sp, #8]
 8006cf2:	2201      	movs	r2, #1
 8006cf4:	9200      	str	r2, [sp, #0]
 8006cf6:	f000 fa37 	bl	8007168 <USBH_LL_SubmitURB>
 8006cfa:	4620      	mov	r0, r4
 8006cfc:	b005      	add	sp, #20
 8006cfe:	bd30      	pop	{r4, r5, pc}

08006d00 <USBH_InterruptReceiveData>:
 8006d00:	b530      	push	{r4, r5, lr}
 8006d02:	2400      	movs	r4, #0
 8006d04:	b085      	sub	sp, #20
 8006d06:	460d      	mov	r5, r1
 8006d08:	4619      	mov	r1, r3
 8006d0a:	2303      	movs	r3, #3
 8006d0c:	9501      	str	r5, [sp, #4]
 8006d0e:	e9cd 2402 	strd	r2, r4, [sp, #8]
 8006d12:	2201      	movs	r2, #1
 8006d14:	9200      	str	r2, [sp, #0]
 8006d16:	f000 fa27 	bl	8007168 <USBH_LL_SubmitURB>
 8006d1a:	4620      	mov	r0, r4
 8006d1c:	b005      	add	sp, #20
 8006d1e:	bd30      	pop	{r4, r5, pc}

08006d20 <USBH_OpenPipe>:
 8006d20:	b51f      	push	{r0, r1, r2, r3, r4, lr}
 8006d22:	f8bd 4020 	ldrh.w	r4, [sp, #32]
 8006d26:	9402      	str	r4, [sp, #8]
 8006d28:	f89d 401c 	ldrb.w	r4, [sp, #28]
 8006d2c:	9401      	str	r4, [sp, #4]
 8006d2e:	f89d 4018 	ldrb.w	r4, [sp, #24]
 8006d32:	9400      	str	r4, [sp, #0]
 8006d34:	f000 f9f2 	bl	800711c <USBH_LL_OpenPipe>
 8006d38:	2000      	movs	r0, #0
 8006d3a:	b004      	add	sp, #16
 8006d3c:	bd10      	pop	{r4, pc}

08006d3e <USBH_ClosePipe>:
 8006d3e:	b508      	push	{r3, lr}
 8006d40:	f000 fa04 	bl	800714c <USBH_LL_ClosePipe>
 8006d44:	2000      	movs	r0, #0
 8006d46:	bd08      	pop	{r3, pc}

08006d48 <USBH_AllocPipe>:
 8006d48:	b530      	push	{r4, r5, lr}
 8006d4a:	2300      	movs	r3, #0
 8006d4c:	f500 7462 	add.w	r4, r0, #904	; 0x388
 8006d50:	f854 5b04 	ldr.w	r5, [r4], #4
 8006d54:	b2da      	uxtb	r2, r3
 8006d56:	042d      	lsls	r5, r5, #16
 8006d58:	d407      	bmi.n	8006d6a <USBH_AllocPipe+0x22>
 8006d5a:	33e2      	adds	r3, #226	; 0xe2
 8006d5c:	f441 4100 	orr.w	r1, r1, #32768	; 0x8000
 8006d60:	b292      	uxth	r2, r2
 8006d62:	f840 1023 	str.w	r1, [r0, r3, lsl #2]
 8006d66:	b2d0      	uxtb	r0, r2
 8006d68:	bd30      	pop	{r4, r5, pc}
 8006d6a:	3301      	adds	r3, #1
 8006d6c:	2b0b      	cmp	r3, #11
 8006d6e:	d1ef      	bne.n	8006d50 <USBH_AllocPipe+0x8>
 8006d70:	f64f 72ff 	movw	r2, #65535	; 0xffff
 8006d74:	e7f7      	b.n	8006d66 <USBH_AllocPipe+0x1e>

08006d76 <USBH_FreePipe>:
 8006d76:	290a      	cmp	r1, #10
 8006d78:	bf98      	it	ls
 8006d7a:	eb00 0181 	addls.w	r1, r0, r1, lsl #2
 8006d7e:	f04f 0000 	mov.w	r0, #0
 8006d82:	bf9e      	ittt	ls
 8006d84:	f8d1 3388 	ldrls.w	r3, [r1, #904]	; 0x388
 8006d88:	f3c3 030e 	ubfxls	r3, r3, #0, #15
 8006d8c:	f8c1 3388 	strls.w	r3, [r1, #904]	; 0x388
 8006d90:	4770      	bx	lr
	...

08006d94 <USBH_UserProcess1>:
 8006d94:	2904      	cmp	r1, #4
 8006d96:	d00a      	beq.n	8006dae <USBH_UserProcess1+0x1a>
 8006d98:	2905      	cmp	r1, #5
 8006d9a:	d004      	beq.n	8006da6 <USBH_UserProcess1+0x12>
 8006d9c:	2902      	cmp	r1, #2
 8006d9e:	d105      	bne.n	8006dac <USBH_UserProcess1+0x18>
 8006da0:	4b04      	ldr	r3, [pc, #16]	; (8006db4 <USBH_UserProcess1+0x20>)
 8006da2:	7019      	strb	r1, [r3, #0]
 8006da4:	4770      	bx	lr
 8006da6:	4b03      	ldr	r3, [pc, #12]	; (8006db4 <USBH_UserProcess1+0x20>)
 8006da8:	2203      	movs	r2, #3
 8006daa:	701a      	strb	r2, [r3, #0]
 8006dac:	4770      	bx	lr
 8006dae:	4b01      	ldr	r3, [pc, #4]	; (8006db4 <USBH_UserProcess1+0x20>)
 8006db0:	2201      	movs	r2, #1
 8006db2:	e7fa      	b.n	8006daa <USBH_UserProcess1+0x16>
 8006db4:	2000011c 	.word	0x2000011c

08006db8 <USBH_UserProcess2>:
 8006db8:	2904      	cmp	r1, #4
 8006dba:	d00a      	beq.n	8006dd2 <USBH_UserProcess2+0x1a>
 8006dbc:	2905      	cmp	r1, #5
 8006dbe:	d004      	beq.n	8006dca <USBH_UserProcess2+0x12>
 8006dc0:	2902      	cmp	r1, #2
 8006dc2:	d105      	bne.n	8006dd0 <USBH_UserProcess2+0x18>
 8006dc4:	4b04      	ldr	r3, [pc, #16]	; (8006dd8 <USBH_UserProcess2+0x20>)
 8006dc6:	7019      	strb	r1, [r3, #0]
 8006dc8:	4770      	bx	lr
 8006dca:	4b03      	ldr	r3, [pc, #12]	; (8006dd8 <USBH_UserProcess2+0x20>)
 8006dcc:	2203      	movs	r2, #3
 8006dce:	701a      	strb	r2, [r3, #0]
 8006dd0:	4770      	bx	lr
 8006dd2:	4b01      	ldr	r3, [pc, #4]	; (8006dd8 <USBH_UserProcess2+0x20>)
 8006dd4:	2201      	movs	r2, #1
 8006dd6:	e7fa      	b.n	8006dce <USBH_UserProcess2+0x16>
 8006dd8:	2000011d 	.word	0x2000011d

08006ddc <MX_USB_HOST_Init>:
 8006ddc:	b508      	push	{r3, lr}
 8006dde:	2200      	movs	r2, #0
 8006de0:	491d      	ldr	r1, [pc, #116]	; (8006e58 <MX_USB_HOST_Init+0x7c>)
 8006de2:	481e      	ldr	r0, [pc, #120]	; (8006e5c <MX_USB_HOST_Init+0x80>)
 8006de4:	f7ff fad0 	bl	8006388 <USBH_Init>
 8006de8:	b108      	cbz	r0, 8006dee <MX_USB_HOST_Init+0x12>
 8006dea:	f7f9 fe9f 	bl	8000b2c <Error_Handler>
 8006dee:	491c      	ldr	r1, [pc, #112]	; (8006e60 <MX_USB_HOST_Init+0x84>)
 8006df0:	481a      	ldr	r0, [pc, #104]	; (8006e5c <MX_USB_HOST_Init+0x80>)
 8006df2:	f7ff fae6 	bl	80063c2 <USBH_RegisterClass>
 8006df6:	b108      	cbz	r0, 8006dfc <MX_USB_HOST_Init+0x20>
 8006df8:	f7f9 fe98 	bl	8000b2c <Error_Handler>
 8006dfc:	4817      	ldr	r0, [pc, #92]	; (8006e5c <MX_USB_HOST_Init+0x80>)
 8006dfe:	f7ff fb14 	bl	800642a <USBH_Start>
 8006e02:	b108      	cbz	r0, 8006e08 <MX_USB_HOST_Init+0x2c>
 8006e04:	f7f9 fe92 	bl	8000b2c <Error_Handler>
 8006e08:	2201      	movs	r2, #1
 8006e0a:	4916      	ldr	r1, [pc, #88]	; (8006e64 <MX_USB_HOST_Init+0x88>)
 8006e0c:	4816      	ldr	r0, [pc, #88]	; (8006e68 <MX_USB_HOST_Init+0x8c>)
 8006e0e:	f7ff fabb 	bl	8006388 <USBH_Init>
 8006e12:	b108      	cbz	r0, 8006e18 <MX_USB_HOST_Init+0x3c>
 8006e14:	f7f9 fe8a 	bl	8000b2c <Error_Handler>
 8006e18:	4914      	ldr	r1, [pc, #80]	; (8006e6c <MX_USB_HOST_Init+0x90>)
 8006e1a:	4813      	ldr	r0, [pc, #76]	; (8006e68 <MX_USB_HOST_Init+0x8c>)
 8006e1c:	f7ff fad1 	bl	80063c2 <USBH_RegisterClass>
 8006e20:	b108      	cbz	r0, 8006e26 <MX_USB_HOST_Init+0x4a>
 8006e22:	f7f9 fe83 	bl	8000b2c <Error_Handler>
 8006e26:	4912      	ldr	r1, [pc, #72]	; (8006e70 <MX_USB_HOST_Init+0x94>)
 8006e28:	480f      	ldr	r0, [pc, #60]	; (8006e68 <MX_USB_HOST_Init+0x8c>)
 8006e2a:	f7ff faca 	bl	80063c2 <USBH_RegisterClass>
 8006e2e:	b108      	cbz	r0, 8006e34 <MX_USB_HOST_Init+0x58>
 8006e30:	f7f9 fe7c 	bl	8000b2c <Error_Handler>
 8006e34:	480c      	ldr	r0, [pc, #48]	; (8006e68 <MX_USB_HOST_Init+0x8c>)
 8006e36:	f7ff faf8 	bl	800642a <USBH_Start>
 8006e3a:	b108      	cbz	r0, 8006e40 <MX_USB_HOST_Init+0x64>
 8006e3c:	f7f9 fe76 	bl	8000b2c <Error_Handler>
 8006e40:	4b06      	ldr	r3, [pc, #24]	; (8006e5c <MX_USB_HOST_Init+0x80>)
 8006e42:	f8d3 2380 	ldr.w	r2, [r3, #896]	; 0x380
 8006e46:	2300      	movs	r3, #0
 8006e48:	e9c2 3308 	strd	r3, r3, [r2, #32]
 8006e4c:	4a06      	ldr	r2, [pc, #24]	; (8006e68 <MX_USB_HOST_Init+0x8c>)
 8006e4e:	f8d2 2380 	ldr.w	r2, [r2, #896]	; 0x380
 8006e52:	e9c2 3308 	strd	r3, r3, [r2, #32]
 8006e56:	bd08      	pop	{r3, pc}
 8006e58:	08006d95 	.word	0x08006d95
 8006e5c:	20000968 	.word	0x20000968
 8006e60:	20000038 	.word	0x20000038
 8006e64:	08006db9 	.word	0x08006db9
 8006e68:	2000058c 	.word	0x2000058c
 8006e6c:	20000010 	.word	0x20000010
 8006e70:	20000060 	.word	0x20000060

08006e74 <MX_USB_HOST_Process>:
 8006e74:	b508      	push	{r3, lr}
 8006e76:	4804      	ldr	r0, [pc, #16]	; (8006e88 <MX_USB_HOST_Process+0x14>)
 8006e78:	f7ff fae1 	bl	800643e <USBH_Process>
 8006e7c:	4803      	ldr	r0, [pc, #12]	; (8006e8c <MX_USB_HOST_Process+0x18>)
 8006e7e:	e8bd 4008 	ldmia.w	sp!, {r3, lr}
 8006e82:	f7ff badc 	b.w	800643e <USBH_Process>
 8006e86:	bf00      	nop
 8006e88:	20000968 	.word	0x20000968
 8006e8c:	2000058c 	.word	0x2000058c

08006e90 <HAL_HCD_MspInit>:
 8006e90:	b510      	push	{r4, lr}
 8006e92:	b0ac      	sub	sp, #176	; 0xb0
 8006e94:	4604      	mov	r4, r0
 8006e96:	2214      	movs	r2, #20
 8006e98:	2100      	movs	r1, #0
 8006e9a:	a807      	add	r0, sp, #28
 8006e9c:	f000 f9d4 	bl	8007248 <memset>
 8006ea0:	2280      	movs	r2, #128	; 0x80
 8006ea2:	2100      	movs	r1, #0
 8006ea4:	a80c      	add	r0, sp, #48	; 0x30
 8006ea6:	f000 f9cf 	bl	8007248 <memset>
 8006eaa:	6823      	ldr	r3, [r4, #0]
 8006eac:	f1b3 4fa0 	cmp.w	r3, #1342177280	; 0x50000000
 8006eb0:	d140      	bne.n	8006f34 <HAL_HCD_MspInit+0xa4>
 8006eb2:	f44f 1300 	mov.w	r3, #2097152	; 0x200000
 8006eb6:	a80c      	add	r0, sp, #48	; 0x30
 8006eb8:	930c      	str	r3, [sp, #48]	; 0x30
 8006eba:	2300      	movs	r3, #0
 8006ebc:	9329      	str	r3, [sp, #164]	; 0xa4
 8006ebe:	f7fb fd9f 	bl	8002a00 <HAL_RCCEx_PeriphCLKConfig>
 8006ec2:	b108      	cbz	r0, 8006ec8 <HAL_HCD_MspInit+0x38>
 8006ec4:	f7f9 fe32 	bl	8000b2c <Error_Handler>
 8006ec8:	4c42      	ldr	r4, [pc, #264]	; (8006fd4 <HAL_HCD_MspInit+0x144>)
 8006eca:	f44f 50c0 	mov.w	r0, #6144	; 0x1800
 8006ece:	f04f 0c00 	mov.w	ip, #0
 8006ed2:	a907      	add	r1, sp, #28
 8006ed4:	6b23      	ldr	r3, [r4, #48]	; 0x30
 8006ed6:	f043 0301 	orr.w	r3, r3, #1
 8006eda:	6323      	str	r3, [r4, #48]	; 0x30
 8006edc:	6b23      	ldr	r3, [r4, #48]	; 0x30
 8006ede:	f003 0301 	and.w	r3, r3, #1
 8006ee2:	9301      	str	r3, [sp, #4]
 8006ee4:	9b01      	ldr	r3, [sp, #4]
 8006ee6:	2302      	movs	r3, #2
 8006ee8:	e9cd 0307 	strd	r0, r3, [sp, #28]
 8006eec:	2303      	movs	r3, #3
 8006eee:	483a      	ldr	r0, [pc, #232]	; (8006fd8 <HAL_HCD_MspInit+0x148>)
 8006ef0:	e9cd c309 	strd	ip, r3, [sp, #36]	; 0x24
 8006ef4:	230a      	movs	r3, #10
 8006ef6:	930b      	str	r3, [sp, #44]	; 0x2c
 8006ef8:	f7fa fc78 	bl	80017ec <HAL_GPIO_Init>
 8006efc:	6b63      	ldr	r3, [r4, #52]	; 0x34
 8006efe:	2201      	movs	r2, #1
 8006f00:	2043      	movs	r0, #67	; 0x43
 8006f02:	f043 0380 	orr.w	r3, r3, #128	; 0x80
 8006f06:	4611      	mov	r1, r2
 8006f08:	6363      	str	r3, [r4, #52]	; 0x34
 8006f0a:	6b63      	ldr	r3, [r4, #52]	; 0x34
 8006f0c:	f003 0380 	and.w	r3, r3, #128	; 0x80
 8006f10:	9302      	str	r3, [sp, #8]
 8006f12:	9b02      	ldr	r3, [sp, #8]
 8006f14:	6c63      	ldr	r3, [r4, #68]	; 0x44
 8006f16:	f443 4380 	orr.w	r3, r3, #16384	; 0x4000
 8006f1a:	6463      	str	r3, [r4, #68]	; 0x44
 8006f1c:	6c63      	ldr	r3, [r4, #68]	; 0x44
 8006f1e:	f403 4380 	and.w	r3, r3, #16384	; 0x4000
 8006f22:	9303      	str	r3, [sp, #12]
 8006f24:	9b03      	ldr	r3, [sp, #12]
 8006f26:	f7fa fa89 	bl	800143c <HAL_NVIC_SetPriority>
 8006f2a:	2043      	movs	r0, #67	; 0x43
 8006f2c:	f7fa fab8 	bl	80014a0 <HAL_NVIC_EnableIRQ>
 8006f30:	b02c      	add	sp, #176	; 0xb0
 8006f32:	bd10      	pop	{r4, pc}
 8006f34:	4a29      	ldr	r2, [pc, #164]	; (8006fdc <HAL_HCD_MspInit+0x14c>)
 8006f36:	4293      	cmp	r3, r2
 8006f38:	d1fa      	bne.n	8006f30 <HAL_HCD_MspInit+0xa0>
 8006f3a:	f44f 1300 	mov.w	r3, #2097152	; 0x200000
 8006f3e:	a80c      	add	r0, sp, #48	; 0x30
 8006f40:	930c      	str	r3, [sp, #48]	; 0x30
 8006f42:	2300      	movs	r3, #0
 8006f44:	9329      	str	r3, [sp, #164]	; 0xa4
 8006f46:	f7fb fd5b 	bl	8002a00 <HAL_RCCEx_PeriphCLKConfig>
 8006f4a:	b108      	cbz	r0, 8006f50 <HAL_HCD_MspInit+0xc0>
 8006f4c:	f7f9 fdee 	bl	8000b2c <Error_Handler>
 8006f50:	4c20      	ldr	r4, [pc, #128]	; (8006fd4 <HAL_HCD_MspInit+0x144>)
 8006f52:	f44f 4240 	mov.w	r2, #49152	; 0xc000
 8006f56:	a907      	add	r1, sp, #28
 8006f58:	4821      	ldr	r0, [pc, #132]	; (8006fe0 <HAL_HCD_MspInit+0x150>)
 8006f5a:	6b23      	ldr	r3, [r4, #48]	; 0x30
 8006f5c:	f043 0302 	orr.w	r3, r3, #2
 8006f60:	6323      	str	r3, [r4, #48]	; 0x30
 8006f62:	6b23      	ldr	r3, [r4, #48]	; 0x30
 8006f64:	f003 0302 	and.w	r3, r3, #2
 8006f68:	9304      	str	r3, [sp, #16]
 8006f6a:	9b04      	ldr	r3, [sp, #16]
 8006f6c:	2302      	movs	r3, #2
 8006f6e:	e9cd 2307 	strd	r2, r3, [sp, #28]
 8006f72:	2200      	movs	r2, #0
 8006f74:	2303      	movs	r3, #3
 8006f76:	e9cd 2309 	strd	r2, r3, [sp, #36]	; 0x24
 8006f7a:	230c      	movs	r3, #12
 8006f7c:	930b      	str	r3, [sp, #44]	; 0x2c
 8006f7e:	f7fa fc35 	bl	80017ec <HAL_GPIO_Init>
 8006f82:	6c63      	ldr	r3, [r4, #68]	; 0x44
 8006f84:	2200      	movs	r2, #0
 8006f86:	2101      	movs	r1, #1
 8006f88:	204a      	movs	r0, #74	; 0x4a
 8006f8a:	f043 4300 	orr.w	r3, r3, #2147483648	; 0x80000000
 8006f8e:	6463      	str	r3, [r4, #68]	; 0x44
 8006f90:	6c63      	ldr	r3, [r4, #68]	; 0x44
 8006f92:	f003 4300 	and.w	r3, r3, #2147483648	; 0x80000000
 8006f96:	9305      	str	r3, [sp, #20]
 8006f98:	9b05      	ldr	r3, [sp, #20]
 8006f9a:	6b23      	ldr	r3, [r4, #48]	; 0x30
 8006f9c:	f043 5300 	orr.w	r3, r3, #536870912	; 0x20000000
 8006fa0:	6323      	str	r3, [r4, #48]	; 0x30
 8006fa2:	6b23      	ldr	r3, [r4, #48]	; 0x30
 8006fa4:	f003 5300 	and.w	r3, r3, #536870912	; 0x20000000
 8006fa8:	9306      	str	r3, [sp, #24]
 8006faa:	9b06      	ldr	r3, [sp, #24]
 8006fac:	f7fa fa46 	bl	800143c <HAL_NVIC_SetPriority>
 8006fb0:	204a      	movs	r0, #74	; 0x4a
 8006fb2:	f7fa fa75 	bl	80014a0 <HAL_NVIC_EnableIRQ>
 8006fb6:	2200      	movs	r2, #0
 8006fb8:	2101      	movs	r1, #1
 8006fba:	204b      	movs	r0, #75	; 0x4b
 8006fbc:	f7fa fa3e 	bl	800143c <HAL_NVIC_SetPriority>
 8006fc0:	204b      	movs	r0, #75	; 0x4b
 8006fc2:	f7fa fa6d 	bl	80014a0 <HAL_NVIC_EnableIRQ>
 8006fc6:	204d      	movs	r0, #77	; 0x4d
 8006fc8:	2200      	movs	r2, #0
 8006fca:	2101      	movs	r1, #1
 8006fcc:	f7fa fa36 	bl	800143c <HAL_NVIC_SetPriority>
 8006fd0:	204d      	movs	r0, #77	; 0x4d
 8006fd2:	e7ab      	b.n	8006f2c <HAL_HCD_MspInit+0x9c>
 8006fd4:	40023800 	.word	0x40023800
 8006fd8:	40020000 	.word	0x40020000
 8006fdc:	40040000 	.word	0x40040000
 8006fe0:	40020400 	.word	0x40020400

08006fe4 <HAL_HCD_SOF_Callback>:
 8006fe4:	f8d0 0300 	ldr.w	r0, [r0, #768]	; 0x300
 8006fe8:	f7ff bc30 	b.w	800684c <USBH_LL_IncTimer>

08006fec <HAL_HCD_Connect_Callback>:
 8006fec:	f8d0 0300 	ldr.w	r0, [r0, #768]	; 0x300
 8006ff0:	f7ff bc42 	b.w	8006878 <USBH_LL_Connect>

08006ff4 <HAL_HCD_Disconnect_Callback>:
 8006ff4:	f8d0 0300 	ldr.w	r0, [r0, #768]	; 0x300
 8006ff8:	f7ff bc48 	b.w	800688c <USBH_LL_Disconnect>

08006ffc <HAL_HCD_HC_NotifyURBChange_Callback>:
 8006ffc:	4770      	bx	lr

08006ffe <HAL_HCD_PortEnabled_Callback>:
 8006ffe:	f8d0 0300 	ldr.w	r0, [r0, #768]	; 0x300
 8007002:	f7ff bc31 	b.w	8006868 <USBH_LL_PortEnabled>

08007006 <HAL_HCD_PortDisabled_Callback>:
 8007006:	f8d0 0300 	ldr.w	r0, [r0, #768]	; 0x300
 800700a:	f7ff bc31 	b.w	8006870 <USBH_LL_PortDisabled>
	...

08007010 <USBH_LL_Init>:
 8007010:	b510      	push	{r4, lr}
 8007012:	f890 33d0 	ldrb.w	r3, [r0, #976]	; 0x3d0
 8007016:	4604      	mov	r4, r0
 8007018:	2b01      	cmp	r3, #1
 800701a:	d11e      	bne.n	800705a <USBH_LL_Init+0x4a>
 800701c:	4820      	ldr	r0, [pc, #128]	; (80070a0 <USBH_LL_Init+0x90>)
 800701e:	f04f 43a0 	mov.w	r3, #1342177280	; 0x50000000
 8007022:	f04f 0e0c 	mov.w	lr, #12
 8007026:	2202      	movs	r2, #2
 8007028:	6003      	str	r3, [r0, #0]
 800702a:	2303      	movs	r3, #3
 800702c:	f8c4 03d4 	str.w	r0, [r4, #980]	; 0x3d4
 8007030:	f8c0 4300 	str.w	r4, [r0, #768]	; 0x300
 8007034:	e9c0 e302 	strd	lr, r3, [r0, #8]
 8007038:	2300      	movs	r3, #0
 800703a:	6103      	str	r3, [r0, #16]
 800703c:	62c3      	str	r3, [r0, #44]	; 0x2c
 800703e:	e9c0 2306 	strd	r2, r3, [r0, #24]
 8007042:	f7fa fcf3 	bl	8001a2c <HAL_HCD_Init>
 8007046:	b108      	cbz	r0, 800704c <USBH_LL_Init+0x3c>
 8007048:	f7f9 fd70 	bl	8000b2c <Error_Handler>
 800704c:	4814      	ldr	r0, [pc, #80]	; (80070a0 <USBH_LL_Init+0x90>)
 800704e:	f7fb f9a3 	bl	8002398 <HAL_HCD_GetCurrentFrame>
 8007052:	4601      	mov	r1, r0
 8007054:	4620      	mov	r0, r4
 8007056:	f7ff fbf6 	bl	8006846 <USBH_LL_SetTimer>
 800705a:	f894 33d0 	ldrb.w	r3, [r4, #976]	; 0x3d0
 800705e:	b9e3      	cbnz	r3, 800709a <USBH_LL_Init+0x8a>
 8007060:	4810      	ldr	r0, [pc, #64]	; (80070a4 <USBH_LL_Init+0x94>)
 8007062:	4a11      	ldr	r2, [pc, #68]	; (80070a8 <USBH_LL_Init+0x98>)
 8007064:	6103      	str	r3, [r0, #16]
 8007066:	6002      	str	r2, [r0, #0]
 8007068:	2210      	movs	r2, #16
 800706a:	6203      	str	r3, [r0, #32]
 800706c:	6082      	str	r2, [r0, #8]
 800706e:	2202      	movs	r2, #2
 8007070:	62c3      	str	r3, [r0, #44]	; 0x2c
 8007072:	f8c4 03d4 	str.w	r0, [r4, #980]	; 0x3d4
 8007076:	f8c0 4300 	str.w	r4, [r0, #768]	; 0x300
 800707a:	e9c0 2306 	strd	r2, r3, [r0, #24]
 800707e:	2301      	movs	r3, #1
 8007080:	6343      	str	r3, [r0, #52]	; 0x34
 8007082:	f7fa fcd3 	bl	8001a2c <HAL_HCD_Init>
 8007086:	b108      	cbz	r0, 800708c <USBH_LL_Init+0x7c>
 8007088:	f7f9 fd50 	bl	8000b2c <Error_Handler>
 800708c:	4805      	ldr	r0, [pc, #20]	; (80070a4 <USBH_LL_Init+0x94>)
 800708e:	f7fb f983 	bl	8002398 <HAL_HCD_GetCurrentFrame>
 8007092:	4601      	mov	r1, r0
 8007094:	4620      	mov	r0, r4
 8007096:	f7ff fbd6 	bl	8006846 <USBH_LL_SetTimer>
 800709a:	2000      	movs	r0, #0
 800709c:	bd10      	pop	{r4, pc}
 800709e:	bf00      	nop
 80070a0:	20001048 	.word	0x20001048
 80070a4:	20000d44 	.word	0x20000d44
 80070a8:	40040000 	.word	0x40040000

080070ac <USBH_LL_Start>:
 80070ac:	b508      	push	{r3, lr}
 80070ae:	f8d0 03d4 	ldr.w	r0, [r0, #980]	; 0x3d4
 80070b2:	f7fb f93c 	bl	800232e <HAL_HCD_Start>
 80070b6:	2803      	cmp	r0, #3
 80070b8:	bf96      	itet	ls
 80070ba:	4b02      	ldrls	r3, [pc, #8]	; (80070c4 <USBH_LL_Start+0x18>)
 80070bc:	2002      	movhi	r0, #2
 80070be:	5c18      	ldrbls	r0, [r3, r0]
 80070c0:	bd08      	pop	{r3, pc}
 80070c2:	bf00      	nop
 80070c4:	0800778c 	.word	0x0800778c

080070c8 <USBH_LL_Stop>:
 80070c8:	b508      	push	{r3, lr}
 80070ca:	f8d0 03d4 	ldr.w	r0, [r0, #980]	; 0x3d4
 80070ce:	f7fb f943 	bl	8002358 <HAL_HCD_Stop>
 80070d2:	2803      	cmp	r0, #3
 80070d4:	bf96      	itet	ls
 80070d6:	4b02      	ldrls	r3, [pc, #8]	; (80070e0 <USBH_LL_Stop+0x18>)
 80070d8:	2002      	movhi	r0, #2
 80070da:	5c18      	ldrbls	r0, [r3, r0]
 80070dc:	bd08      	pop	{r3, pc}
 80070de:	bf00      	nop
 80070e0:	0800778c 	.word	0x0800778c

080070e4 <USBH_LL_GetSpeed>:
 80070e4:	b508      	push	{r3, lr}
 80070e6:	f8d0 03d4 	ldr.w	r0, [r0, #980]	; 0x3d4
 80070ea:	f7fb f958 	bl	800239e <HAL_HCD_GetCurrentSpeed>
 80070ee:	2802      	cmp	r0, #2
 80070f0:	bf88      	it	hi
 80070f2:	2001      	movhi	r0, #1
 80070f4:	b2c0      	uxtb	r0, r0
 80070f6:	bd08      	pop	{r3, pc}

080070f8 <USBH_LL_ResetPort>:
 80070f8:	b508      	push	{r3, lr}
 80070fa:	f8d0 03d4 	ldr.w	r0, [r0, #980]	; 0x3d4
 80070fe:	f7fb f93d 	bl	800237c <HAL_HCD_ResetPort>
 8007102:	2803      	cmp	r0, #3
 8007104:	bf96      	itet	ls
 8007106:	4b02      	ldrls	r3, [pc, #8]	; (8007110 <USBH_LL_ResetPort+0x18>)
 8007108:	2002      	movhi	r0, #2
 800710a:	5c18      	ldrbls	r0, [r3, r0]
 800710c:	bd08      	pop	{r3, pc}
 800710e:	bf00      	nop
 8007110:	0800778c 	.word	0x0800778c

08007114 <USBH_LL_GetLastXferSize>:
 8007114:	f8d0 03d4 	ldr.w	r0, [r0, #980]	; 0x3d4
 8007118:	f7fb b939 	b.w	800238e <HAL_HCD_HC_GetXferCount>

0800711c <USBH_LL_OpenPipe>:
 800711c:	b51f      	push	{r0, r1, r2, r3, r4, lr}
 800711e:	f8bd 4020 	ldrh.w	r4, [sp, #32]
 8007122:	9402      	str	r4, [sp, #8]
 8007124:	f89d 401c 	ldrb.w	r4, [sp, #28]
 8007128:	9401      	str	r4, [sp, #4]
 800712a:	f89d 4018 	ldrb.w	r4, [sp, #24]
 800712e:	9400      	str	r4, [sp, #0]
 8007130:	f8d0 03d4 	ldr.w	r0, [r0, #980]	; 0x3d4
 8007134:	f7fa fc32 	bl	800199c <HAL_HCD_HC_Init>
 8007138:	2803      	cmp	r0, #3
 800713a:	bf96      	itet	ls
 800713c:	4b02      	ldrls	r3, [pc, #8]	; (8007148 <USBH_LL_OpenPipe+0x2c>)
 800713e:	2002      	movhi	r0, #2
 8007140:	5c18      	ldrbls	r0, [r3, r0]
 8007142:	b004      	add	sp, #16
 8007144:	bd10      	pop	{r4, pc}
 8007146:	bf00      	nop
 8007148:	0800778c 	.word	0x0800778c

0800714c <USBH_LL_ClosePipe>:
 800714c:	b508      	push	{r3, lr}
 800714e:	f8d0 03d4 	ldr.w	r0, [r0, #980]	; 0x3d4
 8007152:	f7fa fc59 	bl	8001a08 <HAL_HCD_HC_Halt>
 8007156:	2803      	cmp	r0, #3
 8007158:	bf96      	itet	ls
 800715a:	4b02      	ldrls	r3, [pc, #8]	; (8007164 <USBH_LL_ClosePipe+0x18>)
 800715c:	2002      	movhi	r0, #2
 800715e:	5c18      	ldrbls	r0, [r3, r0]
 8007160:	bd08      	pop	{r3, pc}
 8007162:	bf00      	nop
 8007164:	0800778c 	.word	0x0800778c

08007168 <USBH_LL_SubmitURB>:
 8007168:	b51f      	push	{r0, r1, r2, r3, r4, lr}
 800716a:	f89d 4024 	ldrb.w	r4, [sp, #36]	; 0x24
 800716e:	9403      	str	r4, [sp, #12]
 8007170:	f8bd 4020 	ldrh.w	r4, [sp, #32]
 8007174:	9402      	str	r4, [sp, #8]
 8007176:	9c07      	ldr	r4, [sp, #28]
 8007178:	9401      	str	r4, [sp, #4]
 800717a:	f89d 4018 	ldrb.w	r4, [sp, #24]
 800717e:	9400      	str	r4, [sp, #0]
 8007180:	f8d0 03d4 	ldr.w	r0, [r0, #980]	; 0x3d4
 8007184:	f7fa fc9c 	bl	8001ac0 <HAL_HCD_HC_SubmitRequest>
 8007188:	2803      	cmp	r0, #3
 800718a:	bf96      	itet	ls
 800718c:	4b02      	ldrls	r3, [pc, #8]	; (8007198 <USBH_LL_SubmitURB+0x30>)
 800718e:	2002      	movhi	r0, #2
 8007190:	5c18      	ldrbls	r0, [r3, r0]
 8007192:	b004      	add	sp, #16
 8007194:	bd10      	pop	{r4, pc}
 8007196:	bf00      	nop
 8007198:	0800778c 	.word	0x0800778c

0800719c <USBH_LL_GetURBState>:
 800719c:	f8d0 03d4 	ldr.w	r0, [r0, #980]	; 0x3d4
 80071a0:	f7fb b8ef 	b.w	8002382 <HAL_HCD_HC_GetURBState>

080071a4 <USBH_LL_DriverVBUS>:
 80071a4:	20c8      	movs	r0, #200	; 0xc8
 80071a6:	b508      	push	{r3, lr}
 80071a8:	f7fa f924 	bl	80013f4 <HAL_Delay>
 80071ac:	2000      	movs	r0, #0
 80071ae:	bd08      	pop	{r3, pc}

080071b0 <USBH_LL_SetToggle>:
 80071b0:	f8d0 33d4 	ldr.w	r3, [r0, #980]	; 0x3d4
 80071b4:	202c      	movs	r0, #44	; 0x2c
 80071b6:	fb00 3101 	mla	r1, r0, r1, r3
 80071ba:	f891 303b 	ldrb.w	r3, [r1, #59]	; 0x3b
 80071be:	b11b      	cbz	r3, 80071c8 <USBH_LL_SetToggle+0x18>
 80071c0:	f881 2054 	strb.w	r2, [r1, #84]	; 0x54
 80071c4:	2000      	movs	r0, #0
 80071c6:	4770      	bx	lr
 80071c8:	f881 2055 	strb.w	r2, [r1, #85]	; 0x55
 80071cc:	e7fa      	b.n	80071c4 <USBH_LL_SetToggle+0x14>

080071ce <USBH_Delay>:
 80071ce:	f7fa b911 	b.w	80013f4 <HAL_Delay>
	...

080071d4 <__errno>:
 80071d4:	4b01      	ldr	r3, [pc, #4]	; (80071dc <__errno+0x8>)
 80071d6:	6818      	ldr	r0, [r3, #0]
 80071d8:	4770      	bx	lr
 80071da:	bf00      	nop
 80071dc:	2000008c 	.word	0x2000008c

080071e0 <__libc_init_array>:
 80071e0:	b570      	push	{r4, r5, r6, lr}
 80071e2:	4d0d      	ldr	r5, [pc, #52]	; (8007218 <__libc_init_array+0x38>)
 80071e4:	4c0d      	ldr	r4, [pc, #52]	; (800721c <__libc_init_array+0x3c>)
 80071e6:	1b64      	subs	r4, r4, r5
 80071e8:	10a4      	asrs	r4, r4, #2
 80071ea:	2600      	movs	r6, #0
 80071ec:	42a6      	cmp	r6, r4
 80071ee:	d109      	bne.n	8007204 <__libc_init_array+0x24>
 80071f0:	4d0b      	ldr	r5, [pc, #44]	; (8007220 <__libc_init_array+0x40>)
 80071f2:	4c0c      	ldr	r4, [pc, #48]	; (8007224 <__libc_init_array+0x44>)
 80071f4:	f000 f8f8 	bl	80073e8 <_init>
 80071f8:	1b64      	subs	r4, r4, r5
 80071fa:	10a4      	asrs	r4, r4, #2
 80071fc:	2600      	movs	r6, #0
 80071fe:	42a6      	cmp	r6, r4
 8007200:	d105      	bne.n	800720e <__libc_init_array+0x2e>
 8007202:	bd70      	pop	{r4, r5, r6, pc}
 8007204:	f855 3b04 	ldr.w	r3, [r5], #4
 8007208:	4798      	blx	r3
 800720a:	3601      	adds	r6, #1
 800720c:	e7ee      	b.n	80071ec <__libc_init_array+0xc>
 800720e:	f855 3b04 	ldr.w	r3, [r5], #4
 8007212:	4798      	blx	r3
 8007214:	3601      	adds	r6, #1
 8007216:	e7f2      	b.n	80071fe <__libc_init_array+0x1e>
 8007218:	08007798 	.word	0x08007798
 800721c:	08007798 	.word	0x08007798
 8007220:	08007798 	.word	0x08007798
 8007224:	0800779c 	.word	0x0800779c

08007228 <malloc>:
 8007228:	4b02      	ldr	r3, [pc, #8]	; (8007234 <malloc+0xc>)
 800722a:	4601      	mov	r1, r0
 800722c:	6818      	ldr	r0, [r3, #0]
 800722e:	f000 b863 	b.w	80072f8 <_malloc_r>
 8007232:	bf00      	nop
 8007234:	2000008c 	.word	0x2000008c

08007238 <free>:
 8007238:	4b02      	ldr	r3, [pc, #8]	; (8007244 <free+0xc>)
 800723a:	4601      	mov	r1, r0
 800723c:	6818      	ldr	r0, [r3, #0]
 800723e:	f000 b80b 	b.w	8007258 <_free_r>
 8007242:	bf00      	nop
 8007244:	2000008c 	.word	0x2000008c

08007248 <memset>:
 8007248:	4402      	add	r2, r0
 800724a:	4603      	mov	r3, r0
 800724c:	4293      	cmp	r3, r2
 800724e:	d100      	bne.n	8007252 <memset+0xa>
 8007250:	4770      	bx	lr
 8007252:	f803 1b01 	strb.w	r1, [r3], #1
 8007256:	e7f9      	b.n	800724c <memset+0x4>

08007258 <_free_r>:
 8007258:	b537      	push	{r0, r1, r2, r4, r5, lr}
 800725a:	2900      	cmp	r1, #0
 800725c:	d048      	beq.n	80072f0 <_free_r+0x98>
 800725e:	f851 3c04 	ldr.w	r3, [r1, #-4]
 8007262:	9001      	str	r0, [sp, #4]
 8007264:	2b00      	cmp	r3, #0
 8007266:	f1a1 0404 	sub.w	r4, r1, #4
 800726a:	bfb8      	it	lt
 800726c:	18e4      	addlt	r4, r4, r3
 800726e:	f000 f8ad 	bl	80073cc <__malloc_lock>
 8007272:	4a20      	ldr	r2, [pc, #128]	; (80072f4 <_free_r+0x9c>)
 8007274:	9801      	ldr	r0, [sp, #4]
 8007276:	6813      	ldr	r3, [r2, #0]
 8007278:	4615      	mov	r5, r2
 800727a:	b933      	cbnz	r3, 800728a <_free_r+0x32>
 800727c:	6063      	str	r3, [r4, #4]
 800727e:	6014      	str	r4, [r2, #0]
 8007280:	b003      	add	sp, #12
 8007282:	e8bd 4030 	ldmia.w	sp!, {r4, r5, lr}
 8007286:	f000 b8a7 	b.w	80073d8 <__malloc_unlock>
 800728a:	42a3      	cmp	r3, r4
 800728c:	d90b      	bls.n	80072a6 <_free_r+0x4e>
 800728e:	6821      	ldr	r1, [r4, #0]
 8007290:	1862      	adds	r2, r4, r1
 8007292:	4293      	cmp	r3, r2
 8007294:	bf04      	itt	eq
 8007296:	681a      	ldreq	r2, [r3, #0]
 8007298:	685b      	ldreq	r3, [r3, #4]
 800729a:	6063      	str	r3, [r4, #4]
 800729c:	bf04      	itt	eq
 800729e:	1852      	addeq	r2, r2, r1
 80072a0:	6022      	streq	r2, [r4, #0]
 80072a2:	602c      	str	r4, [r5, #0]
 80072a4:	e7ec      	b.n	8007280 <_free_r+0x28>
 80072a6:	461a      	mov	r2, r3
 80072a8:	685b      	ldr	r3, [r3, #4]
 80072aa:	b10b      	cbz	r3, 80072b0 <_free_r+0x58>
 80072ac:	42a3      	cmp	r3, r4
 80072ae:	d9fa      	bls.n	80072a6 <_free_r+0x4e>
 80072b0:	6811      	ldr	r1, [r2, #0]
 80072b2:	1855      	adds	r5, r2, r1
 80072b4:	42a5      	cmp	r5, r4
 80072b6:	d10b      	bne.n	80072d0 <_free_r+0x78>
 80072b8:	6824      	ldr	r4, [r4, #0]
 80072ba:	4421      	add	r1, r4
 80072bc:	1854      	adds	r4, r2, r1
 80072be:	42a3      	cmp	r3, r4
 80072c0:	6011      	str	r1, [r2, #0]
 80072c2:	d1dd      	bne.n	8007280 <_free_r+0x28>
 80072c4:	681c      	ldr	r4, [r3, #0]
 80072c6:	685b      	ldr	r3, [r3, #4]
 80072c8:	6053      	str	r3, [r2, #4]
 80072ca:	4421      	add	r1, r4
 80072cc:	6011      	str	r1, [r2, #0]
 80072ce:	e7d7      	b.n	8007280 <_free_r+0x28>
 80072d0:	d902      	bls.n	80072d8 <_free_r+0x80>
 80072d2:	230c      	movs	r3, #12
 80072d4:	6003      	str	r3, [r0, #0]
 80072d6:	e7d3      	b.n	8007280 <_free_r+0x28>
 80072d8:	6825      	ldr	r5, [r4, #0]
 80072da:	1961      	adds	r1, r4, r5
 80072dc:	428b      	cmp	r3, r1
 80072de:	bf04      	itt	eq
 80072e0:	6819      	ldreq	r1, [r3, #0]
 80072e2:	685b      	ldreq	r3, [r3, #4]
 80072e4:	6063      	str	r3, [r4, #4]
 80072e6:	bf04      	itt	eq
 80072e8:	1949      	addeq	r1, r1, r5
 80072ea:	6021      	streq	r1, [r4, #0]
 80072ec:	6054      	str	r4, [r2, #4]
 80072ee:	e7c7      	b.n	8007280 <_free_r+0x28>
 80072f0:	b003      	add	sp, #12
 80072f2:	bd30      	pop	{r4, r5, pc}
 80072f4:	20000120 	.word	0x20000120

080072f8 <_malloc_r>:
 80072f8:	b5f8      	push	{r3, r4, r5, r6, r7, lr}
 80072fa:	1ccd      	adds	r5, r1, #3
 80072fc:	f025 0503 	bic.w	r5, r5, #3
 8007300:	3508      	adds	r5, #8
 8007302:	2d0c      	cmp	r5, #12
 8007304:	bf38      	it	cc
 8007306:	250c      	movcc	r5, #12
 8007308:	2d00      	cmp	r5, #0
 800730a:	4606      	mov	r6, r0
 800730c:	db01      	blt.n	8007312 <_malloc_r+0x1a>
 800730e:	42a9      	cmp	r1, r5
 8007310:	d903      	bls.n	800731a <_malloc_r+0x22>
 8007312:	230c      	movs	r3, #12
 8007314:	6033      	str	r3, [r6, #0]
 8007316:	2000      	movs	r0, #0
 8007318:	bdf8      	pop	{r3, r4, r5, r6, r7, pc}
 800731a:	f000 f857 	bl	80073cc <__malloc_lock>
 800731e:	4921      	ldr	r1, [pc, #132]	; (80073a4 <_malloc_r+0xac>)
 8007320:	680a      	ldr	r2, [r1, #0]
 8007322:	4614      	mov	r4, r2
 8007324:	b99c      	cbnz	r4, 800734e <_malloc_r+0x56>
 8007326:	4f20      	ldr	r7, [pc, #128]	; (80073a8 <_malloc_r+0xb0>)
 8007328:	683b      	ldr	r3, [r7, #0]
 800732a:	b923      	cbnz	r3, 8007336 <_malloc_r+0x3e>
 800732c:	4621      	mov	r1, r4
 800732e:	4630      	mov	r0, r6
 8007330:	f000 f83c 	bl	80073ac <_sbrk_r>
 8007334:	6038      	str	r0, [r7, #0]
 8007336:	4629      	mov	r1, r5
 8007338:	4630      	mov	r0, r6
 800733a:	f000 f837 	bl	80073ac <_sbrk_r>
 800733e:	1c43      	adds	r3, r0, #1
 8007340:	d123      	bne.n	800738a <_malloc_r+0x92>
 8007342:	230c      	movs	r3, #12
 8007344:	6033      	str	r3, [r6, #0]
 8007346:	4630      	mov	r0, r6
 8007348:	f000 f846 	bl	80073d8 <__malloc_unlock>
 800734c:	e7e3      	b.n	8007316 <_malloc_r+0x1e>
 800734e:	6823      	ldr	r3, [r4, #0]
 8007350:	1b5b      	subs	r3, r3, r5
 8007352:	d417      	bmi.n	8007384 <_malloc_r+0x8c>
 8007354:	2b0b      	cmp	r3, #11
 8007356:	d903      	bls.n	8007360 <_malloc_r+0x68>
 8007358:	6023      	str	r3, [r4, #0]
 800735a:	441c      	add	r4, r3
 800735c:	6025      	str	r5, [r4, #0]
 800735e:	e004      	b.n	800736a <_malloc_r+0x72>
 8007360:	6863      	ldr	r3, [r4, #4]
 8007362:	42a2      	cmp	r2, r4
 8007364:	bf0c      	ite	eq
 8007366:	600b      	streq	r3, [r1, #0]
 8007368:	6053      	strne	r3, [r2, #4]
 800736a:	4630      	mov	r0, r6
 800736c:	f000 f834 	bl	80073d8 <__malloc_unlock>
 8007370:	f104 000b 	add.w	r0, r4, #11
 8007374:	1d23      	adds	r3, r4, #4
 8007376:	f020 0007 	bic.w	r0, r0, #7
 800737a:	1ac2      	subs	r2, r0, r3
 800737c:	d0cc      	beq.n	8007318 <_malloc_r+0x20>
 800737e:	1a1b      	subs	r3, r3, r0
 8007380:	50a3      	str	r3, [r4, r2]
 8007382:	e7c9      	b.n	8007318 <_malloc_r+0x20>
 8007384:	4622      	mov	r2, r4
 8007386:	6864      	ldr	r4, [r4, #4]
 8007388:	e7cc      	b.n	8007324 <_malloc_r+0x2c>
 800738a:	1cc4      	adds	r4, r0, #3
 800738c:	f024 0403 	bic.w	r4, r4, #3
 8007390:	42a0      	cmp	r0, r4
 8007392:	d0e3      	beq.n	800735c <_malloc_r+0x64>
 8007394:	1a21      	subs	r1, r4, r0
 8007396:	4630      	mov	r0, r6
 8007398:	f000 f808 	bl	80073ac <_sbrk_r>
 800739c:	3001      	adds	r0, #1
 800739e:	d1dd      	bne.n	800735c <_malloc_r+0x64>
 80073a0:	e7cf      	b.n	8007342 <_malloc_r+0x4a>
 80073a2:	bf00      	nop
 80073a4:	20000120 	.word	0x20000120
 80073a8:	20000124 	.word	0x20000124

080073ac <_sbrk_r>:
 80073ac:	b538      	push	{r3, r4, r5, lr}
 80073ae:	4d06      	ldr	r5, [pc, #24]	; (80073c8 <_sbrk_r+0x1c>)
 80073b0:	2300      	movs	r3, #0
 80073b2:	4604      	mov	r4, r0
 80073b4:	4608      	mov	r0, r1
 80073b6:	602b      	str	r3, [r5, #0]
 80073b8:	f7f9 fd62 	bl	8000e80 <_sbrk>
 80073bc:	1c43      	adds	r3, r0, #1
 80073be:	d102      	bne.n	80073c6 <_sbrk_r+0x1a>
 80073c0:	682b      	ldr	r3, [r5, #0]
 80073c2:	b103      	cbz	r3, 80073c6 <_sbrk_r+0x1a>
 80073c4:	6023      	str	r3, [r4, #0]
 80073c6:	bd38      	pop	{r3, r4, r5, pc}
 80073c8:	2000134c 	.word	0x2000134c

080073cc <__malloc_lock>:
 80073cc:	4801      	ldr	r0, [pc, #4]	; (80073d4 <__malloc_lock+0x8>)
 80073ce:	f000 b809 	b.w	80073e4 <__retarget_lock_acquire_recursive>
 80073d2:	bf00      	nop
 80073d4:	20001354 	.word	0x20001354

080073d8 <__malloc_unlock>:
 80073d8:	4801      	ldr	r0, [pc, #4]	; (80073e0 <__malloc_unlock+0x8>)
 80073da:	f000 b804 	b.w	80073e6 <__retarget_lock_release_recursive>
 80073de:	bf00      	nop
 80073e0:	20001354 	.word	0x20001354

080073e4 <__retarget_lock_acquire_recursive>:
 80073e4:	4770      	bx	lr

080073e6 <__retarget_lock_release_recursive>:
 80073e6:	4770      	bx	lr

080073e8 <_init>:
 80073e8:	b5f8      	push	{r3, r4, r5, r6, r7, lr}
 80073ea:	bf00      	nop
 80073ec:	bcf8      	pop	{r3, r4, r5, r6, r7}
 80073ee:	bc08      	pop	{r3}
 80073f0:	469e      	mov	lr, r3
 80073f2:	4770      	bx	lr

080073f4 <_fini>:
 80073f4:	b5f8      	push	{r3, r4, r5, r6, r7, lr}
 80073f6:	bf00      	nop
 80073f8:	bcf8      	pop	{r3, r4, r5, r6, r7}
 80073fa:	bc08      	pop	{r3}
 80073fc:	469e      	mov	lr, r3
 80073fe:	4770      	bx	lr
